 tdraw

 Timestamp is 62d1deb2 (Fri Jul 15 17:40:02 2022)

 Preferred load address is 10000000

 Start         Length     Name                   Class
 0001:00000000 000002e0H .text$di                CODE
 0001:000002e0 0007f740H .text$mn                CODE
 0001:0007fa20 00001bf4H .text$x                 CODE
 0002:00000000 00000280H .idata$5                DATA
 0002:00000280 0000000cH .00cfg                  DATA
 0002:0000028c 00000004H .CRT$XCA                DATA
 0002:00000290 0000005cH .CRT$XCU                DATA
 0002:000002ec 00000004H .CRT$XCZ                DATA
 0002:000002f0 00000004H .CRT$XIA                DATA
 0002:000002f4 00000010H .CRT$XIC                DATA
 0002:00000304 00000004H .CRT$XIZ                DATA
 0002:00000308 00000004H .CRT$XPA                DATA
 0002:0000030c 00000008H .CRT$XPX                DATA
 0002:00000314 00000004H .CRT$XPXA               DATA
 0002:00000318 00000004H .CRT$XPZ                DATA
 0002:0000031c 00000004H .CRT$XTA                DATA
 0002:00000320 00000010H .CRT$XTZ                DATA
 0002:00000324 00000000H .gfids$y                DATA
 0002:00000330 0000aed0H .rdata                  DATA
 0002:0000b200 00000040H .rdata$CastGuardVftablesA DATA
 0002:0000b240 00000040H .rdata$CastGuardVftablesC DATA
 0002:0000b280 000009dcH .rdata$r                DATA
 0002:0000bc5c 000001ecH .rdata$sxdata           DATA
 0002:0000be48 000006a8H .rdata$voltmd           DATA
 0002:0000c4f0 000003ccH .rdata$zzzdbg           DATA
 0002:0000c8bc 00000004H .rtc$IAA                DATA
 0002:0000c8c0 00000004H .rtc$IZZ                DATA
 0002:0000c8c4 00000004H .rtc$TAA                DATA
 0002:0000c8c8 00000008H .rtc$TZZ                DATA
 0002:0000c8d0 000027d0H .xdata$x                DATA
 0002:0000f0a0 000002bcH .edata                  DATA
 0002:0000f35c 00000064H .idata$2                DATA
 0002:0000f3c0 00000014H .idata$3                DATA
 0002:0000f3d4 00000280H .idata$4                DATA
 0002:0000f654 00000b68H .idata$6                DATA
 0003:00000000 00003550H .data                   DATA
 0003:00003550 000001acH .data$r                 DATA
 0003:000036fc 0000026cH .data$rs                DATA
 0003:00003968 00001a28H .bss                    DATA
 0004:00000000 00000360H .rsrc$01                DATA
 0004:00000360 0001d9d8H .rsrc$02                DATA

  Address         Publics by Value              Rva+Base       Lib:Object

 0000:00000000       ___AbsoluteZero            00000000     <absolute>
 0000:00000000       ___arm64x_extra_rfe_table  00000000     <absolute>
 0000:00000000       ___arm64x_extra_rfe_table_size 00000000     <absolute>
 0000:00000000       ___arm64x_native_entrypoint 00000000     <absolute>
 0000:00000000       ___arm64x_redirection_metadata 00000000     <absolute>
 0000:00000000       ___arm64x_redirection_metadata_count 00000000     <absolute>
 0000:00000000       ___dynamic_value_reloc_table 00000000     <absolute>
 0000:00000000       ___enclave_config          00000000     <absolute>
 0000:00000000       ___guard_check_icall_a64n_fptr 00000000     <absolute>
 0000:00000000       ___guard_eh_cont_count     00000000     <absolute>
 0000:00000000       ___guard_eh_cont_table     00000000     <absolute>
 0000:00000000       ___guard_fids_count        00000000     <absolute>
 0000:00000000       ___guard_fids_table        00000000     <absolute>
 0000:00000000       ___guard_iat_count         00000000     <absolute>
 0000:00000000       ___guard_iat_table         00000000     <absolute>
 0000:00000000       ___guard_longjmp_count     00000000     <absolute>
 0000:00000000       ___guard_longjmp_table     00000000     <absolute>
 0000:00000000       ___hybrid_auxiliary_iat    00000000     <absolute>
 0000:00000000       ___hybrid_auxiliary_iat_copy 00000000     <absolute>
 0000:00000000       ___hybrid_code_map         00000000     <absolute>
 0000:00000000       ___hybrid_code_map_count   00000000     <absolute>
 0000:00000000       ___x64_code_ranges_to_entry_points 00000000     <absolute>
 0000:00000000       ___x64_code_ranges_to_entry_points_count 00000000     <absolute>
 0000:00000000       __except_list              00000000     <absolute>
 0000:0000007b       ___safe_se_handler_count   0000007b     <absolute>
 0000:00000100       ___guard_flags             00000100     <absolute>
 0000:00000000       ___ImageBase               10000000     <linker-defined>
 0001:000002e0       ??0MappedMap@@QAE@HH@Z     100012e0 f   MappedMAP.obj
 0001:00000340       ??1MappedMap@@QAE@XZ       10001340 f   MappedMAP.obj
 0001:00000390       ?NowDrawMapped@MappedMap@@QAEHPAEPAUtagPOINT@@@Z 10001390 f   MappedMAP.obj
 0001:00000a70       ?PictureInfo@MappedMap@@QAEPAEPAPAEPAUtagPOINT@@@Z 10001a70 f   MappedMAP.obj
 0001:00000aa0       ??0MegaMapControl@@QAE@PAVFullScreenMinimap@@PAUtagRECT@@11HHHHHH@Z 10001aa0 f   MegamapControl.obj
 0001:00000c70       ??1MegaMapControl@@QAE@XZ  10001c70 f   MegamapControl.obj
 0001:00000d10       ??_GInlineSingleHook@@QAEPAXI@Z 10001d10 f i MegamapControl.obj
 0001:00000d40       ?CheckInControl@MegaMapControl@@AAEHHH@Z 10001d40 f   MegamapControl.obj
 0001:00000e70       ?CheckInMap@MegaMapControl@@AAEHHH@Z 10001e70 f   MegamapControl.obj
 0001:00000ec0       ?DoubleClick@MegaMapControl@@AAEHHH_N@Z 10001ec0 f   MegamapControl.obj
 0001:00001010       ?EnterMegaMap@MegaMapControl@@QAEXXZ 10002010 f   MegamapControl.obj
 0001:00001100       ?FindMouseUnitRounte@@YGHPAUtagInlineX86StackBuffer@@@Z 10002100 f   MegamapControl.obj
 0001:00001140       ?GetGridPosFeatureRounte@@YGHPAUtagInlineX86StackBuffer@@@Z 10002140 f   MegamapControl.obj
 0001:00001180       ?GetPosition_DwordRounte@@YGHPAUtagInlineX86StackBuffer@@@Z 10002180 f   MegamapControl.obj
 0001:000011b0       ?Init@MegaMapControl@@QAEXPAVFullScreenMinimap@@PAUtagRECT@@11HHHHHH@Z 100021b0 f   MegamapControl.obj
 0001:00001360       ?IsBliting@MegaMapControl@@QAEHXZ 10002360 f   MegamapControl.obj
 0001:00001380       ?IsDrawCursor@MegaMapControl@@QAEHHH@Z 10002380 f   MegamapControl.obj
 0001:00001500       ?IsDrawOrder@MegaMapControl@@QAEHXZ 10002500 f   MegamapControl.obj
 0001:00001530       ?IsDrawRect@MegaMapControl@@QAEHH@Z 10002530 f   MegamapControl.obj
 0001:00001600       ?IsInControl@MegaMapControl@@QAEHXZ 10002600 f   MegamapControl.obj
 0001:00001620       ?IsInMap@MegaMapControl@@QAEHXZ 10002620 f   MegamapControl.obj
 0001:00001640       ?LeftDown@MegaMapControl@@AAEHHH_N@Z 10002640 f   MegamapControl.obj
 0001:00001660       ?LeftUp@MegaMapControl@@AAEHHH_N@Z 10002660 f   MegamapControl.obj
 0001:00001960       ?MegamapMoveSceen@MegaMapControl@@AAEXHH@Z 10002960 f   MegamapControl.obj
 0001:00001a50       ?Message@MegaMapControl@@QAE_NPAUHWND__@@IIJ@Z 10002a50 f   MegamapControl.obj
 0001:00001e80       ?MouseMove@MegaMapControl@@AAEHHH@Z 10002e80 f   MegamapControl.obj
 0001:00002100       ?MoveScreen@MegaMapControl@@AAEXHHH@Z 10003100 f   MegamapControl.obj
 0001:00002210       ?QuitMegaMap@MegaMapControl@@QAEXXZ 10003210 f   MegamapControl.obj
 0001:00002280       ?ReadSelectRect@MegaMapControl@@QAEPAUtagRECT@@PAU2@@Z 10003280 f   MegamapControl.obj
 0001:000022b0       ?ReadSelectState@MegaMapControl@@QAE?AW4SELECTBUTTOM@selectbuttom@@XZ 100032b0 f   MegamapControl.obj
 0001:000022d0       ?RightDown@MegaMapControl@@AAEHHH_N@Z 100032d0 f   MegamapControl.obj
 0001:000022f0       ?RightUp@MegaMapControl@@AAEHHH_N@Z 100032f0 f   MegamapControl.obj
 0001:00002430       ?ScreenPos2TAPos@MegaMapControl@@AAEPAU_Position_Dword@@PAU2@HHH@Z 10003430 f   MegamapControl.obj
 0001:000024c0       ?SelectDown@MegaMapControl@@AAEHHH_N@Z 100034c0 f   MegamapControl.obj
 0001:00002500       ?SelectMove@MegaMapControl@@AAEHHH_N0@Z 10003500 f   MegamapControl.obj
 0001:000025c0       ?SelectUp@MegaMapControl@@AAEHHH_N0@Z 100035c0 f   MegamapControl.obj
 0001:000027e0       ?Set@MegaMapControl@@QAEXH@Z 100037e0 f   MegamapControl.obj
 0001:00002800       ?TAPos2ScreenPos@MegaMapControl@@AAEPAUtagPOINT@@PAU2@III@Z 10003800 f   MegamapControl.obj
 0001:00002870       ?WheelBack@MegaMapControl@@AAEHHH@Z 10003870 f   MegamapControl.obj
 0001:000028b0       ?WheelFont@MegaMapControl@@AAEHHH@Z 100038b0 f   MegamapControl.obj
 0001:00002910       ?abs@@YGJJ@Z               10003910 f i MegamapControl.obj
 0001:00002930       ??$?0$$V@?$_Compressed_pair@V?$allocator@U_Position_Dword@@@std@@V?$_Vector_val@U?$_Simple_types@U_Position_Dword@@@std@@@2@$00@std@@QAE@U_Zero_then_variadic_args_t@1@@Z 10003930 f i MegamapTAStuff.obj
 0001:00002950       ??$_Allocate@$07U_Default_allocate_traits@std@@$0A@@std@@YGPAXI@Z 10003950 f i MegamapTAStuff.obj
 0001:00002980       ??$_Allocate_manually_vector_aligned@U_Default_allocate_traits@std@@@std@@YGPAXI@Z 10003980 f i MegamapTAStuff.obj
 0001:000029f0       ??$_Construct_in_place@U_Position_Dword@@ABU1@@std@@YGXAAU_Position_Dword@@ABU1@@Z 100039f0 f i MegamapTAStuff.obj
 0001:00002a40       ??$_Copy_memmove@PAU_Position_Dword@@PAU1@@std@@YGPAU_Position_Dword@@PAU1@00@Z 10003a40 f i MegamapTAStuff.obj
 0001:00002ab0       ??$_Deallocate@$07$0A@@std@@YGXPAXI@Z 10003ab0 f i MegamapTAStuff.obj
 0001:00002b10       ??$_Destroy_range@V?$allocator@U_Position_Dword@@@std@@@std@@YGXPAU_Position_Dword@@QAU1@AAV?$allocator@U_Position_Dword@@@0@@Z 10003b10 f i MegamapTAStuff.obj
 0001:00002b20       ??$_Emplace_back@U_Position_Dword@@@?$_Uninitialized_backout_al@V?$allocator@U_Position_Dword@@@std@@@std@@QAEX$$QAU_Position_Dword@@@Z 10003b20 f i MegamapTAStuff.obj
 0001:00002b60       ??$_Emplace_back_with_unused_capacity@ABU_Position_Dword@@@?$vector@U_Position_Dword@@V?$allocator@U_Position_Dword@@@std@@@std@@AAEAAU_Position_Dword@@ABU2@@Z 10003b60 f i MegamapTAStuff.obj
 0001:00002bc0       ??$_Emplace_one_at_back@ABU_Position_Dword@@@?$vector@U_Position_Dword@@V?$allocator@U_Position_Dword@@@std@@@std@@AAEAAU_Position_Dword@@ABU2@@Z 10003bc0 f i MegamapTAStuff.obj
 0001:00002c20       ??$_Emplace_reallocate@ABU_Position_Dword@@@?$vector@U_Position_Dword@@V?$allocator@U_Position_Dword@@@std@@@std@@AAEPAU_Position_Dword@@QAU2@ABU2@@Z 10003c20 f i MegamapTAStuff.obj
 0001:00002e00       ??$_Get_size_of_n@$0M@@std@@YGII@Z 10003e00 f i MegamapTAStuff.obj
 0001:00002e30       ??$_Get_unwrapped@ABQAU_Position_Dword@@@std@@YG?A_TABQAU_Position_Dword@@@Z 10003e30 f i MegamapTAStuff.obj
 0001:00002e40       ??$_To_address@PAU_Position_Dword@@@std@@YG?A_PABQAU_Position_Dword@@@Z 10003e40 f i MegamapTAStuff.obj
 0001:00002e50       ??$_Unfancy@U_Position_Dword@@@std@@YGPAU_Position_Dword@@PAU1@@Z 10003e50 f i MegamapTAStuff.obj
 0001:00002e60       ??$_Uninitialized_move@PAU_Position_Dword@@V?$allocator@U_Position_Dword@@@std@@@std@@YGPAU_Position_Dword@@QAU1@0PAU1@AAV?$allocator@U_Position_Dword@@@0@@Z 10003e60 f i MegamapTAStuff.obj
 0001:00002f40       ??$_Voidify_iter@PAU_Position_Dword@@@std@@YGPAXPAU_Position_Dword@@@Z 10003f40 f i MegamapTAStuff.obj
 0001:00002f50       ??$addressof@U_Position_Dword@@@std@@YGPAU_Position_Dword@@AAU1@@Z 10003f50 f i MegamapTAStuff.obj
 0001:00002f60       ??$addressof@V?$_Vector_val@U?$_Simple_types@U_Position_Dword@@@std@@@std@@@std@@YGPAV?$_Vector_val@U?$_Simple_types@U_Position_Dword@@@std@@@0@AAV10@@Z 10003f60 f i MegamapTAStuff.obj
 0001:00002f70       ??$construct@U_Position_Dword@@ABU1@@?$_Default_allocator_traits@V?$allocator@U_Position_Dword@@@std@@@std@@SGXAAV?$allocator@U_Position_Dword@@@1@QAU_Position_Dword@@ABU3@@Z 10003f70 f i MegamapTAStuff.obj
 0001:00002fb0       ??$construct@U_Position_Dword@@U1@@?$_Default_allocator_traits@V?$allocator@U_Position_Dword@@@std@@@std@@SGXAAV?$allocator@U_Position_Dword@@@1@QAU_Position_Dword@@$$QAU3@@Z 10003fb0 f i MegamapTAStuff.obj
 0001:00002ff0       ??$emplace_back@ABU_Position_Dword@@@?$vector@U_Position_Dword@@V?$allocator@U_Position_Dword@@@std@@@std@@QAE?A_TABU_Position_Dword@@@Z 10003ff0 f i MegamapTAStuff.obj
 0001:00003020       ??$forward@ABU_Position_Dword@@@std@@YGABU_Position_Dword@@ABU1@@Z 10004020 f i MegamapTAStuff.obj
 0001:00003030       ??$forward@U_Position_Dword@@@std@@YG$$QAU_Position_Dword@@AAU1@@Z 10004030 f i MegamapTAStuff.obj
 0001:00003040       ??$min@I@std@@YGABIABI0@Z  10004040 f i MegamapTAStuff.obj
 0001:00003070       ??$move@AAU_Position_Dword@@@std@@YG$$QAU_Position_Dword@@AAU1@@Z 10004070 f i MegamapTAStuff.obj
 0001:00003080       ??$sprintf_s@$0BAA@@@YAHAAY0BAA@DPBDZZ 10004080 f i MegamapTAStuff.obj
 0001:000030b0       ??0?$_Uninitialized_backout_al@V?$allocator@U_Position_Dword@@@std@@@std@@QAE@PAU_Position_Dword@@AAV?$allocator@U_Position_Dword@@@1@@Z 100040b0 f i MegamapTAStuff.obj
 0001:000030e0       ??0?$_Vector_const_iterator@V?$_Vector_val@U?$_Simple_types@U_Position_Dword@@@std@@@std@@@std@@QAE@PAU_Position_Dword@@PBU_Container_base0@1@@Z 100040e0 f i MegamapTAStuff.obj
 0001:00003110       ??0?$_Vector_iterator@V?$_Vector_val@U?$_Simple_types@U_Position_Dword@@@std@@@std@@@std@@QAE@PAU_Position_Dword@@PBU_Container_base0@1@@Z 10004110 f i MegamapTAStuff.obj
 0001:00003130       ??0?$_Vector_val@U?$_Simple_types@U_Position_Dword@@@std@@@std@@QAE@XZ 10004130 f i MegamapTAStuff.obj
 0001:00003160       ??0?$allocator@U_Position_Dword@@@std@@QAE@XZ 10004160 f i MegamapTAStuff.obj
 0001:00003170       ??0?$vector@U_Position_Dword@@V?$allocator@U_Position_Dword@@@std@@@std@@QAE@XZ 10004170 f i MegamapTAStuff.obj
 0001:000031a0       ??0MegamapTAStuff@@QAE@PAVFullScreenMinimap@@PAUtagRECT@@11HHH@Z 100041a0 f   MegamapTAStuff.obj
 0001:00003220       ??0bad_alloc@std@@AAE@QBD@Z 10004220 f i MegamapTAStuff.obj
 0001:00003250       ??0bad_alloc@std@@QAE@ABV01@@Z 10004250 f i MegamapTAStuff.obj
 0001:00003280       ??0bad_array_new_length@std@@QAE@ABV01@@Z 10004280 f i MegamapTAStuff.obj
 0001:000032b0       ??0bad_array_new_length@std@@QAE@XZ 100042b0 f i MegamapTAStuff.obj
 0001:000032e0       ??0exception@std@@QAE@ABV01@@Z 100042e0 f i MegamapTAStuff.obj
 0001:00003320       ??0exception@std@@QAE@QBDH@Z 10004320 f i MegamapTAStuff.obj
 0001:00003350       ??1?$_Uninitialized_backout_al@V?$allocator@U_Position_Dword@@@std@@@std@@QAE@XZ 10004350 f i MegamapTAStuff.obj
 0001:00003380       ??1?$vector@U_Position_Dword@@V?$allocator@U_Position_Dword@@@std@@@std@@QAE@XZ 10004380 f i MegamapTAStuff.obj
 0001:000033a0       ??1MegamapTAStuff@@QAE@XZ  100043a0 f   MegamapTAStuff.obj
 0001:000033e0       ??1bad_alloc@std@@UAE@XZ   100043e0 f i MegamapTAStuff.obj
 0001:00003400       ??1bad_array_new_length@std@@UAE@XZ 10004400 f i MegamapTAStuff.obj
 0001:00003420       ??1exception@std@@UAE@XZ   10004420 f i MegamapTAStuff.obj
 0001:00003450       ??2@YAPAXIPAX@Z            10004450 f i MegamapTAStuff.obj
 0001:00003460       ??8?$_Vector_const_iterator@V?$_Vector_val@U?$_Simple_types@U_Position_Dword@@@std@@@std@@@std@@QBE_NABV01@@Z 10004460 f i MegamapTAStuff.obj
 0001:000034a0       ??9?$_Vector_const_iterator@V?$_Vector_val@U?$_Simple_types@U_Position_Dword@@@std@@@std@@@std@@QBE_NABV01@@Z 100044a0 f i MegamapTAStuff.obj
 0001:000034e0       ??C?$_Vector_iterator@V?$_Vector_val@U?$_Simple_types@U_Position_Dword@@@std@@@std@@@std@@QBEPAU_Position_Dword@@XZ 100044e0 f i MegamapTAStuff.obj
 0001:000034f0       ??E?$_Vector_const_iterator@V?$_Vector_val@U?$_Simple_types@U_Position_Dword@@@std@@@std@@@std@@QAEAAV01@XZ 100044f0 f i MegamapTAStuff.obj
 0001:00003510       ??E?$_Vector_iterator@V?$_Vector_val@U?$_Simple_types@U_Position_Dword@@@std@@@std@@@std@@QAEAAV01@XZ 10004510 f i MegamapTAStuff.obj
 0001:00003530       ??_Ebad_alloc@std@@UAEPAXI@Z 10004530 f i MegamapTAStuff.obj
 0001:00003530       ??_Gbad_alloc@std@@UAEPAXI@Z 10004530 f i MegamapTAStuff.obj
 0001:00003560       ??_Ebad_array_new_length@std@@UAEPAXI@Z 10004560 f i MegamapTAStuff.obj
 0001:00003560       ??_Gbad_array_new_length@std@@UAEPAXI@Z 10004560 f i MegamapTAStuff.obj
 0001:00003590       ??_Eexception@std@@UAEPAXI@Z 10004590 f i MegamapTAStuff.obj
 0001:00003590       ??_Gexception@std@@UAEPAXI@Z 10004590 f i MegamapTAStuff.obj
 0001:000035c0       ?BlitOrder@MegamapTAStuff@@QAEXPAXHHH@Z 100045c0 f   MegamapTAStuff.obj
 0001:00003d50       ?BlitSelect@MegamapTAStuff@@QAEXPAXHHH@Z 10004d50 f   MegamapTAStuff.obj
 0001:00003f40       ?DrawBuildRect@MegamapTAStuff@@QAEXPAU_OFFSCREEN@@EPAUUnitDefStruct@@HHH@Z 10004f40 f   MegamapTAStuff.obj
 0001:00004070       ?DrawCursor@MegamapTAStuff@@QAEXPAXHHHII@Z 10005070 f   MegamapTAStuff.obj
 0001:000040d0       ?DrawOrderPath@MegamapTAStuff@@QAEXPAU_OFFSCREEN@@PAUUnitOrdersStruct@@PAU_Position_Dword@@@Z 100050d0 f   MegamapTAStuff.obj
 0001:000043e0       ?DrawTargatOrder@MegamapTAStuff@@QAEXPAU_OFFSCREEN@@PAUUnitOrdersStruct@@PAUPlayerStruct@@@Z 100053e0 f   MegamapTAStuff.obj
 0001:00004550       ?GetTAStuffSurface@MegamapTAStuff@@QAEPAEXZ 10005550 f   MegamapTAStuff.obj
 0001:00004570       ?Init@MegamapTAStuff@@QAEXPAVFullScreenMinimap@@PAUtagRECT@@11HHH@Z 10005570 f   MegamapTAStuff.obj
 0001:00004790       ?InitSurface@MegamapTAStuff@@QAEXPAUIDirectDraw@@H@Z 10005790 f   MegamapTAStuff.obj
 0001:00004cb0       ?LockBlit@MegamapTAStuff@@QAEXPAXHHH@Z 10005cb0 f   MegamapTAStuff.obj
 0001:00004df0       ?LockBlit_MEGA@MegamapTAStuff@@QAEXPAXHHH@Z 10005df0 f   MegamapTAStuff.obj
 0001:00004e60       ?LockBlit_TA@MegamapTAStuff@@QAEXPAXHHHPAH@Z 10005e60 f   MegamapTAStuff.obj
 0001:00005210       ?ReleaseSurface@MegamapTAStuff@@QAEXXZ 10006210 f   MegamapTAStuff.obj
 0001:000052c0       ?ScreenPos2TAPos@MegamapTAStuff@@AAEPAU_Position_Dword@@PAU2@HHH@Z 100062c0 f   MegamapTAStuff.obj
 0001:00005350       ?TADrawRect@MegamapTAStuff@@QAEXPAU_OFFSCREEN@@HHHHHHH@Z 10006350 f   MegamapTAStuff.obj
 0001:00005470       ?TAPos2ScreenPos@MegamapTAStuff@@AAEPAUtagPOINT@@PAU2@III@Z 10006470 f   MegamapTAStuff.obj
 0001:000054d0       ?UpdateTAGameStuffMEGA@MegamapTAStuff@@QAEXPAXHHPAH@Z 100064d0 f   MegamapTAStuff.obj
 0001:00005570       ?UpdateTAGameStuffTA@MegamapTAStuff@@QAEXPAU_DDSURFACEDESC@@HHPAH@Z 10006570 f   MegamapTAStuff.obj
 0001:00005620       ?_Adjust_manually_vector_aligned@std@@YGXAAPAXAAI@Z 10006620 f i MegamapTAStuff.obj
 0001:00005690       ?_Adopt@_Iterator_base0@std@@QAEXPBX@Z 10006690 f i MegamapTAStuff.obj
 0001:000056a0       ?_Alloc_proxy@_Container_base0@std@@QAEXABU_Fake_allocator@2@@Z 100066a0 f i MegamapTAStuff.obj
 0001:000056b0       ?_Allocate@_Default_allocate_traits@std@@SGPAXI@Z 100066b0 f i MegamapTAStuff.obj
 0001:000056d0       ?_Calculate_growth@?$vector@U_Position_Dword@@V?$allocator@U_Position_Dword@@@std@@@std@@ABEII@Z 100066d0 f i MegamapTAStuff.obj
 0001:00005730       ?_Change_array@?$vector@U_Position_Dword@@V?$allocator@U_Position_Dword@@@std@@@std@@AAEXQAU_Position_Dword@@II@Z 10006730 f i MegamapTAStuff.obj
 0001:000057d0       ?_Compat@?$_Vector_const_iterator@V?$_Vector_val@U?$_Simple_types@U_Position_Dword@@@std@@@std@@@std@@QBEXABV12@@Z 100067d0 f i MegamapTAStuff.obj
 0001:000057e0       ?_Get_first@?$_Compressed_pair@V?$allocator@U_Position_Dword@@@std@@V?$_Vector_val@U?$_Simple_types@U_Position_Dword@@@std@@@2@$00@std@@QAEAAV?$allocator@U_Position_Dword@@@2@XZ 100067e0 f i MegamapTAStuff.obj
 0001:000057f0       ?_Get_first@?$_Compressed_pair@V?$allocator@U_Position_Dword@@@std@@V?$_Vector_val@U?$_Simple_types@U_Position_Dword@@@std@@@2@$00@std@@QBEABV?$allocator@U_Position_Dword@@@2@XZ 100067f0 f i MegamapTAStuff.obj
 0001:00005800       ?_Getal@?$vector@U_Position_Dword@@V?$allocator@U_Position_Dword@@@std@@@std@@AAEAAV?$allocator@U_Position_Dword@@@2@XZ 10006800 f i MegamapTAStuff.obj
 0001:00005820       ?_Getal@?$vector@U_Position_Dword@@V?$allocator@U_Position_Dword@@@std@@@std@@ABEABV?$allocator@U_Position_Dword@@@2@XZ 10006820 f i MegamapTAStuff.obj
 0001:00005840       ?_Orphan_all@_Container_base0@std@@QAEXXZ 10006840 f i MegamapTAStuff.obj
 0001:00005850       ?_Orphan_range@?$vector@U_Position_Dword@@V?$allocator@U_Position_Dword@@@std@@@std@@ABEXPAU_Position_Dword@@0@Z 10006850 f i MegamapTAStuff.obj
 0001:00005860       ?_Release@?$_Uninitialized_backout_al@V?$allocator@U_Position_Dword@@@std@@@std@@QAEPAU_Position_Dword@@XZ 10006860 f i MegamapTAStuff.obj
 0001:00005880       ?_Throw_bad_array_new_length@std@@YGXXZ 10006880 f i MegamapTAStuff.obj
 0001:000058a0       ?_Tidy@?$vector@U_Position_Dword@@V?$allocator@U_Position_Dword@@@std@@@std@@AAEXXZ 100068a0 f i MegamapTAStuff.obj
 0001:00005970       ?_Xlength@?$vector@U_Position_Dword@@V?$allocator@U_Position_Dword@@@std@@@std@@CGXXZ 10006970 f i MegamapTAStuff.obj
 0001:00005980       ?allocate@?$allocator@U_Position_Dword@@@std@@QAEPAU_Position_Dword@@I@Z 10006980 f i MegamapTAStuff.obj
 0001:000059a0       ?begin@?$vector@U_Position_Dword@@V?$allocator@U_Position_Dword@@@std@@@std@@QAE?AV?$_Vector_iterator@V?$_Vector_val@U?$_Simple_types@U_Position_Dword@@@std@@@std@@@2@XZ 100069a0 f i MegamapTAStuff.obj
 0001:000059d0       ?capacity@?$vector@U_Position_Dword@@V?$allocator@U_Position_Dword@@@std@@@std@@QBEIXZ 100069d0 f i MegamapTAStuff.obj
 0001:00005a00       ?deallocate@?$allocator@U_Position_Dword@@@std@@QAEXQAU_Position_Dword@@I@Z 10006a00 f i MegamapTAStuff.obj
 0001:00005a20       ?end@?$vector@U_Position_Dword@@V?$allocator@U_Position_Dword@@@std@@@std@@QAE?AV?$_Vector_iterator@V?$_Vector_val@U?$_Simple_types@U_Position_Dword@@@std@@@std@@@2@XZ 10006a20 f i MegamapTAStuff.obj
 0001:00005a60       ?max@?$numeric_limits@H@std@@SGHXZ 10006a60 f i MegamapTAStuff.obj
 0001:00005a70       ?max_size@?$_Default_allocator_traits@V?$allocator@U_Position_Dword@@@std@@@std@@SGIABV?$allocator@U_Position_Dword@@@2@@Z 10006a70 f i MegamapTAStuff.obj
 0001:00005a80       ?max_size@?$vector@U_Position_Dword@@V?$allocator@U_Position_Dword@@@std@@@std@@QBEIXZ 10006a80 f i MegamapTAStuff.obj
 0001:00005ac0       ?push_back@?$vector@U_Position_Dword@@V?$allocator@U_Position_Dword@@@std@@@std@@QAEXABU_Position_Dword@@@Z 10006ac0 f i MegamapTAStuff.obj
 0001:00005ae0       ?what@exception@std@@UBEPBDXZ 10006ae0 f i MegamapTAStuff.obj
 0001:00005b10       ___local_stdio_printf_options 10006b10 f i MegamapTAStuff.obj
 0001:00005b20       __vsprintf_s_l             10006b20 f i MegamapTAStuff.obj
 0001:00005b70       _vsprintf_s                10006b70 f i MegamapTAStuff.obj
 0001:00005b90       ??0ProjectileMap@@QAE@PAVFullScreenMinimap@@PAVUnitsMinimap@@@Z 10006b90 f   ProjectileMap.obj
 0001:00005bc0       ??1ProjectileMap@@QAE@XZ   10006bc0 f   ProjectileMap.obj
 0001:00005bd0       ?DrawNuke@ProjectileMap@@AAEXPAEPAUtagPOINT@@HHPAUProjectileStruct@@@Z 10006bd0 f   ProjectileMap.obj
 0001:00005dc0       ?DrawProjectile@ProjectileMap@@AAEXPAEPAUtagPOINT@@PAUProjectileStruct@@@Z 10006dc0 f   ProjectileMap.obj
 0001:00005ed0       ?DrawWeapon@ProjectileMap@@AAEXPAEPAUtagPOINT@@HH@Z 10006ed0 f   ProjectileMap.obj
 0001:00005fc0       ?IsPosInPlayerLos@ProjectileMap@@AAEHIIPAUProjectileStruct@@@Z 10006fc0 f   ProjectileMap.obj
 0001:00006110       ?NowDrawProjectile@ProjectileMap@@QAEXPAEPAUtagPOINT@@@Z 10007110 f   ProjectileMap.obj
 0001:00006190       ??$strcpy_s@$0BAA@@@YAHAAY0BAA@DPBD@Z 10007190 f i UnitIcon.obj
 0001:000061b0       ??0TABMP@@QAE@XZ           100071b0 f   UnitIcon.obj
 0001:00006230       ??0UnitIcon@@QAE@PAD@Z     10007230 f   UnitIcon.obj
 0001:000063a0       ??1TABMP@@QAE@XZ           100073a0 f   UnitIcon.obj
 0001:00006420       ??1UnitIcon@@QAE@XZ        10007420 f   UnitIcon.obj
 0001:000064b0       ??_GPCX@@QAEPAXI@Z         100074b0 f i UnitIcon.obj
 0001:000064f0       ??_GTABMP@@QAEPAXI@Z       100074f0 f i UnitIcon.obj
 0001:00006520       ?BufSize@PCX@@QAEJXZ       10007520 f i UnitIcon.obj
 0001:00006540       ?BufSize@TABMP@@QAEJXZ     10007540 f i UnitIcon.obj
 0001:00006560       ?BufSize@UnitIcon@@QAEJXZ  10007560 f   UnitIcon.obj
 0001:000065a0       ?Data@TABMP@@QAEPAEXZ      100075a0 f i UnitIcon.obj
 0001:000065c0       ?Data@UnitIcon@@QAEPAEXZ   100075c0 f   UnitIcon.obj
 0001:00006600       ?Height@TABMP@@QAEJXZ      10007600 f i UnitIcon.obj
 0001:00006620       ?Height@UnitIcon@@QAEJXZ   10007620 f   UnitIcon.obj
 0001:00006660       ?Load@TABMP@@QAEXPAD@Z     10007660 f   UnitIcon.obj
 0001:00006850       ?PCXData@PCX@@QAEPAEXZ     10007850 f i UnitIcon.obj
 0001:00006870       ?Transformer@TABMP@@QAEXPAEPAUtagLOGPALETTE@@PAUtagBITMAPINFO@@0@Z 10007870 f   UnitIcon.obj
 0001:00006930       ?Width@TABMP@@QAEJXZ       10007930 f i UnitIcon.obj
 0001:00006950       ?Width@UnitIcon@@QAEJXZ    10007950 f   UnitIcon.obj
 0001:00006990       ??_GLimitCrack@@QAEPAXI@Z  10007990 f i ddraw.obj
 0001:000069c0       ??_GTABugFixing@@QAEPAXI@Z 100079c0 f i ddraw.obj
 0001:00006a00       ??_GTADRConfig@@QAEPAXI@Z  10007a00 f i ddraw.obj
 0001:00006a40       ??_GUnicodeSupport@@QAEPAXI@Z 10007a40 f i ddraw.obj
 0001:00006a80       ??_G_TAHPI@@QAEPAXI@Z      10007a80 f i ddraw.obj
 0001:00006ab0       ?AddtionInit@@YGHPAUtagInlineX86StackBuffer@@@Z 10007ab0 f   ddraw.obj
 0001:00006b50       ?AddtionInitAfterDDraw@@YGHPAUtagInlineX86StackBuffer@@@Z 10007b50 f   ddraw.obj
 0001:00006d40       ?AddtionRelease@@YGXXZ     10007d40 f   ddraw.obj
 0001:00006da0       ?AddtionReleaseAfterDDraw@@YGXXZ 10007da0 f   ddraw.obj
 0001:00006e30       ?DirectDrawCreate@@YGJPAU_GUID@@PAPAUIDirectDraw@@PAUIUnknown@@@Z 10007e30 f   ddraw.obj
 0001:00006f10       ?EnableSound@@YGXXZ        10007f10 f   ddraw.obj
 0001:00006f40       ?GetAddress@@YGP6GHXZPBD@Z 10007f40 f   ddraw.obj
 0001:00006f70       ?GetSysDir@@YGXXZ          10007f70 f   ddraw.obj
 0001:00007020       ?SetupFileMap@@YG_NXZ      10008020 f   ddraw.obj
 0001:000070b0       ?SetupLocalFileMap@@YG_NXZ 100080b0 f   ddraw.obj
 0001:00007130       ?SetupTAHookFileMap@@YGXXZ 10008130 f   ddraw.obj
 0001:000071a0       ?ShutDownTAHookFileMap@@YGXXZ 100081a0 f   ddraw.obj
 0001:000071d0       ?ShutdownFileMap@@YGXXZ    100081d0 f   ddraw.obj
 0001:00007200       ?ShutdownLocalFileMap@@YGXXZ 10008200 f   ddraw.obj
 0001:00007230       _AheadLib_AcquireDDThreadLock 10008230 f   ddraw.obj
 0001:00007240       _AheadLib_CompleteCreateSysmemSurface 10008240 f   ddraw.obj
 0001:00007250       _AheadLib_D3DParseUnknownCommand 10008250 f   ddraw.obj
 0001:00007260       _AheadLib_DDGetAttachedSurfaceLcl 10008260 f   ddraw.obj
 0001:00007270       _AheadLib_DDInternalLock   10008270 f   ddraw.obj
 0001:00007280       _AheadLib_DDInternalUnlock 10008280 f   ddraw.obj
 0001:00007290       _AheadLib_DSoundHelp       10008290 f   ddraw.obj
 0001:000072a0       _AheadLib_DirectDrawCreateClipper 100082a0 f   ddraw.obj
 0001:000072b0       _AheadLib_DirectDrawCreateEx 100082b0 f   ddraw.obj
 0001:000072c0       _AheadLib_DirectDrawEnumerateA 100082c0 f   ddraw.obj
 0001:000072d0       _AheadLib_DirectDrawEnumerateExA 100082d0 f   ddraw.obj
 0001:000072e0       _AheadLib_DirectDrawEnumerateExW 100082e0 f   ddraw.obj
 0001:000072f0       _AheadLib_DirectDrawEnumerateW 100082f0 f   ddraw.obj
 0001:00007300       _AheadLib_DllCanUnloadNow  10008300 f   ddraw.obj
 0001:00007310       _AheadLib_DllGetClassObject 10008310 f   ddraw.obj
 0001:00007320       _AheadLib_GetDDSurfaceLocal 10008320 f   ddraw.obj
 0001:00007330       _AheadLib_GetOLEThunkData  10008330 f   ddraw.obj
 0001:00007340       _AheadLib_GetSurfaceFromDC 10008340 f   ddraw.obj
 0001:00007350       _AheadLib_RegisterSpecialCase 10008350 f   ddraw.obj
 0001:00007360       _AheadLib_ReleaseDDThreadLock 10008360 f   ddraw.obj
 0001:00007370       _AheadLib_SetAppCompatData 10008370 f   ddraw.obj
 0001:00007380       _DllMain@12                10008380 f   ddraw.obj
 0001:00007620       ??0ExternHotKey@@QAE@XZ    10008620 f   ExternhotKey.obj
 0001:00007950       ??1ExternHotKey@@QAE@XZ    10008950 f   ExternhotKey.obj
 0001:00007ad0       ?AddRoutine_InitAfterExternKey@@YGXXZ 10008ad0 f   ExternhotKey.obj
 0001:00007b10       ?AddtionRoutine_CircleSelect@@YGHPAUtagInlineX86StackBuffer@@@Z 10008b10 f   ExternhotKey.obj
 0001:00007be0       ?AddtionRoutine_UnitINFOInit@@YGHPAUtagInlineX86StackBuffer@@@Z 10008be0 f   ExternhotKey.obj
 0001:00007c10       ?DestroyExternTypeMask@ExternHotKey@@QAEXXZ 10008c10 f   ExternhotKey.obj
 0001:00007d40       ?FilterSelectedUnit@ExternHotKey@@QAEHXZ 10008d40 f   ExternhotKey.obj
 0001:00007db0       ?FilterSelectedUnitProc@ExternHotKey@@QAEHW4TAUnitType@@@Z 10008db0 f   ExternhotKey.obj
 0001:00007fb0       ?FindIdelFactory@ExternHotKey@@QAEXXZ 10008fb0 f   ExternhotKey.obj
 0001:00008170       ?FindIdleConst@ExternHotKey@@QAEXXZ 10009170 f   ExternhotKey.obj
 0001:00008380       ?InitExternTypeMask@ExternHotKey@@QAEHXZ 10009380 f   ExternhotKey.obj
 0001:00008c30       ?Message@ExternHotKey@@QAE_NPAUHWND__@@IIJ@Z 10009c30 f   ExternhotKey.obj
 0001:00009010       ?SelectOnlyInScreenSameTypeUnit@ExternHotKey@@QAEHH@Z 1000a010 f   ExternhotKey.obj
 0001:00009230       ?SelectOnlyInScreenWeaponUnit@ExternHotKey@@QAEHI@Z 1000a230 f   ExternhotKey.obj
 0001:000093a0       ?SelectUnitInRect@ExternHotKey@@QAEHW4TAUnitType@@PAUtagRECT@@_N@Z 1000a3a0 f   ExternhotKey.obj
 0001:00009570       ??0FullScreenMinimap@@QAE@HH@Z 1000a570 f   fullscreenminimap.obj
 0001:00009940       ??1FullScreenMinimap@@QAE@XZ 1000a940 f   fullscreenminimap.obj
 0001:00009bd0       ??_GMappedMap@@QAEPAXI@Z   1000abd0 f i fullscreenminimap.obj
 0001:00009c10       ??_GMegaMapControl@@QAEPAXI@Z 1000ac10 f i fullscreenminimap.obj
 0001:00009c50       ??_GMegamapTAStuff@@QAEPAXI@Z 1000ac50 f i fullscreenminimap.obj
 0001:00009c90       ??_GProjectileMap@@QAEPAXI@Z 1000ac90 f i fullscreenminimap.obj
 0001:00009cc0       ??_GSingleHook@@QAEPAXI@Z  1000acc0 f i fullscreenminimap.obj
 0001:00009cf0       ??_GTAGameAreaReDrawer@@QAEPAXI@Z 1000acf0 f i fullscreenminimap.obj
 0001:00009d20       ??_GTNTtoMiniMap@@QAEPAXI@Z 1000ad20 f i fullscreenminimap.obj
 0001:00009d50       ??_GUnitsMinimap@@QAEPAXI@Z 1000ad50 f i fullscreenminimap.obj
 0001:00009d90       ?BlockGUIState@FullScreenMinimap@@QAEXXZ 1000ad90 f   fullscreenminimap.obj
 0001:00009da0       ?BlockTADraw@@YGHPAUtagInlineX86StackBuffer@@@Z 1000ada0 f   fullscreenminimap.obj
 0001:00009df0       ?DischargeGUIState@FullScreenMinimap@@QAEXXZ 1000adf0 f   fullscreenminimap.obj
 0001:00009e00       ?DischargeTADraw@@YGHPAUtagInlineX86StackBuffer@@@Z 1000ae00 f   fullscreenminimap.obj
 0001:00009e30       ?EnterMegaMap@FullScreenMinimap@@QAEXXZ 1000ae30 f   fullscreenminimap.obj
 0001:00009e50       ?ForceTADrawBlit@@YGHPAUtagInlineX86StackBuffer@@@Z 1000ae50 f   fullscreenminimap.obj
 0001:00009e90       ?IfRenderMegaThenBlock2@@YGXXZ 1000ae90 f   fullscreenminimap.obj
 0001:00009ec0       ?IfRenderMegaThenBlock@@YGXXZ 1000aec0 f   fullscreenminimap.obj
 0001:00009f00       ?InitMinimap@FullScreenMinimap@@QAEXPAUtagTNTHeaderStruct@@PAUtagRECT@@@Z 1000af00 f   fullscreenminimap.obj
 0001:0000aaa0       ?InitSurface@FullScreenMinimap@@QAEXPAUIDirectDraw@@@Z 1000baa0 f   fullscreenminimap.obj
 0001:0000aad0       ?InitSurface@FullScreenMinimap@@QAEXPAUIDirectDraw@@H@Z 1000bad0 f   fullscreenminimap.obj
 0001:0000aba0       ?IsBliting@FullScreenMinimap@@QAEHXZ 1000bba0 f   fullscreenminimap.obj
 0001:0000abc0       ?LoadMap_Routine@@YGHPAUtagInlineX86StackBuffer@@@Z 1000bbc0 f   fullscreenminimap.obj
 0001:0000ac00       ?LockBlit@FullScreenMinimap@@QAEXPAXHHH@Z 1000bc00 f   fullscreenminimap.obj
 0001:0000ac80       ?MegamapFrameThd@@YGKXZ    1000bc80 f   fullscreenminimap.obj
 0001:0000ae50       ?Message@FullScreenMinimap@@QAE_NPAUHWND__@@IIJ@Z 1000be50 f   fullscreenminimap.obj
 0001:0000aeb0       ?QuitMegaMap@FullScreenMinimap@@QAEXXZ 1000beb0 f   fullscreenminimap.obj
 0001:0000aed0       ?ReleaseSurface@FullScreenMinimap@@QAEXXZ 1000bed0 f   fullscreenminimap.obj
 0001:0000af30       ?Set@FullScreenMinimap@@QAEXH@Z 1000bf30 f   fullscreenminimap.obj
 0001:0000af70       ?SetVid@FullScreenMinimap@@QAEXH@Z 1000bf70 f   fullscreenminimap.obj
 0001:0000afa0       ?UpdateFrame@FullScreenMinimap@@QAGXPAXPAU_DDSURFACEDESC@@@Z 1000bfa0 f   fullscreenminimap.obj
 0001:0000b2d0       ?gametimeupdate@@YGXXZ     1000c2d0 f   fullscreenminimap.obj
 0001:0000b2f0       ?writejmp@FullScreenMinimap@@QAEXII@Z 1000c2f0 f i fullscreenminimap.obj
 0001:0000b340       ?CopyGafSequenceToBits@@YGPAEPAEPAUtagPOINT@@PAU_GAFSequence@@H@Z 1000c340 f   gaf.obj
 0001:0000b3b0       ?CopyGafToBits@@YGXPAEPAUtagPOINT@@IIPAU_GAFFrame@@PAUtagRECT@@@Z 1000c3b0 f   gaf.obj
 0001:0000b450       ?CreateSurfByGafFrame@@YGPAUIDirectDrawSurface@@PAUIDirectDraw@@PAU_GAFFrame@@H@Z 1000c450 f   gaf.obj
 0001:0000b5b0       ?CreateSurfByGafSequence@@YGPAUIDirectDrawSurface@@PAUIDirectDraw@@PAU_GAFSequence@@_N@Z 1000c5b0 f   gaf.obj
 0001:0000b800       ?InstanceGAFFrame@@YGPAEPAU_GAFFrame@@PAPAEPAUtagPOINT@@@Z 1000c800 f   gaf.obj
 0001:0000b8b0       ??0GUIExpand@@QAE@XZ       1000c8b0 f   GuiExpand.obj
 0001:0000bac0       ??1GUIExpand@@QAE@XZ       1000cac0 f   GuiExpand.obj
 0001:0000bb60       ??_GFullScreenMinimap@@QAEPAXI@Z 1000cb60 f i GuiExpand.obj
 0001:0000bba0       ??_GMenuResolution@@QAEPAXI@Z 1000cba0 f i GuiExpand.obj
 0001:0000bbd0       ??_GShareDialogExpand@@QAEPAXI@Z 1000cbd0 f i GuiExpand.obj
 0001:0000bc00       ?ApplySelectUnitMenu_Wapper@@YGXXZ 1000cc00 f   HardCodeFunctions.obj
 0001:0000bc40       ?ChatText@@YGHPAD@Z        1000cc40 f   HardCodeFunctions.obj
 0001:0000bcb0       ?CleanIDMaskInTypeAry@@YG_NGQAK@Z 1000ccb0 f   HardCodeFunctions.obj
 0001:0000bd10       ?CountSelectedUnits@@YGHXZ 1000cd10 f   HardCodeFunctions.obj
 0001:0000bde0       ?DeselectUnits@@YGXXZ      1000cde0 f   HardCodeFunctions.obj
 0001:0000bea0       ?DrawDotteCircle@@YGHPAEPAUtagPOINT@@HHHHHH@Z 1000cea0 f   HardCodeFunctions.obj
 0001:0000bf30       ?DrawRadarCircle@@YGHPAEPAUtagPOINT@@HHHH@Z 1000cf30 f   HardCodeFunctions.obj
 0001:0000bfc0       ?DrawTextInScreen_ez@@YG_NPAU_OFFSCREEN@@PADHH@Z 1000cfc0 f   HardCodeFunctions.obj
 0001:0000bff0       ?GetMaxScrollX@@YGHXZ      1000cff0 f   HardCodeFunctions.obj
 0001:0000c030       ?GetMaxScrollY@@YGHXZ      1000d030 f   HardCodeFunctions.obj
 0001:0000c070       ?GetUnitIDMaskAryByCategory@@YGPAKPAD@Z 1000d070 f   HardCodeFunctions.obj
 0001:0000c100       ?IsPlayerAllyUnit@@YGHHH@Z 1000d100 f   HardCodeFunctions.obj
 0001:0000c1b0       ?MatchInTypeAry@@YG_NGQAK@Z 1000d1b0 f   HardCodeFunctions.obj
 0001:0000c1e0       ?PauseCDMusic@@YGHXZ       1000d1e0 f   HardCodeFunctions.obj
 0001:0000c210       ?ScrollToCenter@@YGXHH@Z   1000d210 f   HardCodeFunctions.obj
 0001:0000c2d0       ?SendOrder@@YGXIIIH_N@Z    1000d2d0 f   HardCodeFunctions.obj
 0001:0000c360       ?SetIDMaskInTypeAry@@YG_NGQAK@Z 1000d360 f   HardCodeFunctions.obj
 0001:0000c3a0       ?UpdateSelectUnitEffect@@YGXXZ 1000d3a0 f   HardCodeFunctions.obj
 0001:0000c3e0       ?UpdateTAProcess@@YGHXZ    1000d3e0 f   HardCodeFunctions.obj
 0001:0000c490       ?ViewPlayerLos_Replay@@YGHHH@Z 1000d490 f   HardCodeFunctions.obj
 0001:0000c6f0       ?freeTAMem@@YGXPAX@Z       1000d6f0 f   HardCodeFunctions.obj
 0001:0000c770       ?resumeOffScreen@@YGXXZ    1000d770 f   HardCodeFunctions.obj
 0001:0000c780       ?resumeScreenPlatte@@YGXXZ 1000d780 f   HardCodeFunctions.obj
 0001:0000c7e0       _sprintf_s                 1000d7e0 f i HardCodeFunctions.obj
 0001:0000c820       ??0ModifyHook@@QAE@IHKPAEKK@Z 1000d820 f   ModifyHook.obj
 0001:0000c8e0       ??0ModifyHook@@QAE@PAEHK0KK@Z 1000d8e0 f   ModifyHook.obj
 0001:0000c9a0       ??0ModifyHook@@QAE@XZ      1000d9a0 f   ModifyHook.obj
 0001:0000c9f0       ??1ModifyHook@@QAE@XZ      1000d9f0 f   ModifyHook.obj
 0001:0000cac0       ?Hook@ModifyHook@@UAEXXZ   1000dac0 f   ModifyHook.obj
 0001:0000cc00       ?InitHookClass@ModifyHook@@AAEXPAEHK0KK@Z 1000dc00 f   ModifyHook.obj
 0001:0000ce00       ??0_TAHPI@@QAE@H@Z         1000de00 f   HPIfunc.obj
 0001:0000cef0       ??1_TAHPI@@QAE@XZ          1000def0 f   HPIfunc.obj
 0001:0000cf40       ?TADontInit@@YGHPAUtagInlineX86StackBuffer@@@Z 1000df40 f   HPIfunc.obj
 0001:0000cf60       ?fclose@_TAHPI@@QAEHPAU_OPENTAFILE@@@Z 1000df60 f   HPIfunc.obj
 0001:0000cf80       ?filelen@_TAHPI@@QAEIPAU_OPENTAFILE@@@Z 1000df80 f   HPIfunc.obj
 0001:0000cfa0       ?filelength@_TAHPI@@QAEIPAD@Z 1000dfa0 f   HPIfunc.obj
 0001:0000cfc0       ?fopen@_TAHPI@@QAEPAU_OPENTAFILE@@PAD0@Z 1000dfc0 f   HPIfunc.obj
 0001:0000cfe0       ?free_readfile@_TAHPI@@QAEXPAD@Z 1000dfe0 f   HPIfunc.obj
 0001:0000d000       ?read@_TAHPI@@QAEHPAU_OPENTAFILE@@PAXH@Z 1000e000 f   HPIfunc.obj
 0001:0000d020       ?readfile@_TAHPI@@QAEPADPADPAI@Z 1000e020 f   HPIfunc.obj
 0001:0000d040       ??0IDDraw@@QAE@PAUIDirectDraw@@_N@Z 1000e040 f   iddraw.obj
 0001:0000d0e0       ??0IDirectDraw@@QAE@XZ     1000e0e0 f i iddraw.obj
 0001:0000d100       ??0IUnknown@@QAE@XZ        1000e100 f i iddraw.obj
 0001:0000d110       ?AddRef@IDDraw@@UAGKXZ     1000e110 f   iddraw.obj
 0001:0000d140       ?Compact@IDDraw@@UAGJXZ    1000e140 f   iddraw.obj
 0001:0000d170       ?CreateClipper@IDDraw@@UAGJKPAPAUIDirectDrawClipper@@PAUIUnknown@@@Z 1000e170 f   iddraw.obj
 0001:0000d1b0       ?CreatePalette@IDDraw@@UAGJKPAUtagPALETTEENTRY@@PAPAUIDirectDrawPalette@@PAUIUnknown@@@Z 1000e1b0 f   iddraw.obj
 0001:0000d1f0       ?CreateSurface@IDDraw@@UAGJPAU_DDSURFACEDESC@@PAPAUIDirectDrawSurface@@PAUIUnknown@@@Z 1000e1f0 f   iddraw.obj
 0001:0000d2b0       ?DuplicateSurface@IDDraw@@UAGJPAUIDirectDrawSurface@@PAPAU2@@Z 1000e2b0 f   iddraw.obj
 0001:0000d2e0       ?EnumDisplayModes@IDDraw@@UAGJKPAU_DDSURFACEDESC@@PAXP6GJ01@Z@Z 1000e2e0 f   iddraw.obj
 0001:0000d320       ?EnumSurfaces@IDDraw@@UAGJKPAU_DDSURFACEDESC@@PAXP6GJPAUIDirectDrawSurface@@01@Z@Z 1000e320 f   iddraw.obj
 0001:0000d360       ?FlipToGDISurface@IDDraw@@UAGJXZ 1000e360 f   iddraw.obj
 0001:0000d390       ?GetCaps@IDDraw@@UAGJPAU_DDCAPS_DX7@@0@Z 1000e390 f   iddraw.obj
 0001:0000d3c0       ?GetDisplayMode@IDDraw@@UAGJPAU_DDSURFACEDESC@@@Z 1000e3c0 f   iddraw.obj
 0001:0000d3f0       ?GetFourCCCodes@IDDraw@@UAGJPAK0@Z 1000e3f0 f   iddraw.obj
 0001:0000d420       ?GetGDISurface@IDDraw@@UAGJPAPAUIDirectDrawSurface@@@Z 1000e420 f   iddraw.obj
 0001:0000d450       ?GetMonitorFrequency@IDDraw@@UAGJPAK@Z 1000e450 f   iddraw.obj
 0001:0000d480       ?GetScanLine@IDDraw@@UAGJPAK@Z 1000e480 f   iddraw.obj
 0001:0000d4b0       ?GetVerticalBlankStatus@IDDraw@@UAGJPAH@Z 1000e4b0 f   iddraw.obj
 0001:0000d4e0       ?Initialize@IDDraw@@UAGJPAU_GUID@@@Z 1000e4e0 f   iddraw.obj
 0001:0000d510       ?QueryInterface@IDDraw@@UAGJABU_GUID@@PAPAX@Z 1000e510 f   iddraw.obj
 0001:0000d540       ?Release@IDDraw@@UAGKXZ    1000e540 f   iddraw.obj
 0001:0000d590       ?RestoreDisplayMode@IDDraw@@UAGJXZ 1000e590 f   iddraw.obj
 0001:0000d5c0       ?SetCooperativeLevel@IDDraw@@UAGJPAUHWND__@@K@Z 1000e5c0 f   iddraw.obj
 0001:0000d620       ?SetDisplayMode@IDDraw@@UAGJKKK@Z 1000e620 f   iddraw.obj
 0001:0000d690       ?WaitForVerticalBlank@IDDraw@@UAGJKPAX@Z 1000e690 f   iddraw.obj
 0001:0000d6c0       ?resume@IDDraw@@QAGXXZ     1000e6c0 f   iddraw.obj
 0001:0000d6f0       ??0IDDrawSurface@@QAE@PAUIDirectDraw@@PAU_DDSURFACEDESC@@PAPAUIDirectDrawSurface@@PAUIUnknown@@PAJ_NHH@Z 1000e6f0 f   iddrawsurface.obj
 0001:0000dc40       ??0IDirectDrawSurface@@QAE@XZ 1000ec40 f i iddrawsurface.obj
 0001:0000dc60       ??_GAlliesWhiteboard@@QAEPAXI@Z 1000ec60 f i iddrawsurface.obj
 0001:0000dca0       ??_GCChangeQueue@@QAEPAXI@Z 1000eca0 f i iddrawsurface.obj
 0001:0000dcd0       ??_GCDDDTA@@QAEPAXI@Z      1000ecd0 f i iddrawsurface.obj
 0001:0000dd00       ??_GCMapRect@@QAEPAXI@Z    1000ed00 f i iddrawsurface.obj
 0001:0000dd30       ??_GCTAHook@@QAEPAXI@Z     1000ed30 f i iddrawsurface.obj
 0001:0000dd70       ??_GCWarp@@QAEPAXI@Z       1000ed70 f i iddrawsurface.obj
 0001:0000dda0       ?AddAttachedSurface@IDDrawSurface@@UAGJPAUIDirectDrawSurface@@@Z 1000eda0 f   iddrawsurface.obj
 0001:0000ddd0       ?AddOverlayDirtyRect@IDDrawSurface@@UAGJPAUtagRECT@@@Z 1000edd0 f   iddrawsurface.obj
 0001:0000de00       ?AddRef@IDDrawSurface@@UAGKXZ 1000ee00 f   iddrawsurface.obj
 0001:0000de30       ?Blt@IDDrawSurface@@UAGJPAUtagRECT@@PAUIDirectDrawSurface@@0KPAU_DDBLTFX@@@Z 1000ee30 f   iddrawsurface.obj
 0001:0000de80       ?BltBatch@IDDrawSurface@@UAGJPAU_DDBLTBATCH@@KK@Z 1000ee80 f   iddrawsurface.obj
 0001:0000dec0       ?BltFast@IDDrawSurface@@UAGJKKPAUIDirectDrawSurface@@PAUtagRECT@@K@Z 1000eec0 f   iddrawsurface.obj
 0001:0000df00       ?CorrectName@IDDrawSurface@@QAEXPAD@Z 1000ef00 f   iddrawsurface.obj
 0001:0000df60       ?CreateClipplist@IDDrawSurface@@QAEXXZ 1000ef60 f   iddrawsurface.obj
 0001:0000e1d0       ?CreateDir@IDDrawSurface@@QAEXPAD@Z 1000f1d0 f   iddrawsurface.obj
 0001:0000e2d0       ?CreateFileName@IDDrawSurface@@AAEXPADH@Z 1000f2d0 f   iddrawsurface.obj
 0001:0000e560       ?DeInterlace@IDDrawSurface@@AAEXXZ 1000f560 f   iddrawsurface.obj
 0001:0000e620       ?DeleteAttachedSurface@IDDrawSurface@@UAGJKPAUIDirectDrawSurface@@@Z 1000f620 f   iddrawsurface.obj
 0001:0000e660       ?EnumAttachedSurfaces@IDDrawSurface@@UAGJPAXP6GJPAUIDirectDrawSurface@@PAU_DDSURFACEDESC@@0@Z@Z 1000f660 f   iddrawsurface.obj
 0001:0000e6a0       ?EnumOverlayZOrders@IDDrawSurface@@UAGJKPAXP6GJPAUIDirectDrawSurface@@PAU_DDSURFACEDESC@@0@Z@Z 1000f6a0 f   iddrawsurface.obj
 0001:0000e6e0       ?Flip@IDDrawSurface@@UAGJPAUIDirectDrawSurface@@K@Z 1000f6e0 f   iddrawsurface.obj
 0001:0000e720       ?FrontSurface@IDDrawSurface@@QAEXPAUIDirectDrawSurface@@@Z 1000f720 f   iddrawsurface.obj
 0001:0000e740       ?GetAttachedSurface@IDDrawSurface@@UAGJPAU_DDSCAPS@@PAPAUIDirectDrawSurface@@@Z 1000f740 f   iddrawsurface.obj
 0001:0000e7a0       ?GetBltStatus@IDDrawSurface@@UAGJK@Z 1000f7a0 f   iddrawsurface.obj
 0001:0000e7d0       ?GetCaps@IDDrawSurface@@UAGJPAU_DDSCAPS@@@Z 1000f7d0 f   iddrawsurface.obj
 0001:0000e800       ?GetClipper@IDDrawSurface@@UAGJPAPAUIDirectDrawClipper@@@Z 1000f800 f   iddrawsurface.obj
 0001:0000e830       ?GetColorKey@IDDrawSurface@@UAGJKPAU_DDCOLORKEY@@@Z 1000f830 f   iddrawsurface.obj
 0001:0000e870       ?GetDC@IDDrawSurface@@UAGJPAPAUHDC__@@@Z 1000f870 f   iddrawsurface.obj
 0001:0000e8a0       ?GetFlipStatus@IDDrawSurface@@UAGJK@Z 1000f8a0 f   iddrawsurface.obj
 0001:0000e8d0       ?GetOverlayPosition@IDDrawSurface@@UAGJPAJ0@Z 1000f8d0 f   iddrawsurface.obj
 0001:0000e910       ?GetPalette@IDDrawSurface@@UAGJPAPAUIDirectDrawPalette@@@Z 1000f910 f   iddrawsurface.obj
 0001:0000e940       ?GetPixelFormat@IDDrawSurface@@UAGJPAU_DDPIXELFORMAT@@@Z 1000f940 f   iddrawsurface.obj
 0001:0000e970       ?GetSurfaceDesc@IDDrawSurface@@UAGJPAU_DDSURFACEDESC@@@Z 1000f970 f   iddrawsurface.obj
 0001:0000e9a0       ?Initialize@IDDrawSurface@@UAGJPAUIDirectDraw@@PAU_DDSURFACEDESC@@@Z 1000f9a0 f   iddrawsurface.obj
 0001:0000e9e0       ?IsLost@IDDrawSurface@@UAGJXZ 1000f9e0 f   iddrawsurface.obj
 0001:0000ea40       ?Lock@IDDrawSurface@@UAGJPAUtagRECT@@PAU_DDSURFACEDESC@@KPAX@Z 1000fa40 f   iddrawsurface.obj
 0001:0000eb30       ?OutptInt@IDDrawSurface@@SGXH@Z 1000fb30 f   iddrawsurface.obj
 0001:0000eb70       ?OutptTxt@IDDrawSurface@@SGXPAD@Z 1000fb70 f   iddrawsurface.obj
 0001:0000eb80       ?QueryInterface@IDDrawSurface@@UAGJABU_GUID@@PAPAX@Z 1000fb80 f   iddrawsurface.obj
 0001:0000ebc0       ?Release@IDDrawSurface@@UAGKXZ 1000fbc0 f   iddrawsurface.obj
 0001:0000ee20       ?ReleaseDC@IDDrawSurface@@UAGJPAUHDC__@@@Z 1000fe20 f   iddrawsurface.obj
 0001:0000ee50       ?Restore@IDDrawSurface@@UAGJXZ 1000fe50 f   iddrawsurface.obj
 0001:0000eeb0       ?ScreenShot@IDDrawSurface@@QAEXXZ 1000feb0 f   iddrawsurface.obj
 0001:0000f120       ?Set@IDDrawSurface@@QAEX_N@Z 10010120 f   iddrawsurface.obj
 0001:0000f140       ?SetClipper@IDDrawSurface@@UAGJPAUIDirectDrawClipper@@@Z 10010140 f   iddrawsurface.obj
 0001:0000f170       ?SetColorKey@IDDrawSurface@@UAGJKPAU_DDCOLORKEY@@@Z 10010170 f   iddrawsurface.obj
 0001:0000f1b0       ?SetOverlayPosition@IDDrawSurface@@UAGJJJ@Z 100101b0 f   iddrawsurface.obj
 0001:0000f1f0       ?SetPalette@IDDrawSurface@@UAGJPAUIDirectDrawPalette@@@Z 100101f0 f   iddrawsurface.obj
 0001:0000f230       ?Unlock@IDDrawSurface@@UAGJPAX@Z 10010230 f   iddrawsurface.obj
 0001:0000f4f0       ?UpdateOverlay@IDDrawSurface@@UAGJPAUtagRECT@@PAUIDirectDrawSurface@@0KPAU_DDOVERLAYFX@@@Z 100104f0 f   iddrawsurface.obj
 0001:0000f530       ?UpdateOverlayDisplay@IDDrawSurface@@UAGJK@Z 10010530 f   iddrawsurface.obj
 0001:0000f560       ?UpdateOverlayZOrder@IDDrawSurface@@UAGJKPAUIDirectDrawSurface@@@Z 10010560 f   iddrawsurface.obj
 0001:0000f590       ?WinProc@@YGJPAUHWND__@@IIJ@Z 10010590 f   iddrawsurface.obj
 0001:0000f9a0       ?strstr@@YAPADQADQBD@Z     100109a0 f i iddrawsurface.obj
 0001:0000fa00       ??0TAGameAreaReDrawer@@QAE@XZ 10010a00 f   GameRedrawer.obj
 0001:0000fa30       ??1TAGameAreaReDrawer@@QAE@XZ 10010a30 f   GameRedrawer.obj
 0001:0000fa80       ?Cls@TAGameAreaReDrawer@@QAEXXZ 10010a80 f   GameRedrawer.obj
 0001:0000fae0       ?Flip@TAGameAreaReDrawer@@QAEPAEXZ 10010ae0 f   GameRedrawer.obj
 0001:0000fb20       ?GrayBlitOfBits@TAGameAreaReDrawer@@QAEHPAUtagRECT@@PAEPAUtagPOINT@@0H@Z 10010b20 f   GameRedrawer.obj
 0001:0000ff20       ?InitOwnSurface@TAGameAreaReDrawer@@QAEPAEPAUIDirectDraw@@H@Z 10010f20 f   GameRedrawer.obj
 0001:00010060       ?MixBitsInBlit@TAGameAreaReDrawer@@QAEHPAUtagRECT@@PAEPAUtagPOINT@@0@Z 10011060 f   GameRedrawer.obj
 0001:000103d0       ?MixDSufInBlit@TAGameAreaReDrawer@@QAEHPAEPAUtagRECT@@01@Z 100113d0 f   GameRedrawer.obj
 0001:00010460       ?ReleaseSurface@TAGameAreaReDrawer@@QAEXXZ 10011460 f   GameRedrawer.obj
 0001:000104b0       ?TAWGameAreaRect@TAGameAreaReDrawer@@QAEQAUtagRECT@@PAU2@@Z 100114b0 f   GameRedrawer.obj
 0001:00010520       ?backSurface_p@TAGameAreaReDrawer@@QAEQAEXZ 10011520 f   GameRedrawer.obj
 0001:00010540       ?frontSurface_p@TAGameAreaReDrawer@@QAEQAEXZ 10011540 f   GameRedrawer.obj
 0001:00010560       ??0MiniMapPicture@@QAE@HH@Z 10011560 f   MapParse.obj
 0001:000105b0       ??0TNTtoMiniMap@@QAE@KK@Z  100115b0 f   MapParse.obj
 0001:000106c0       ??0TNTtoMiniMap@@QAE@XZ    100116c0 f   MapParse.obj
 0001:000107d0       ??1MiniMapPicture@@QAE@XZ  100117d0 f   MapParse.obj
 0001:00010800       ??1TNTtoMiniMap@@QAE@XZ    10011800 f   MapParse.obj
 0001:000108a0       ??_GMiniMapPicture@@QAEPAXI@Z 100118a0 f i MapParse.obj
 0001:000108d0       ?DrawMiniMap@MiniMapPicture@@QAEHPAEPAUtagRECT@@HH1@Z 100118d0 f   MapParse.obj
 0001:00010c90       ?DrawMiniMap@TNTtoMiniMap@@QAEHPAEHH@Z 10011c90 f   MapParse.obj
 0001:00010cf0       ?DrawRectMapToBuf@TNTtoMiniMap@@AAEPAEPAPAEPAUtagTNTHeaderStruct@@PAUtagRECT@@@Z 10011cf0 f   MapParse.obj
 0001:00010d90       ?MapFromTNTFileA@TNTtoMiniMap@@QAEXPAD@Z 10011d90 f   MapParse.obj
 0001:00010e90       ?MapFromTNTInMem@TNTtoMiniMap@@QAEXPAX@Z 10011e90 f   MapParse.obj
 0001:00010ec0       ?MapFromValidTNTHeader@TNTtoMiniMap@@QAEXPAUtagTNTHeaderStruct@@@Z 10011ec0 f   MapParse.obj
 0001:00010f30       ?ParseMyTNTHeader@TNTtoMiniMap@@QAEPAUtagTNTHeaderStruct@@PAU2@@Z 10011f30 f   MapParse.obj
 0001:00010fd0       ?PictureInfo@MiniMapPicture@@QAEPAEPAPAEPAUtagPOINT@@@Z 10011fd0 f   MapParse.obj
 0001:00011000       ?PictureInfo@TNTtoMiniMap@@QAEPAEPAPAEPAUtagPOINT@@@Z 10012000 f   MapParse.obj
 0001:00011020       ?StretchTAMapToMiniMap@MiniMapPicture@@QAEPAEPAEPAUtagRECT@@@Z 10012020 f   MapParse.obj
 0001:00011250       ?StretchTATNTDataToMiniMap@MiniMapPicture@@QAEPAEPAUtagTNTHeaderStruct@@@Z 10012250 f   MapParse.obj
 0001:00011680       ??0MenuResolution@@QAE@H@Z 10012680 f   MenuResolution.obj
 0001:000116f0       ??0MenuResolution@@QAE@HH@Z 100126f0 f   MenuResolution.obj
 0001:00011780       ??1MenuResolution@@QAE@XZ  10012780 f   MenuResolution.obj
 0001:000117d0       ?InstallHook@MenuResolution@@AAEXXZ 100127d0 f   MenuResolution.obj
 0001:00011a10       ?UninstallHook@MenuResolution@@AAEXXZ 10012a10 f   MenuResolution.obj
 0001:00011b70       ?sub_00491A75@@YGHPAUtagInlineX86StackBuffer@@@Z 10012b70 f   MenuResolution.obj
 0001:00011c30       ?sub_00491B01@@YGHPAUtagInlineX86StackBuffer@@@Z 10012c30 f   MenuResolution.obj
 0001:00011ce0       ?sub_0049E91C@@YGHPAUtagInlineX86StackBuffer@@@Z 10012ce0 f   MenuResolution.obj
 0001:00011d50       ?sub_0049E93B@@YGHPAUtagInlineX86StackBuffer@@@Z 10012d50 f   MenuResolution.obj
 0001:00011dd0       ??0ModifyWeaponPacket@@QAE@H@Z 10012dd0 f   MultiGameWeaponID.obj
 0001:00011e10       ??0ModifyWeaponPacket@@QAE@XZ 10012e10 f   MultiGameWeaponID.obj
 0001:00011e40       ??1ModifyWeaponPacket@@QAE@XZ 10012e40 f   MultiGameWeaponID.obj
 0001:00011fd0       ??_GModifyHook@@QAEPAXI@Z  10012fd0 f i MultiGameWeaponID.obj
 0001:00012000       ?EnsureDplayx@ModifyWeaponPacket@@AAEXH@Z 10013000 f   MultiGameWeaponID.obj
 0001:00012640       ?FeaturePacket@ModifyWeaponPacket@@AAEXH@Z 10013640 f   MultiGameWeaponID.obj
 0001:00012800       ?ModifyRoutine@ModifyWeaponPacket@@AAEXH@Z 10013800 f   MultiGameWeaponID.obj
 0001:00012910       ??$?0$$V@?$_Compressed_pair@V?$allocator@UTAShareMemStruct@CDDDTA@@@std@@V?$_Deque_val@U?$_Deque_simple_types@UTAShareMemStruct@CDDDTA@@@std@@@2@$00@std@@QAE@U_Zero_then_variadic_args_t@1@@Z 10013910 f i dddta.obj
 0001:00012930       ??$?0UTAShareMemStruct@CDDDTA@@@?$allocator@PAUTAShareMemStruct@CDDDTA@@@std@@QAE@ABV?$allocator@UTAShareMemStruct@CDDDTA@@@1@@Z 10013930 f i dddta.obj
 0001:00012940       ??$?0UTAShareMemStruct@CDDDTA@@@?$allocator@U_Container_proxy@std@@@std@@QAE@ABV?$allocator@UTAShareMemStruct@CDDDTA@@@1@@Z 10013940 f i dddta.obj
 0001:00012950       ??$_Adl_verify_range@PAPAUTAShareMemStruct@CDDDTA@@PAPAU12@@std@@YGXABQAPAUTAShareMemStruct@CDDDTA@@0@Z 10013950 f i dddta.obj
 0001:00012960       ??$_Alloc_proxy@V?$allocator@U_Container_proxy@std@@@std@@@_Container_base12@std@@QAEX$$QAV?$allocator@U_Container_proxy@std@@@1@@Z 10013960 f i dddta.obj
 0001:000129b0       ??$_Construct_in_place@PAUTAShareMemStruct@CDDDTA@@AAPAU12@@std@@YGXAAPAUTAShareMemStruct@CDDDTA@@0@Z 100139b0 f i dddta.obj
 0001:000129f0       ??$_Construct_in_place@U_Container_proxy@std@@PAU_Container_base12@2@@std@@YGXAAU_Container_proxy@0@$$QAPAU_Container_base12@0@@Z 100139f0 f i dddta.obj
 0001:00012a30       ??$_Copy_memmove@PAPAUTAShareMemStruct@CDDDTA@@PAPAU12@@std@@YGPAPAUTAShareMemStruct@CDDDTA@@PAPAU12@00@Z 10013a30 f i dddta.obj
 0001:00012aa0       ??$_Deallocate_plain@V?$allocator@U_Container_proxy@std@@@std@@@std@@YGXAAV?$allocator@U_Container_proxy@std@@@0@QAU_Container_proxy@0@@Z 10013aa0 f i dddta.obj
 0001:00012af0       ??$_Delete_plain_internal@V?$allocator@U_Container_proxy@std@@@std@@@std@@YGXAAV?$allocator@U_Container_proxy@std@@@0@QAU_Container_proxy@0@@Z 10013af0 f i dddta.obj
 0001:00012b10       ??$_Destroy_in_place@PAUTAShareMemStruct@CDDDTA@@@std@@YGXAAPAUTAShareMemStruct@CDDDTA@@@Z 10013b10 f i dddta.obj
 0001:00012b20       ??$_Destroy_range@PAPAUTAShareMemStruct@CDDDTA@@PAPAU12@@std@@YGXPAPAUTAShareMemStruct@CDDDTA@@QAPAU12@@Z 10013b20 f i dddta.obj
 0001:00012b30       ??$_Emplace_back@AAPAUTAShareMemStruct@CDDDTA@@@?$_Uninitialized_backout@PAPAUTAShareMemStruct@CDDDTA@@@std@@QAEXAAPAUTAShareMemStruct@CDDDTA@@@Z 10013b30 f i dddta.obj
 0001:00012b70       ??$_Get_size_of_n@$03@std@@YGII@Z 10013b70 f i dddta.obj
 0001:00012ba0       ??$_Get_size_of_n@$07@std@@YGII@Z 10013ba0 f i dddta.obj
 0001:00012bd0       ??$_Get_size_of_n@$0BE@@std@@YGII@Z 10013bd0 f i dddta.obj
 0001:00012c00       ??$_Get_unwrapped@ABQAPAUTAShareMemStruct@CDDDTA@@@std@@YG?A_TABQAPAUTAShareMemStruct@CDDDTA@@@Z 10013c00 f i dddta.obj
 0001:00012c10       ??$_Get_unwrapped_n@AAPAPAUTAShareMemStruct@CDDDTA@@H@std@@YG?A_TAAPAPAUTAShareMemStruct@CDDDTA@@H@Z 10013c10 f i dddta.obj
 0001:00012c20       ??$_Idl_distance@PAPAUTAShareMemStruct@CDDDTA@@PAPAU12@@std@@YG?A_PABQAPAUTAShareMemStruct@CDDDTA@@0@Z 10013c20 f i dddta.obj
 0001:00012c40       ??$_Seek_wrapped@PAPAUTAShareMemStruct@CDDDTA@@PAPAU12@@std@@YGXAAPAPAUTAShareMemStruct@CDDDTA@@$$QAPAPAU12@@Z 10013c40 f i dddta.obj
 0001:00012c60       ??$_To_address@PAPAUTAShareMemStruct@CDDDTA@@@std@@YG?A_PABQAPAUTAShareMemStruct@CDDDTA@@@Z 10013c60 f i dddta.obj
 0001:00012c70       ??$_Unfancy@UTAShareMemStruct@CDDDTA@@@std@@YGPAUTAShareMemStruct@CDDDTA@@PAU12@@Z 10013c70 f i dddta.obj
 0001:00012c80       ??$_Unfancy@U_Container_proxy@std@@@std@@YGPAU_Container_proxy@0@PAU10@@Z 10013c80 f i dddta.obj
 0001:00012c90       ??$_Uninitialized_copy_unchecked@PAPAUTAShareMemStruct@CDDDTA@@PAPAU12@@std@@YGPAPAUTAShareMemStruct@CDDDTA@@PAPAU12@QAPAU12@0@Z 10013c90 f i dddta.obj
 0001:00012d30       ??$_Uninitialized_value_construct_n_unchecked1@PAPAUTAShareMemStruct@CDDDTA@@I@std@@YGPAPAUTAShareMemStruct@CDDDTA@@PAPAU12@I@Z 10013d30 f i dddta.obj
 0001:00012d50       ??$_Voidify_iter@PAPAUTAShareMemStruct@CDDDTA@@@std@@YGPAXPAPAUTAShareMemStruct@CDDDTA@@@Z 10013d50 f i dddta.obj
 0001:00012d60       ??$_Voidify_iter@PAUTAShareMemStruct@CDDDTA@@@std@@YGPAXPAUTAShareMemStruct@CDDDTA@@@Z 10013d60 f i dddta.obj
 0001:00012d70       ??$_Voidify_iter@PAU_Container_proxy@std@@@std@@YGPAXPAU_Container_proxy@0@@Z 10013d70 f i dddta.obj
 0001:00012d80       ??$_Zero_range@PAPAUTAShareMemStruct@CDDDTA@@@std@@YGPAPAUTAShareMemStruct@CDDDTA@@QAPAU12@0@Z 10013d80 f i dddta.obj
 0001:00012dc0       ??$addressof@PAUTAShareMemStruct@CDDDTA@@@std@@YGPAPAUTAShareMemStruct@CDDDTA@@AAPAU12@@Z 10013dc0 f i dddta.obj
 0001:00012dd0       ??$addressof@U_Container_proxy@std@@@std@@YGPAU_Container_proxy@0@AAU10@@Z 10013dd0 f i dddta.obj
 0001:00012de0       ??$addressof@V?$_Deque_val@U?$_Deque_simple_types@UTAShareMemStruct@CDDDTA@@@std@@@std@@@std@@YGPAV?$_Deque_val@U?$_Deque_simple_types@UTAShareMemStruct@CDDDTA@@@std@@@0@AAV10@@Z 10013de0 f i dddta.obj
 0001:00012df0       ??$construct@UTAShareMemStruct@CDDDTA@@ABU12@@?$_Default_allocator_traits@V?$allocator@UTAShareMemStruct@CDDDTA@@@std@@@std@@SGXAAV?$allocator@UTAShareMemStruct@CDDDTA@@@1@QAUTAShareMemStruct@CDDDTA@@ABU34@@Z 10013df0 f i dddta.obj
 0001:00012e40       ??$destroy@UTAShareMemStruct@CDDDTA@@@?$_Default_allocator_traits@V?$allocator@UTAShareMemStruct@CDDDTA@@@std@@@std@@SGXAAV?$allocator@UTAShareMemStruct@CDDDTA@@@1@QAUTAShareMemStruct@CDDDTA@@@Z 10013e40 f i dddta.obj
 0001:00012e50       ??$emplace_front@ABUTAShareMemStruct@CDDDTA@@@?$deque@UTAShareMemStruct@CDDDTA@@V?$allocator@UTAShareMemStruct@CDDDTA@@@std@@@std@@QAE?A_TABUTAShareMemStruct@CDDDTA@@@Z 10013e50 f i dddta.obj
 0001:00012fb0       ??$exchange@PAU_Container_proxy@std@@$$T@std@@YGPAU_Container_proxy@0@AAPAU10@$$QA$$T@Z 10013fb0 f i dddta.obj
 0001:00012fd0       ??$forward@AAPAUTAShareMemStruct@CDDDTA@@@std@@YGAAPAUTAShareMemStruct@CDDDTA@@AAPAU12@@Z 10013fd0 f i dddta.obj
 0001:00012fe0       ??$forward@ABUTAShareMemStruct@CDDDTA@@@std@@YGABUTAShareMemStruct@CDDDTA@@ABU12@@Z 10013fe0 f i dddta.obj
 0001:00012ff0       ??$forward@PAPAUTAShareMemStruct@CDDDTA@@@std@@YG$$QAPAPAUTAShareMemStruct@CDDDTA@@AAPAPAU12@@Z 10013ff0 f i dddta.obj
 0001:00013000       ??$forward@PAU_Container_base12@std@@@std@@YG$$QAPAU_Container_base12@0@AAPAU10@@Z 10014000 f i dddta.obj
 0001:00013010       ??$uninitialized_copy@PAPAUTAShareMemStruct@CDDDTA@@PAPAU12@@std@@YGPAPAUTAShareMemStruct@CDDDTA@@QAPAU12@0PAPAU12@@Z 10014010 f i dddta.obj
 0001:00013080       ??0?$_Deque_unchecked_const_iterator@V?$_Deque_val@U?$_Deque_simple_types@UTAShareMemStruct@CDDDTA@@@std@@@std@@@std@@QAE@IPBU_Container_base12@1@@Z 10014080 f i dddta.obj
 0001:000130b0       ??0?$_Deque_unchecked_iterator@V?$_Deque_val@U?$_Deque_simple_types@UTAShareMemStruct@CDDDTA@@@std@@@std@@@std@@QAE@IPBU_Container_base12@1@@Z 100140b0 f i dddta.obj
 0001:000130d0       ??0?$_Deque_val@U?$_Deque_simple_types@UTAShareMemStruct@CDDDTA@@@std@@@std@@QAE@XZ 100140d0 f i dddta.obj
 0001:00013110       ??0?$_Uninitialized_backout@PAPAUTAShareMemStruct@CDDDTA@@@std@@QAE@PAPAUTAShareMemStruct@CDDDTA@@@Z 10014110 f i dddta.obj
 0001:00013140       ??0?$allocator@UTAShareMemStruct@CDDDTA@@@std@@QAE@XZ 10014140 f i dddta.obj
 0001:00013150       ??0?$deque@UTAShareMemStruct@CDDDTA@@V?$allocator@UTAShareMemStruct@CDDDTA@@@std@@@std@@QAE@XZ 10014150 f i dddta.obj
 0001:00013190       ??0CDDDTA@@QAE@XZ          10014190 f   dddta.obj
 0001:00013280       ??0_Container_base12@std@@QAE@XZ 10014280 f i dddta.obj
 0001:000132a0       ??0_Container_proxy@std@@QAE@PAU_Container_base12@1@@Z 100142a0 f i dddta.obj
 0001:000132d0       ??1?$_Uninitialized_backout@PAPAUTAShareMemStruct@CDDDTA@@@std@@QAE@XZ 100142d0 f i dddta.obj
 0001:000132f0       ??1?$deque@UTAShareMemStruct@CDDDTA@@V?$allocator@UTAShareMemStruct@CDDDTA@@@std@@@std@@QAE@XZ 100142f0 f i dddta.obj
 0001:00013340       ??1CDDDTA@@QAE@XZ          10014340 f   dddta.obj
 0001:000133a0       ??A?$deque@UTAShareMemStruct@CDDDTA@@V?$allocator@UTAShareMemStruct@CDDDTA@@@std@@@std@@QAEAAUTAShareMemStruct@CDDDTA@@I@Z 100143a0 f i dddta.obj
 0001:000133e0       ??D?$_Deque_unchecked_const_iterator@V?$_Deque_val@U?$_Deque_simple_types@UTAShareMemStruct@CDDDTA@@@std@@@std@@@std@@QBEABUTAShareMemStruct@CDDDTA@@XZ 100143e0 f i dddta.obj
 0001:00013430       ??D?$_Deque_unchecked_iterator@V?$_Deque_val@U?$_Deque_simple_types@UTAShareMemStruct@CDDDTA@@@std@@@std@@@std@@QBEAAUTAShareMemStruct@CDDDTA@@XZ 10014430 f i dddta.obj
 0001:00013450       ??H?$_Deque_unchecked_iterator@V?$_Deque_val@U?$_Deque_simple_types@UTAShareMemStruct@CDDDTA@@@std@@@std@@@std@@QBE?AV01@H@Z 10014450 f i dddta.obj
 0001:00013490       ??Y?$_Deque_unchecked_const_iterator@V?$_Deque_val@U?$_Deque_simple_types@UTAShareMemStruct@CDDDTA@@@std@@@std@@@std@@QAEAAV01@H@Z 10014490 f i dddta.obj
 0001:000134b0       ??Y?$_Deque_unchecked_iterator@V?$_Deque_val@U?$_Deque_simple_types@UTAShareMemStruct@CDDDTA@@@std@@@std@@@std@@QAEAAV01@H@Z 100144b0 f i dddta.obj
 0001:000134d0       ?Blit@CDDDTA@@QAEXPAUIDirectDrawSurface@@@Z 100144d0 f   dddta.obj
 0001:00013640       ?ChatStrnCpy@@YAPADPADPBDI@Z 10014640 f   dddta.obj
 0001:00013680       ?CheckMessages@CDDDTA@@AAEXXZ 10014680 f   dddta.obj
 0001:000137d0       ?CreateSharedTAMem@CDDDTA@@AAEXHHPAD@Z 100147d0 f   dddta.obj
 0001:00013900       ?DeInitDDDTA@CDDDTA@@QAEXXZ 10014900 f   dddta.obj
 0001:000139a0       ?DeleteMem@@YAXPAX@Z       100149a0 f   dddta.obj
 0001:000139d0       ?FrameUpdate@CDDDTA@@QAEXXZ 100149d0 f   dddta.obj
 0001:00013b20       ?InitDDDTA@CDDDTA@@AAEXXZ  10014b20 f   dddta.obj
 0001:00013ec0       ?Message@CDDDTA@@QAE_NPAUHWND__@@IIJ@Z 10014ec0 f   dddta.obj
 0001:00013fa0       ?Moo@CDDDTA@@QAEXXZ        10014fa0 f   dddta.obj
 0001:00014070       ?Print@CDDDTA@@AAEXPAUHDC__@@PAUPrimitiveStruct@@@Z 10015070 f   dddta.obj
 0001:000141e0       ?RestoreAllSharedTAMem@CDDDTA@@AAEXXZ 100151e0 f   dddta.obj
 0001:000142b0       ?SendTextToSpring@CDDDTA@@QAEXPBD@Z 100152b0 f   dddta.obj
 0001:00014360       ?SetActiveUnit@CDDDTA@@AAEXPAUBeginUnitsArray_p@@PAUUnitStruct@@@Z 10015360 f i dddta.obj
 0001:00014460       ?WriteExplosion@CDDDTA@@AAEXXZ 10015460 f   dddta.obj
 0001:00014790       ?WriteProjectiles@CDDDTA@@AAEXXZ 10015790 f   dddta.obj
 0001:00014970       ?WriteSmoke@CDDDTA@@AAEXXZ 10015970 f   dddta.obj
 0001:00014c00       ?WriteSubPart@CDDDTA@@AAEXPAUSubPart@@PAUPrimitiveStruct@@@Z 10015c00 f   dddta.obj
 0001:00014cf0       ?WriteUnits@CDDDTA@@AAEXXZ 10015cf0 f   dddta.obj
 0001:00014df0       ?_Get_data@?$deque@UTAShareMemStruct@CDDDTA@@V?$allocator@UTAShareMemStruct@CDDDTA@@@std@@@std@@AAEAAV?$_Deque_val@U?$_Deque_simple_types@UTAShareMemStruct@CDDDTA@@@std@@@2@XZ 10015df0 f i dddta.obj
 0001:00014e00       ?_Get_data@?$deque@UTAShareMemStruct@CDDDTA@@V?$allocator@UTAShareMemStruct@CDDDTA@@@std@@@std@@ABEABV?$_Deque_val@U?$_Deque_simple_types@UTAShareMemStruct@CDDDTA@@@std@@@2@XZ 10015e00 f i dddta.obj
 0001:00014e10       ?_Get_first@?$_Compressed_pair@V?$allocator@UTAShareMemStruct@CDDDTA@@@std@@V?$_Deque_val@U?$_Deque_simple_types@UTAShareMemStruct@CDDDTA@@@std@@@2@$00@std@@QAEAAV?$allocator@UTAShareMemStruct@CDDDTA@@@2@XZ 10015e10 f i dddta.obj
 0001:00014e20       ?_Get_first@?$_Compressed_pair@V?$allocator@UTAShareMemStruct@CDDDTA@@@std@@V?$_Deque_val@U?$_Deque_simple_types@UTAShareMemStruct@CDDDTA@@@std@@@2@$00@std@@QBEABV?$allocator@UTAShareMemStruct@CDDDTA@@@2@XZ 10015e20 f i dddta.obj
 0001:00014e30       ?_Getal@?$deque@UTAShareMemStruct@CDDDTA@@V?$allocator@UTAShareMemStruct@CDDDTA@@@std@@@std@@AAEAAV?$allocator@UTAShareMemStruct@CDDDTA@@@2@XZ 10015e30 f i dddta.obj
 0001:00014e50       ?_Getal@?$deque@UTAShareMemStruct@CDDDTA@@V?$allocator@UTAShareMemStruct@CDDDTA@@@std@@@std@@ABEABV?$allocator@UTAShareMemStruct@CDDDTA@@@2@XZ 10015e50 f i dddta.obj
 0001:00014e70       ?_Getblock@?$_Deque_val@U?$_Deque_simple_types@UTAShareMemStruct@CDDDTA@@@std@@@std@@QBEII@Z 10015e70 f i dddta.obj
 0001:00014e90       ?_Getblock@?$deque@UTAShareMemStruct@CDDDTA@@V?$allocator@UTAShareMemStruct@CDDDTA@@@std@@@std@@ABEII@Z 10015e90 f i dddta.obj
 0001:00014eb0       ?_Growmap@?$deque@UTAShareMemStruct@CDDDTA@@V?$allocator@UTAShareMemStruct@CDDDTA@@@std@@@std@@AAEXI@Z 10015eb0 f i dddta.obj
 0001:000150e0       ?_Map@?$deque@UTAShareMemStruct@CDDDTA@@V?$allocator@UTAShareMemStruct@CDDDTA@@@std@@@std@@AAEAAPAPAUTAShareMemStruct@CDDDTA@@XZ 100160e0 f i dddta.obj
 0001:00015100       ?_Mapsize@?$deque@UTAShareMemStruct@CDDDTA@@V?$allocator@UTAShareMemStruct@CDDDTA@@@std@@@std@@AAEAAIXZ 10016100 f i dddta.obj
 0001:00015120       ?_Myoff@?$deque@UTAShareMemStruct@CDDDTA@@V?$allocator@UTAShareMemStruct@CDDDTA@@@std@@@std@@AAEAAIXZ 10016120 f i dddta.obj
 0001:00015140       ?_Mysize@?$deque@UTAShareMemStruct@CDDDTA@@V?$allocator@UTAShareMemStruct@CDDDTA@@@std@@@std@@AAEAAIXZ 10016140 f i dddta.obj
 0001:00015160       ?_Mysize@?$deque@UTAShareMemStruct@CDDDTA@@V?$allocator@UTAShareMemStruct@CDDDTA@@@std@@@std@@ABEABIXZ 10016160 f i dddta.obj
 0001:00015180       ?_Orphan_all@?$deque@UTAShareMemStruct@CDDDTA@@V?$allocator@UTAShareMemStruct@CDDDTA@@@std@@@std@@AAEXXZ 10016180 f i dddta.obj
 0001:000151a0       ?_Orphan_all@_Container_base12@std@@QAEXXZ 100161a0 f i dddta.obj
 0001:000151b0       ?_Release@?$_Uninitialized_backout@PAPAUTAShareMemStruct@CDDDTA@@@std@@QAEPAPAUTAShareMemStruct@CDDDTA@@XZ 100161b0 f i dddta.obj
 0001:000151d0       ?_Tidy@?$deque@UTAShareMemStruct@CDDDTA@@V?$allocator@UTAShareMemStruct@CDDDTA@@@std@@@std@@AAEXXZ 100161d0 f i dddta.obj
 0001:000152f0       ?_Unchecked_begin@?$deque@UTAShareMemStruct@CDDDTA@@V?$allocator@UTAShareMemStruct@CDDDTA@@@std@@@std@@QAE?AV?$_Deque_unchecked_iterator@V?$_Deque_val@U?$_Deque_simple_types@UTAShareMemStruct@CDDDTA@@@std@@@std@@@2@XZ 100162f0 f i dddta.obj
 0001:00015330       ?_Xlen@?$deque@UTAShareMemStruct@CDDDTA@@V?$allocator@UTAShareMemStruct@CDDDTA@@@std@@@std@@ABEXXZ 10016330 f i dddta.obj
 0001:00015350       ?allocate@?$allocator@PAUTAShareMemStruct@CDDDTA@@@std@@QAEPAPAUTAShareMemStruct@CDDDTA@@I@Z 10016350 f i dddta.obj
 0001:00015370       ?allocate@?$allocator@UTAShareMemStruct@CDDDTA@@@std@@QAEPAUTAShareMemStruct@CDDDTA@@I@Z 10016370 f i dddta.obj
 0001:00015390       ?allocate@?$allocator@U_Container_proxy@std@@@std@@QAEPAU_Container_proxy@2@I@Z 10016390 f i dddta.obj
 0001:000153b0       ?clear@?$deque@UTAShareMemStruct@CDDDTA@@V?$allocator@UTAShareMemStruct@CDDDTA@@@std@@@std@@QAEXXZ 100163b0 f i dddta.obj
 0001:000153d0       ?deallocate@?$_Default_allocator_traits@V?$allocator@U_Container_proxy@std@@@std@@@std@@SGXAAV?$allocator@U_Container_proxy@std@@@2@QAU_Container_proxy@2@I@Z 100163d0 f i dddta.obj
 0001:000153f0       ?deallocate@?$allocator@PAUTAShareMemStruct@CDDDTA@@@std@@QAEXQAPAUTAShareMemStruct@CDDDTA@@I@Z 100163f0 f i dddta.obj
 0001:00015410       ?deallocate@?$allocator@UTAShareMemStruct@CDDDTA@@@std@@QAEXQAUTAShareMemStruct@CDDDTA@@I@Z 10016410 f i dddta.obj
 0001:00015430       ?empty@?$deque@UTAShareMemStruct@CDDDTA@@V?$allocator@UTAShareMemStruct@CDDDTA@@@std@@@std@@QBE_NXZ 10016430 f i dddta.obj
 0001:00015460       ?max_size@?$_Default_allocator_traits@V?$allocator@UTAShareMemStruct@CDDDTA@@@std@@@std@@SGIABV?$allocator@UTAShareMemStruct@CDDDTA@@@2@@Z 10016460 f i dddta.obj
 0001:00015470       ?max_size@?$deque@UTAShareMemStruct@CDDDTA@@V?$allocator@UTAShareMemStruct@CDDDTA@@@std@@@std@@QBEIXZ 10016470 f i dddta.obj
 0001:000154b0       ?pop_back@?$deque@UTAShareMemStruct@CDDDTA@@V?$allocator@UTAShareMemStruct@CDDDTA@@@std@@@std@@QAEXXZ 100164b0 f i dddta.obj
 0001:00015580       ?push_front@?$deque@UTAShareMemStruct@CDDDTA@@V?$allocator@UTAShareMemStruct@CDDDTA@@@std@@@std@@QAEXABUTAShareMemStruct@CDDDTA@@@Z 10016580 f i dddta.obj
 0001:000155a0       ?size@?$deque@UTAShareMemStruct@CDDDTA@@V?$allocator@UTAShareMemStruct@CDDDTA@@@std@@@std@@QBEIXZ 100165a0 f i dddta.obj
 0001:000155c0       ??0CBookmarks@@QAE@XZ      100165c0 f   bookmarks.obj
 0001:000155d0       ??1CBookmarks@@QAE@XZ      100165d0 f   bookmarks.obj
 0001:000155e0       ?Blit@CBookmarks@@QAEXPAUIDirectDrawSurface@@@Z 100165e0 f   bookmarks.obj
 0001:000155f0       ?Message@CBookmarks@@QAE_NPAUHWND__@@IIJ@Z 100165f0 f   bookmarks.obj
 0001:00015600       ??0CChangeQueue@@QAE@XZ    10016600 f   changequeue.obj
 0001:00015630       ??1CChangeQueue@@QAE@XZ    10016630 f   changequeue.obj
 0001:00015640       ?Blit@CChangeQueue@@QAEXPAUIDirectDrawSurface@@@Z 10016640 f   changequeue.obj
 0001:00015650       ?Message@CChangeQueue@@QAE_NPAUHWND__@@IIJ@Z 10016650 f   changequeue.obj
 0001:00015710       ?Write@@YGXPAUHWND__@@@Z   10016710 f   changequeue.obj
 0001:000157a0       ??$sprintf_s@$0GE@@@YAHAAY0GE@DPBDZZ 100167a0 f i cinomce.obj
 0001:000157d0       ??0CIncome@@QAE@H@Z        100167d0 f   cinomce.obj
 0001:000159e0       ??1CIncome@@QAE@XZ         100169e0 f   cinomce.obj
 0001:000159f0       ?BlitIncome@CIncome@@QAEXPAE@Z 100169f0 f   cinomce.obj
 0001:00015ad0       ?CorrectPos@CIncome@@AAEXXZ 10016ad0 f   cinomce.obj
 0001:00015b60       ?DrawPlayerRect@CIncome@@AAEXHHD@Z 10016b60 f   cinomce.obj
 0001:00015bc0       ?DrawStorageText@CIncome@@AAEHMHH@Z 10016bc0 f   cinomce.obj
 0001:00015ce0       ?DrawTextA@CIncome@@AAEXPADHHD@Z 10016ce0 f   cinomce.obj
 0001:00015e40       ?FillRect@CIncome@@AAEXD@Z 10016e40 f   cinomce.obj
 0001:00015ec0       ?GetPlayerColor@CIncome@@AAEEH@Z 10016ec0 f   cinomce.obj
 0001:00015ef0       ?IsShow@CIncome@@QAE_NPAUtagRECT@@@Z 10016ef0 f   cinomce.obj
 0001:00015f40       ?Message@CIncome@@QAE_NPAUHWND__@@IIJ@Z 10016f40 f   cinomce.obj
 0001:00016420       ?PaintStoragebar@CIncome@@AAEXHHHH@Z 10017420 f   cinomce.obj
 0001:00016600       ?ReadPos@CIncome@@AAEXXZ   10017600 f   cinomce.obj
 0001:000166b0       ?Set@CIncome@@QAEXH@Z      100176b0 f   cinomce.obj
 0001:000166d0       ?ShowAllIncome@CIncome@@AAEHXZ 100176d0 f   cinomce.obj
 0001:000167a0       ?ShowAllyIncome@CIncome@@AAEHXZ 100177a0 f   cinomce.obj
 0001:00016890       ?ShowMyViewIncome@CIncome@@AAEXHH@Z 10017890 f   cinomce.obj
 0001:00016960       ?ShowPlayerIncome@CIncome@@AAEXHHH@Z 10017960 f   cinomce.obj
 0001:00016c40       ?WritePos@CIncome@@AAEXXZ  10017c40 f   cinomce.obj
 0001:00016cf0       ?inRect@CIncome@@AAE_NHH@Z 10017cf0 f   cinomce.obj
 0001:00016d50       ??0CWarp@@QAE@H@Z          10017d50 f   commanderwarp.obj
 0001:00016dd0       ??1CWarp@@QAE@XZ           10017dd0 f   commanderwarp.obj
 0001:00016e40       ?Blit@CWarp@@QAEXPAUIDirectDrawSurface@@@Z 10017e40 f   commanderwarp.obj
 0001:00016eb0       ?BlitBtn@CWarp@@AAEXPAE@Z  10017eb0 f   commanderwarp.obj
 0001:00017040       ?Message@CWarp@@QAE_NPAUHWND__@@IIJ@Z 10018040 f   commanderwarp.obj
 0001:00017210       ?SetPos@CWarp@@AAEXHH@Z    10018210 f   commanderwarp.obj
 0001:00017260       ?WithinButton@CWarp@@AAE_NHH@Z 10018260 f   commanderwarp.obj
 0001:000172b0       ??0Dialog@@QAE@H@Z         100182b0 f   dialog.obj
 0001:00017540       ??1Dialog@@QAE@XZ          10018540 f   dialog.obj
 0001:00017550       ?BlitCursor@Dialog@@QAEXPAEHH@Z 10018550 f   dialog.obj
 0001:00017730       ?BlitDialog@Dialog@@QAEXPAE@Z 10018730 f   dialog.obj
 0001:000178d0       ?CorrectPos@Dialog@@AAEXXZ 100188d0 f   dialog.obj
 0001:00017960       ?DrawBackgroundButton@Dialog@@AAEXXZ 10018960 f   dialog.obj
 0001:00017af0       ?DrawDelay@Dialog@@AAEXXZ  10018af0 f   dialog.obj
 0001:00017ba0       ?DrawFullRings@Dialog@@AAEXXZ 10018ba0 f   dialog.obj
 0001:00017c30       ?DrawKeyCode@Dialog@@AAEXXZ 10018c30 f   dialog.obj
 0001:00017d10       ?DrawMegaMapKey@Dialog@@AAEXXZ 10018d10 f   dialog.obj
 0001:00017e50       ?DrawOptimizeDT@Dialog@@AAEXXZ 10018e50 f   dialog.obj
 0001:00017ee0       ?DrawShareBox@Dialog@@AAEXXZ 10018ee0 f   dialog.obj
 0001:00018280       ?DrawSmallText@Dialog@@QAEXPAEHHPAD@Z 10019280 f   dialog.obj
 0001:00018690       ?DrawTextA@Dialog@@QAEXPAEHHPAD@Z 10019690 f   dialog.obj
 0001:00018ac0       ?DrawTinyText@Dialog@@AAEXPADHHD@Z 10019ac0 f   dialog.obj
 0001:00018bc0       ?DrawVSync@Dialog@@AAEXXZ  10019bc0 f   dialog.obj
 0001:00018cf0       ?DrawVisibleButton@Dialog@@AAEXXZ 10019cf0 f   dialog.obj
 0001:00018e00       ?DrawWhiteboardKey@Dialog@@AAEXXZ 10019e00 f   dialog.obj
 0001:00018f50       ?EnterOption@@YGHPAUtagInlineX86StackBuffer@@@Z 10019f50 f   dialog.obj
 0001:00018f70       ?FillRect@Dialog@@AAEXHHHHD@Z 10019f70 f   dialog.obj
 0001:00018fe0       ?HideDialog@Dialog@@QAEXXZ 10019fe0 f   dialog.obj
 0001:00019020       ?Inside@Dialog@@AAE_NHHH@Z 1001a020 f   dialog.obj
 0001:00019290       ?IsShow@Dialog@@QAE_NPAUtagRECT@@@Z 1001a290 f   dialog.obj
 0001:000192f0       ?Message@Dialog@@QAE_NPAUHWND__@@IIJ@Z 1001a2f0 f   dialog.obj
 0001:0001a170       ?PressInOption@@YGHPAUtagInlineX86StackBuffer@@@Z 1001b170 f   dialog.obj
 0001:0001a1a0       ?ReadPos@Dialog@@AAEXXZ    1001b1a0 f   dialog.obj
 0001:0001a230       ?ReadSettings@Dialog@@AAEXXZ 1001b230 f   dialog.obj
 0001:0001a4a0       ?RenderDialog@Dialog@@AAEXXZ 1001b4a0 f   dialog.obj
 0001:0001a5a0       ?RestoreAll@Dialog@@QAEXXZ 1001b5a0 f   dialog.obj
 0001:0001a720       ?RestoreCursor@Dialog@@AAEXXZ 1001b720 f   dialog.obj
 0001:0001a8e0       ?SetAll@Dialog@@QAEXXZ     1001b8e0 f   dialog.obj
 0001:0001a9f0       ?SetVisibleList@Dialog@@AAEXXZ 1001b9f0 f   dialog.obj
 0001:0001aa00       ?ShowDialog@Dialog@@QAEXXZ 1001ba00 f   dialog.obj
 0001:0001aa80       ?WritePos@Dialog@@AAEXXZ   1001ba80 f   dialog.obj
 0001:0001ab30       ?WriteSettings@Dialog@@AAEXXZ 1001bb30 f   dialog.obj
 0001:0001ace0       ??0CMapRect@@QAE@H@Z       1001bce0 f   maprect.obj
 0001:0001b1a0       ??1CMapRect@@QAE@XZ        1001c1a0 f   maprect.obj
 0001:0001b200       ?Blit@CMapRect@@QAEXPAUIDirectDrawSurface@@@Z 1001c200 f   maprect.obj
 0001:0001b430       ?GetMapMaxX@CMapRect@@AAEHXZ 1001c430 f   maprect.obj
 0001:0001b450       ?GetMapMaxY@CMapRect@@AAEHXZ 1001c450 f   maprect.obj
 0001:0001b470       ?LockBlit@CMapRect@@QAEXPADH@Z 1001c470 f   maprect.obj
 0001:0001b7b0       ?PaintRect@CMapRect@@AAEXXZ 1001c7b0 f   maprect.obj
 0001:0001b940       ?WorldToMiniX@CMapRect@@QAEHH@Z 1001c940 f   maprect.obj
 0001:0001b980       ?WorldToMiniY@CMapRect@@QAEHH@Z 1001c980 f   maprect.obj
 0001:0001b9c0       ??0CMinimapHandler@@QAE@XZ 1001c9c0 f   MinimapHandler.obj
 0001:0001b9f0       ??1CMinimapHandler@@UAE@XZ 1001c9f0 f   MinimapHandler.obj
 0001:0001ba10       ??_ECMinimapHandler@@UAEPAXI@Z 1001ca10 f i MinimapHandler.obj
 0001:0001ba10       ??_GCMinimapHandler@@UAEPAXI@Z 1001ca10 f i MinimapHandler.obj
 0001:0001ba40       ?DeinitMinimap@CMinimapHandler@@QAEXXZ 1001ca40 f   MinimapHandler.obj
 0001:0001ba90       ?FrameUpdate@CMinimapHandler@@QAEXXZ 1001ca90 f   MinimapHandler.obj
 0001:0001bb10       ?InitMinimap@CMinimapHandler@@QAEXPAUSharedMem@@@Z 1001cb10 f   MinimapHandler.obj
 0001:0001bbf0       ??0ShareDialogExpand@@QAE@H@Z 1001cbf0 f   sharedialog.obj
 0001:0001bd00       ??1ShareDialogExpand@@QAE@XZ 1001cd00 f   sharedialog.obj
 0001:0001bd70       ?EnergyPosProc@@YGXPAU_GUIInfo@@H@Z 1001cd70 f   sharedialog.obj
 0001:0001be90       ?GameSpeedPosProc@@YGXPAU_GUIInfo@@H@Z 1001ce90 f   sharedialog.obj
 0001:0001bef0       ?MetalPosProc@@YGXPAU_GUIInfo@@H@Z 1001cef0 f   sharedialog.obj
 0001:0001c010       ?ShareDialogInit@@YGHPAUtagInlineX86StackBuffer@@@Z 1001d010 f   sharedialog.obj
 0001:0001c4f0       ?ShareDialogProc@@YGHPAUtagInlineX86StackBuffer@@@Z 1001d4f0 f   sharedialog.obj
 0001:0001c7b0       ??0TABugFixing@@QAE@XZ     1001d7b0 f   TABugFix.obj
 0001:0001cd00       ??1TABugFixing@@QAE@XZ     1001dd00 f   TABugFix.obj
 0001:0001cf90       ?AntiCheat@TABugFixing@@QAEHXZ 1001df90 f   TABugFix.obj
 0001:0001cff0       ?BadModelHunter@@YGHPAUtagInlineX86StackBuffer@@@Z 1001dff0 f   TABugFix.obj
 0001:0001d140       ?CDMusic_MenuProc@@YGHPAUtagInlineX86StackBuffer@@@Z 1001e140 f   TABugFix.obj
 0001:0001d160       ?CDMusic_VictoryProc@@YGHPAUtagInlineX86StackBuffer@@@Z 1001e160 f   TABugFix.obj
 0001:0001d170       ?EnterProc@@YGHPAUtagInlineX86StackBuffer@@@Z 1001e170 f   TABugFix.obj
 0001:0001d190       ?LeaveProc@@YGHPAUtagInlineX86StackBuffer@@@Z 1001e190 f   TABugFix.obj
 0001:0001d1b0       ?LogToErrorlog@@YGXPAD@Z   1001e1b0 f   TABugFix.obj
 0001:0001d230       ?Message@TABugFixing@@QAE_NPAUHWND__@@IIJ@Z 1001e230 f   TABugFix.obj
 0001:0001d240       ?UnitDeath_BeforeUpdateUI_Proc@@YGHPAUtagInlineX86StackBuffer@@@Z 1001e240 f   TABugFix.obj
 0001:0001d270       ?UnitIDOutRange_Proc@@YGHPAUtagInlineX86StackBuffer@@@Z 1001e270 f   TABugFix.obj
 0001:0001d2b0       ?UnitVolumeYequZero_Proc@@YGHPAUtagInlineX86StackBuffer@@@Z 1001e2b0 f   TABugFix.obj
 0001:0001d2e0       ?VectoredHandler@@YGJPAU_EXCEPTION_POINTERS@@@Z 1001e2e0 f   TABugFix.obj
 0001:0001d2f0       ?resume_EHA@@YGKPAX@Z      1001e2f0 f   TABugFix.obj
 0001:0001d320       ??$?0$$V@?$_Compressed_pair@V?$allocator@PAVRegDword@@@std@@V?$_Vector_val@U?$_Simple_types@PAVRegDword@@@std@@@2@$00@std@@QAE@U_Zero_then_variadic_args_t@1@@Z 1001e320 f i TAConfig.obj
 0001:0001d340       ??$?0$$V@?$_Compressed_pair@V?$allocator@PAVRegString@@@std@@V?$_Vector_val@U?$_Simple_types@PAVRegString@@@std@@@2@$00@std@@QAE@U_Zero_then_variadic_args_t@1@@Z 1001e340 f i TAConfig.obj
 0001:0001d360       ??$_Construct_in_place@PAVRegDword@@ABQAV1@@std@@YGXAAPAVRegDword@@ABQAV1@@Z 1001e360 f i TAConfig.obj
 0001:0001d3a0       ??$_Construct_in_place@PAVRegString@@ABQAV1@@std@@YGXAAPAVRegString@@ABQAV1@@Z 1001e3a0 f i TAConfig.obj
 0001:0001d3e0       ??$_Copy_memmove@PAPAVRegDword@@PAPAV1@@std@@YGPAPAVRegDword@@PAPAV1@00@Z 1001e3e0 f i TAConfig.obj
 0001:0001d450       ??$_Copy_memmove@PAPAVRegString@@PAPAV1@@std@@YGPAPAVRegString@@PAPAV1@00@Z 1001e450 f i TAConfig.obj
 0001:0001d4c0       ??$_Destroy_range@V?$allocator@PAVRegDword@@@std@@@std@@YGXPAPAVRegDword@@QAPAV1@AAV?$allocator@PAVRegDword@@@0@@Z 1001e4c0 f i TAConfig.obj
 0001:0001d4d0       ??$_Destroy_range@V?$allocator@PAVRegString@@@std@@@std@@YGXPAPAVRegString@@QAPAV1@AAV?$allocator@PAVRegString@@@0@@Z 1001e4d0 f i TAConfig.obj
 0001:0001d4e0       ??$_Emplace_back@PAVRegDword@@@?$_Uninitialized_backout_al@V?$allocator@PAVRegDword@@@std@@@std@@QAEX$$QAPAVRegDword@@@Z 1001e4e0 f i TAConfig.obj
 0001:0001d520       ??$_Emplace_back@PAVRegString@@@?$_Uninitialized_backout_al@V?$allocator@PAVRegString@@@std@@@std@@QAEX$$QAPAVRegString@@@Z 1001e520 f i TAConfig.obj
 0001:0001d560       ??$_Emplace_back_with_unused_capacity@ABQAVRegDword@@@?$vector@PAVRegDword@@V?$allocator@PAVRegDword@@@std@@@std@@AAEAAPAVRegDword@@ABQAV2@@Z 1001e560 f i TAConfig.obj
 0001:0001d5c0       ??$_Emplace_back_with_unused_capacity@ABQAVRegString@@@?$vector@PAVRegString@@V?$allocator@PAVRegString@@@std@@@std@@AAEAAPAVRegString@@ABQAV2@@Z 1001e5c0 f i TAConfig.obj
 0001:0001d620       ??$_Emplace_one_at_back@ABQAVRegDword@@@?$vector@PAVRegDword@@V?$allocator@PAVRegDword@@@std@@@std@@AAEAAPAVRegDword@@ABQAV2@@Z 1001e620 f i TAConfig.obj
 0001:0001d680       ??$_Emplace_one_at_back@ABQAVRegString@@@?$vector@PAVRegString@@V?$allocator@PAVRegString@@@std@@@std@@AAEAAPAVRegString@@ABQAV2@@Z 1001e680 f i TAConfig.obj
 0001:0001d6e0       ??$_Emplace_reallocate@ABQAVRegDword@@@?$vector@PAVRegDword@@V?$allocator@PAVRegDword@@@std@@@std@@AAEPAPAVRegDword@@QAPAV2@ABQAV2@@Z 1001e6e0 f i TAConfig.obj
 0001:0001d8b0       ??$_Emplace_reallocate@ABQAVRegString@@@?$vector@PAVRegString@@V?$allocator@PAVRegString@@@std@@@std@@AAEPAPAVRegString@@QAPAV2@ABQAV2@@Z 1001e8b0 f i TAConfig.obj
 0001:0001da80       ??$_Get_unwrapped@ABQAPAVRegDword@@@std@@YG?A_TABQAPAVRegDword@@@Z 1001ea80 f i TAConfig.obj
 0001:0001da90       ??$_Get_unwrapped@ABQAPAVRegString@@@std@@YG?A_TABQAPAVRegString@@@Z 1001ea90 f i TAConfig.obj
 0001:0001daa0       ??$_To_address@PAPAVRegDword@@@std@@YG?A_PABQAPAVRegDword@@@Z 1001eaa0 f i TAConfig.obj
 0001:0001dab0       ??$_To_address@PAPAVRegString@@@std@@YG?A_PABQAPAVRegString@@@Z 1001eab0 f i TAConfig.obj
 0001:0001dac0       ??$_Unfancy@PAVRegDword@@@std@@YGPAPAVRegDword@@PAPAV1@@Z 1001eac0 f i TAConfig.obj
 0001:0001dad0       ??$_Unfancy@PAVRegString@@@std@@YGPAPAVRegString@@PAPAV1@@Z 1001ead0 f i TAConfig.obj
 0001:0001dae0       ??$_Uninitialized_move@PAPAVRegDword@@V?$allocator@PAVRegDword@@@std@@@std@@YGPAPAVRegDword@@QAPAV1@0PAPAV1@AAV?$allocator@PAVRegDword@@@0@@Z 1001eae0 f i TAConfig.obj
 0001:0001dbc0       ??$_Uninitialized_move@PAPAVRegString@@V?$allocator@PAVRegString@@@std@@@std@@YGPAPAVRegString@@QAPAV1@0PAPAV1@AAV?$allocator@PAVRegString@@@0@@Z 1001ebc0 f i TAConfig.obj
 0001:0001dca0       ??$_Voidify_iter@PAPAVRegDword@@@std@@YGPAXPAPAVRegDword@@@Z 1001eca0 f i TAConfig.obj
 0001:0001dcb0       ??$_Voidify_iter@PAPAVRegString@@@std@@YGPAXPAPAVRegString@@@Z 1001ecb0 f i TAConfig.obj
 0001:0001dcc0       ??$addressof@PAVRegDword@@@std@@YGPAPAVRegDword@@AAPAV1@@Z 1001ecc0 f i TAConfig.obj
 0001:0001dcd0       ??$addressof@PAVRegString@@@std@@YGPAPAVRegString@@AAPAV1@@Z 1001ecd0 f i TAConfig.obj
 0001:0001dce0       ??$addressof@V?$_Vector_val@U?$_Simple_types@PAVRegDword@@@std@@@std@@@std@@YGPAV?$_Vector_val@U?$_Simple_types@PAVRegDword@@@std@@@0@AAV10@@Z 1001ece0 f i TAConfig.obj
 0001:0001dcf0       ??$addressof@V?$_Vector_val@U?$_Simple_types@PAVRegString@@@std@@@std@@@std@@YGPAV?$_Vector_val@U?$_Simple_types@PAVRegString@@@std@@@0@AAV10@@Z 1001ecf0 f i TAConfig.obj
 0001:0001dd00       ??$construct@PAVRegDword@@ABQAV1@@?$_Default_allocator_traits@V?$allocator@PAVRegDword@@@std@@@std@@SGXAAV?$allocator@PAVRegDword@@@1@QAPAVRegDword@@ABQAV3@@Z 1001ed00 f i TAConfig.obj
 0001:0001dd40       ??$construct@PAVRegDword@@PAV1@@?$_Default_allocator_traits@V?$allocator@PAVRegDword@@@std@@@std@@SGXAAV?$allocator@PAVRegDword@@@1@QAPAVRegDword@@$$QAPAV3@@Z 1001ed40 f i TAConfig.obj
 0001:0001dd80       ??$construct@PAVRegString@@ABQAV1@@?$_Default_allocator_traits@V?$allocator@PAVRegString@@@std@@@std@@SGXAAV?$allocator@PAVRegString@@@1@QAPAVRegString@@ABQAV3@@Z 1001ed80 f i TAConfig.obj
 0001:0001ddc0       ??$construct@PAVRegString@@PAV1@@?$_Default_allocator_traits@V?$allocator@PAVRegString@@@std@@@std@@SGXAAV?$allocator@PAVRegString@@@1@QAPAVRegString@@$$QAPAV3@@Z 1001edc0 f i TAConfig.obj
 0001:0001de00       ??$destroy@PAVRegDword@@@?$_Default_allocator_traits@V?$allocator@PAVRegDword@@@std@@@std@@SGXAAV?$allocator@PAVRegDword@@@1@QAPAVRegDword@@@Z 1001ee00 f i TAConfig.obj
 0001:0001de10       ??$destroy@PAVRegString@@@?$_Default_allocator_traits@V?$allocator@PAVRegString@@@std@@@std@@SGXAAV?$allocator@PAVRegString@@@1@QAPAVRegString@@@Z 1001ee10 f i TAConfig.obj
 0001:0001de20       ??$emplace_back@ABQAVRegDword@@@?$vector@PAVRegDword@@V?$allocator@PAVRegDword@@@std@@@std@@QAE?A_TABQAVRegDword@@@Z 1001ee20 f i TAConfig.obj
 0001:0001de50       ??$emplace_back@ABQAVRegString@@@?$vector@PAVRegString@@V?$allocator@PAVRegString@@@std@@@std@@QAE?A_TABQAVRegString@@@Z 1001ee50 f i TAConfig.obj
 0001:0001de80       ??$forward@ABQAVRegDword@@@std@@YGABQAVRegDword@@ABQAV1@@Z 1001ee80 f i TAConfig.obj
 0001:0001de90       ??$forward@ABQAVRegString@@@std@@YGABQAVRegString@@ABQAV1@@Z 1001ee90 f i TAConfig.obj
 0001:0001dea0       ??$forward@PAVRegDword@@@std@@YG$$QAPAVRegDword@@AAPAV1@@Z 1001eea0 f i TAConfig.obj
 0001:0001deb0       ??$forward@PAVRegString@@@std@@YG$$QAPAVRegString@@AAPAV1@@Z 1001eeb0 f i TAConfig.obj
 0001:0001dec0       ??$move@AAPAVRegDword@@@std@@YG$$QAPAVRegDword@@AAPAV1@@Z 1001eec0 f i TAConfig.obj
 0001:0001ded0       ??$move@AAPAVRegString@@@std@@YG$$QAPAVRegString@@AAPAV1@@Z 1001eed0 f i TAConfig.obj
 0001:0001dee0       ??0?$CTraceCategoryEx@$00$0A@@ATL@@QAE@PBD@Z 1001eee0 f i TAConfig.obj
 0001:0001def0       ??0?$CTraceCategoryEx@$01$0A@@ATL@@QAE@PBD@Z 1001eef0 f i TAConfig.obj
 0001:0001df00       ??0?$CTraceCategoryEx@$03$0A@@ATL@@QAE@PBD@Z 1001ef00 f i TAConfig.obj
 0001:0001df10       ??0?$CTraceCategoryEx@$07$0A@@ATL@@QAE@PBD@Z 1001ef10 f i TAConfig.obj
 0001:0001df20       ??0?$CTraceCategoryEx@$0BA@$0A@@ATL@@QAE@PBD@Z 1001ef20 f i TAConfig.obj
 0001:0001df30       ??0?$CTraceCategoryEx@$0BAA@$0A@@ATL@@QAE@PBD@Z 1001ef30 f i TAConfig.obj
 0001:0001df40       ??0?$CTraceCategoryEx@$0BAAA@$0A@@ATL@@QAE@PBD@Z 1001ef40 f i TAConfig.obj
 0001:0001df50       ??0?$CTraceCategoryEx@$0BAAAA@$0A@@ATL@@QAE@PBD@Z 1001ef50 f i TAConfig.obj
 0001:0001df60       ??0?$CTraceCategoryEx@$0BAAAAA@$0A@@ATL@@QAE@PBD@Z 1001ef60 f i TAConfig.obj
 0001:0001df70       ??0?$CTraceCategoryEx@$0CA@$0A@@ATL@@QAE@PBD@Z 1001ef70 f i TAConfig.obj
 0001:0001df80       ??0?$CTraceCategoryEx@$0CAA@$0A@@ATL@@QAE@PBD@Z 1001ef80 f i TAConfig.obj
 0001:0001df90       ??0?$CTraceCategoryEx@$0CAAA@$0A@@ATL@@QAE@PBD@Z 1001ef90 f i TAConfig.obj
 0001:0001dfa0       ??0?$CTraceCategoryEx@$0CAAAA@$0A@@ATL@@QAE@PBD@Z 1001efa0 f i TAConfig.obj
 0001:0001dfb0       ??0?$CTraceCategoryEx@$0CAAAAA@$0A@@ATL@@QAE@PBD@Z 1001efb0 f i TAConfig.obj
 0001:0001dfc0       ??0?$CTraceCategoryEx@$0EA@$0A@@ATL@@QAE@PBD@Z 1001efc0 f i TAConfig.obj
 0001:0001dfd0       ??0?$CTraceCategoryEx@$0EAA@$0A@@ATL@@QAE@PBD@Z 1001efd0 f i TAConfig.obj
 0001:0001dfe0       ??0?$CTraceCategoryEx@$0EAAA@$0A@@ATL@@QAE@PBD@Z 1001efe0 f i TAConfig.obj
 0001:0001dff0       ??0?$CTraceCategoryEx@$0EAAAA@$0A@@ATL@@QAE@PBD@Z 1001eff0 f i TAConfig.obj
 0001:0001e000       ??0?$CTraceCategoryEx@$0EAAAAA@$0A@@ATL@@QAE@PBD@Z 1001f000 f i TAConfig.obj
 0001:0001e010       ??0?$CTraceCategoryEx@$0IA@$0A@@ATL@@QAE@PBD@Z 1001f010 f i TAConfig.obj
 0001:0001e020       ??0?$CTraceCategoryEx@$0IAA@$0A@@ATL@@QAE@PBD@Z 1001f020 f i TAConfig.obj
 0001:0001e030       ??0?$CTraceCategoryEx@$0IAAA@$0A@@ATL@@QAE@PBD@Z 1001f030 f i TAConfig.obj
 0001:0001e040       ??0?$CTraceCategoryEx@$0IAAAA@$0A@@ATL@@QAE@PBD@Z 1001f040 f i TAConfig.obj
 0001:0001e050       ??0?$_Uninitialized_backout_al@V?$allocator@PAVRegDword@@@std@@@std@@QAE@PAPAVRegDword@@AAV?$allocator@PAVRegDword@@@1@@Z 1001f050 f i TAConfig.obj
 0001:0001e080       ??0?$_Uninitialized_backout_al@V?$allocator@PAVRegString@@@std@@@std@@QAE@PAPAVRegString@@AAV?$allocator@PAVRegString@@@1@@Z 1001f080 f i TAConfig.obj
 0001:0001e0b0       ??0?$_Vector_const_iterator@V?$_Vector_val@U?$_Simple_types@PAVRegDword@@@std@@@std@@@std@@QAE@PAPAVRegDword@@PBU_Container_base0@1@@Z 1001f0b0 f i TAConfig.obj
 0001:0001e0e0       ??0?$_Vector_const_iterator@V?$_Vector_val@U?$_Simple_types@PAVRegString@@@std@@@std@@@std@@QAE@PAPAVRegString@@PBU_Container_base0@1@@Z 1001f0e0 f i TAConfig.obj
 0001:0001e110       ??0?$_Vector_iterator@V?$_Vector_val@U?$_Simple_types@PAVRegDword@@@std@@@std@@@std@@QAE@PAPAVRegDword@@PBU_Container_base0@1@@Z 1001f110 f i TAConfig.obj
 0001:0001e130       ??0?$_Vector_iterator@V?$_Vector_val@U?$_Simple_types@PAVRegString@@@std@@@std@@@std@@QAE@PAPAVRegString@@PBU_Container_base0@1@@Z 1001f130 f i TAConfig.obj
 0001:0001e150       ??0?$_Vector_val@U?$_Simple_types@PAVRegDword@@@std@@@std@@QAE@XZ 1001f150 f i TAConfig.obj
 0001:0001e180       ??0?$_Vector_val@U?$_Simple_types@PAVRegString@@@std@@@std@@QAE@XZ 1001f180 f i TAConfig.obj
 0001:0001e1b0       ??0?$allocator@PAVRegDword@@@std@@QAE@XZ 1001f1b0 f i TAConfig.obj
 0001:0001e1c0       ??0?$allocator@PAVRegString@@@std@@QAE@XZ 1001f1c0 f i TAConfig.obj
 0001:0001e1d0       ??0?$vector@PAVRegDword@@V?$allocator@PAVRegDword@@@std@@@std@@QAE@XZ 1001f1d0 f i TAConfig.obj
 0001:0001e200       ??0?$vector@PAVRegString@@V?$allocator@PAVRegString@@@std@@@std@@QAE@XZ 1001f200 f i TAConfig.obj
 0001:0001e230       ??0CAtlException@ATL@@QAE@J@Z 1001f230 f i TAConfig.obj
 0001:0001e250       ??0RegDword@@QAE@PADHK@Z   1001f250 f   TAConfig.obj
 0001:0001e2c0       ??0RegString@@QAE@PADH0H@Z 1001f2c0 f   TAConfig.obj
 0001:0001e360       ??0TADRConfig@@QAE@XZ      1001f360 f   TAConfig.obj
 0001:0001e750       ??1?$_Uninitialized_backout_al@V?$allocator@PAVRegDword@@@std@@@std@@QAE@XZ 1001f750 f i TAConfig.obj
 0001:0001e780       ??1?$_Uninitialized_backout_al@V?$allocator@PAVRegString@@@std@@@std@@QAE@XZ 1001f780 f i TAConfig.obj
 0001:0001e7b0       ??1?$vector@PAVRegDword@@V?$allocator@PAVRegDword@@@std@@@std@@QAE@XZ 1001f7b0 f i TAConfig.obj
 0001:0001e7d0       ??1?$vector@PAVRegString@@V?$allocator@PAVRegString@@@std@@@std@@QAE@XZ 1001f7d0 f i TAConfig.obj
 0001:0001e7f0       ??1RegDword@@QAE@XZ        1001f7f0 f   TAConfig.obj
 0001:0001e820       ??1RegString@@QAE@XZ       1001f820 f   TAConfig.obj
 0001:0001e870       ??1TADRConfig@@QAE@XZ      1001f870 f   TAConfig.obj
 0001:0001e950       ??8?$_Vector_const_iterator@V?$_Vector_val@U?$_Simple_types@PAVRegDword@@@std@@@std@@@std@@QBE_NABV01@@Z 1001f950 f i TAConfig.obj
 0001:0001e990       ??8?$_Vector_const_iterator@V?$_Vector_val@U?$_Simple_types@PAVRegString@@@std@@@std@@@std@@QBE_NABV01@@Z 1001f990 f i TAConfig.obj
 0001:0001e9d0       ??9?$_Vector_const_iterator@V?$_Vector_val@U?$_Simple_types@PAVRegString@@@std@@@std@@@std@@QBE_NABV01@@Z 1001f9d0 f i TAConfig.obj
 0001:0001ea10       ??D?$_Vector_const_iterator@V?$_Vector_val@U?$_Simple_types@PAVRegDword@@@std@@@std@@@std@@QBEABQAVRegDword@@XZ 1001fa10 f i TAConfig.obj
 0001:0001ea20       ??D?$_Vector_const_iterator@V?$_Vector_val@U?$_Simple_types@PAVRegString@@@std@@@std@@@std@@QBEABQAVRegString@@XZ 1001fa20 f i TAConfig.obj
 0001:0001ea30       ??D?$_Vector_iterator@V?$_Vector_val@U?$_Simple_types@PAVRegDword@@@std@@@std@@@std@@QBEAAPAVRegDword@@XZ 1001fa30 f i TAConfig.obj
 0001:0001ea50       ??D?$_Vector_iterator@V?$_Vector_val@U?$_Simple_types@PAVRegString@@@std@@@std@@@std@@QBEAAPAVRegString@@XZ 1001fa50 f i TAConfig.obj
 0001:0001ea70       ??E?$_Vector_const_iterator@V?$_Vector_val@U?$_Simple_types@PAVRegDword@@@std@@@std@@@std@@QAEAAV01@XZ 1001fa70 f i TAConfig.obj
 0001:0001ea90       ??E?$_Vector_const_iterator@V?$_Vector_val@U?$_Simple_types@PAVRegString@@@std@@@std@@@std@@QAEAAV01@XZ 1001fa90 f i TAConfig.obj
 0001:0001eab0       ??E?$_Vector_iterator@V?$_Vector_val@U?$_Simple_types@PAVRegDword@@@std@@@std@@@std@@QAEAAV01@XZ 1001fab0 f i TAConfig.obj
 0001:0001ead0       ??E?$_Vector_iterator@V?$_Vector_val@U?$_Simple_types@PAVRegString@@@std@@@std@@@std@@QAEAAV01@XZ 1001fad0 f i TAConfig.obj
 0001:0001eaf0       ??_GRegDword@@QAEPAXI@Z    1001faf0 f i TAConfig.obj
 0001:0001eb20       ??_GRegString@@QAEPAXI@Z   1001fb20 f i TAConfig.obj
 0001:0001eb50       ?AtlCrtErrorCheck@ATL@@YGHH@Z 1001fb50 f i TAConfig.obj
 0001:0001ec10       ?AtlThrowImpl@ATL@@YGXJ@Z  1001fc10 f i TAConfig.obj
 0001:0001ec40       ?EnumIniRegInfo_Begin@TADRConfig@@QAEHPAPAU_EnumRegInfo@@PAPBDPAPBX@Z 1001fc40 f   TAConfig.obj
 0001:0001ecd0       ?EnumIniRegInfo_End@TADRConfig@@QAEHPAPAU_EnumRegInfo@@@Z 1001fcd0 f   TAConfig.obj
 0001:0001ed30       ?EnumIniRegInfo_Next@TADRConfig@@QAEHPAPAU_EnumRegInfo@@PAPBDPAPBX@Z 1001fd30 f   TAConfig.obj
 0001:0001ee50       ?FindRegDword@TADRConfig@@QAEKPADK@Z 1001fe50 f   TAConfig.obj
 0001:0001eee0       ?FindRegStr@TADRConfig@@QAEPBDPADPBD@Z 1001fee0 f   TAConfig.obj
 0001:0001ef70       ?GetIniBool@TADRConfig@@QAEHPBDH@Z 1001ff70 f   TAConfig.obj
 0001:0001f020       ?GetIniCrc@TADRConfig@@QAEIXZ 10020020 f   TAConfig.obj
 0001:0001f100       ?GetIniInt@TADRConfig@@QAEHPBDH@Z 10020100 f   TAConfig.obj
 0001:0001f130       ?GetIniStr@TADRConfig@@QAEHPBDPADK1@Z 10020130 f   TAConfig.obj
 0001:0001f190       ?LoadIniRegSetting@TADRConfig@@AAEXPAE@Z 10020190 f   TAConfig.obj
 0001:0001f920       ?Name@RegDword@@QAEPBDXZ   10020920 f   TAConfig.obj
 0001:0001f930       ?Name@RegString@@QAEPBDXZ  10020930 f   TAConfig.obj
 0001:0001f940       ?ReadTAReg_Dword@TADRConfig@@QAEJPADPAK@Z 10020940 f   TAConfig.obj
 0001:0001f980       ?ReadTAReg_Str@TADRConfig@@QAEJPADPBDK@Z 10020980 f   TAConfig.obj
 0001:0001f9d0       ?SetIniBool@TADRConfig@@QAEHPBDH@Z 100209d0 f   TAConfig.obj
 0001:0001fac0       ?Str@RegString@@QAEPBDXZ   10020ac0 f   TAConfig.obj
 0001:0001fae0       ?TARegPath_HKEY@TADRConfig@@AAEPAUHKEY__@@XZ 10020ae0 f   TAConfig.obj
 0001:0001fb50       ?Value@RegDword@@QAEKXZ    10020b50 f   TAConfig.obj
 0001:0001fb70       ?WriteTAReg_Dword@TADRConfig@@QAEJPADK@Z 10020b70 f   TAConfig.obj
 0001:0001fbb0       ?WriteTAReg_Str@TADRConfig@@QAEJPADPBDK@Z 10020bb0 f   TAConfig.obj
 0001:0001fc00       ?_Calculate_growth@?$vector@PAVRegDword@@V?$allocator@PAVRegDword@@@std@@@std@@ABEII@Z 10020c00 f i TAConfig.obj
 0001:0001fc60       ?_Calculate_growth@?$vector@PAVRegString@@V?$allocator@PAVRegString@@@std@@@std@@ABEII@Z 10020c60 f i TAConfig.obj
 0001:0001fcc0       ?_Change_array@?$vector@PAVRegDword@@V?$allocator@PAVRegDword@@@std@@@std@@AAEXQAPAVRegDword@@II@Z 10020cc0 f i TAConfig.obj
 0001:0001fd60       ?_Change_array@?$vector@PAVRegString@@V?$allocator@PAVRegString@@@std@@@std@@AAEXQAPAVRegString@@II@Z 10020d60 f i TAConfig.obj
 0001:0001fe00       ?_Compat@?$_Vector_const_iterator@V?$_Vector_val@U?$_Simple_types@PAVRegDword@@@std@@@std@@@std@@QBEXABV12@@Z 10020e00 f i TAConfig.obj
 0001:0001fe10       ?_Compat@?$_Vector_const_iterator@V?$_Vector_val@U?$_Simple_types@PAVRegString@@@std@@@std@@@std@@QBEXABV12@@Z 10020e10 f i TAConfig.obj
 0001:0001fe20       ?_Get_first@?$_Compressed_pair@V?$allocator@PAVRegDword@@@std@@V?$_Vector_val@U?$_Simple_types@PAVRegDword@@@std@@@2@$00@std@@QAEAAV?$allocator@PAVRegDword@@@2@XZ 10020e20 f i TAConfig.obj
 0001:0001fe30       ?_Get_first@?$_Compressed_pair@V?$allocator@PAVRegDword@@@std@@V?$_Vector_val@U?$_Simple_types@PAVRegDword@@@std@@@2@$00@std@@QBEABV?$allocator@PAVRegDword@@@2@XZ 10020e30 f i TAConfig.obj
 0001:0001fe40       ?_Get_first@?$_Compressed_pair@V?$allocator@PAVRegString@@@std@@V?$_Vector_val@U?$_Simple_types@PAVRegString@@@std@@@2@$00@std@@QAEAAV?$allocator@PAVRegString@@@2@XZ 10020e40 f i TAConfig.obj
 0001:0001fe50       ?_Get_first@?$_Compressed_pair@V?$allocator@PAVRegString@@@std@@V?$_Vector_val@U?$_Simple_types@PAVRegString@@@std@@@2@$00@std@@QBEABV?$allocator@PAVRegString@@@2@XZ 10020e50 f i TAConfig.obj
 0001:0001fe60       ?_Getal@?$vector@PAVRegDword@@V?$allocator@PAVRegDword@@@std@@@std@@AAEAAV?$allocator@PAVRegDword@@@2@XZ 10020e60 f i TAConfig.obj
 0001:0001fe80       ?_Getal@?$vector@PAVRegDword@@V?$allocator@PAVRegDword@@@std@@@std@@ABEABV?$allocator@PAVRegDword@@@2@XZ 10020e80 f i TAConfig.obj
 0001:0001fea0       ?_Getal@?$vector@PAVRegString@@V?$allocator@PAVRegString@@@std@@@std@@AAEAAV?$allocator@PAVRegString@@@2@XZ 10020ea0 f i TAConfig.obj
 0001:0001fec0       ?_Getal@?$vector@PAVRegString@@V?$allocator@PAVRegString@@@std@@@std@@ABEABV?$allocator@PAVRegString@@@2@XZ 10020ec0 f i TAConfig.obj
 0001:0001fee0       ?_Orphan_range@?$vector@PAVRegDword@@V?$allocator@PAVRegDword@@@std@@@std@@ABEXPAPAVRegDword@@0@Z 10020ee0 f i TAConfig.obj
 0001:0001fef0       ?_Orphan_range@?$vector@PAVRegString@@V?$allocator@PAVRegString@@@std@@@std@@ABEXPAPAVRegString@@0@Z 10020ef0 f i TAConfig.obj
 0001:0001ff00       ?_Release@?$_Uninitialized_backout_al@V?$allocator@PAVRegDword@@@std@@@std@@QAEPAPAVRegDword@@XZ 10020f00 f i TAConfig.obj
 0001:0001ff20       ?_Release@?$_Uninitialized_backout_al@V?$allocator@PAVRegString@@@std@@@std@@QAEPAPAVRegString@@XZ 10020f20 f i TAConfig.obj
 0001:0001ff40       ?_Tidy@?$vector@PAVRegDword@@V?$allocator@PAVRegDword@@@std@@@std@@AAEXXZ 10020f40 f i TAConfig.obj
 0001:00020010       ?_Tidy@?$vector@PAVRegString@@V?$allocator@PAVRegString@@@std@@@std@@AAEXXZ 10021010 f i TAConfig.obj
 0001:000200e0       ?_Xlength@?$vector@PAVRegDword@@V?$allocator@PAVRegDword@@@std@@@std@@CGXXZ 100210e0 f i TAConfig.obj
 0001:000200f0       ?_Xlength@?$vector@PAVRegString@@V?$allocator@PAVRegString@@@std@@@std@@CGXXZ 100210f0 f i TAConfig.obj
 0001:00020100       ?allocate@?$allocator@PAVRegDword@@@std@@QAEPAPAVRegDword@@I@Z 10021100 f i TAConfig.obj
 0001:00020120       ?allocate@?$allocator@PAVRegString@@@std@@QAEPAPAVRegString@@I@Z 10021120 f i TAConfig.obj
 0001:00020140       ?back@?$vector@PAVRegDword@@V?$allocator@PAVRegDword@@@std@@@std@@QAEAAPAVRegDword@@XZ 10021140 f i TAConfig.obj
 0001:00020170       ?back@?$vector@PAVRegString@@V?$allocator@PAVRegString@@@std@@@std@@QAEAAPAVRegString@@XZ 10021170 f i TAConfig.obj
 0001:000201a0       ?begin@?$vector@PAVRegDword@@V?$allocator@PAVRegDword@@@std@@@std@@QAE?AV?$_Vector_iterator@V?$_Vector_val@U?$_Simple_types@PAVRegDword@@@std@@@std@@@2@XZ 100211a0 f i TAConfig.obj
 0001:000201d0       ?begin@?$vector@PAVRegString@@V?$allocator@PAVRegString@@@std@@@std@@QAE?AV?$_Vector_iterator@V?$_Vector_val@U?$_Simple_types@PAVRegString@@@std@@@std@@@2@XZ 100211d0 f i TAConfig.obj
 0001:00020200       ?capacity@?$vector@PAVRegDword@@V?$allocator@PAVRegDword@@@std@@@std@@QBEIXZ 10021200 f i TAConfig.obj
 0001:00020230       ?capacity@?$vector@PAVRegString@@V?$allocator@PAVRegString@@@std@@@std@@QBEIXZ 10021230 f i TAConfig.obj
 0001:00020260       ?deallocate@?$allocator@PAVRegDword@@@std@@QAEXQAPAVRegDword@@I@Z 10021260 f i TAConfig.obj
 0001:00020280       ?deallocate@?$allocator@PAVRegString@@@std@@QAEXQAPAVRegString@@I@Z 10021280 f i TAConfig.obj
 0001:000202a0       ?empty@?$vector@PAVRegDword@@V?$allocator@PAVRegDword@@@std@@@std@@QBE_NXZ 100212a0 f i TAConfig.obj
 0001:000202e0       ?empty@?$vector@PAVRegString@@V?$allocator@PAVRegString@@@std@@@std@@QBE_NXZ 100212e0 f i TAConfig.obj
 0001:00020320       ?end@?$vector@PAVRegDword@@V?$allocator@PAVRegDword@@@std@@@std@@QAE?AV?$_Vector_iterator@V?$_Vector_val@U?$_Simple_types@PAVRegDword@@@std@@@std@@@2@XZ 10021320 f i TAConfig.obj
 0001:00020360       ?end@?$vector@PAVRegString@@V?$allocator@PAVRegString@@@std@@@std@@QAE?AV?$_Vector_iterator@V?$_Vector_val@U?$_Simple_types@PAVRegString@@@std@@@std@@@2@XZ 10021360 f i TAConfig.obj
 0001:000203a0       ?max_size@?$_Default_allocator_traits@V?$allocator@PAVRegDword@@@std@@@std@@SGIABV?$allocator@PAVRegDword@@@2@@Z 100213a0 f i TAConfig.obj
 0001:000203b0       ?max_size@?$_Default_allocator_traits@V?$allocator@PAVRegString@@@std@@@std@@SGIABV?$allocator@PAVRegString@@@2@@Z 100213b0 f i TAConfig.obj
 0001:000203c0       ?max_size@?$vector@PAVRegDword@@V?$allocator@PAVRegDword@@@std@@@std@@QBEIXZ 100213c0 f i TAConfig.obj
 0001:00020400       ?max_size@?$vector@PAVRegString@@V?$allocator@PAVRegString@@@std@@@std@@QBEIXZ 10021400 f i TAConfig.obj
 0001:00020440       ?pop_back@?$vector@PAVRegDword@@V?$allocator@PAVRegDword@@@std@@@std@@QAEXXZ 10021440 f i TAConfig.obj
 0001:000204d0       ?pop_back@?$vector@PAVRegString@@V?$allocator@PAVRegString@@@std@@@std@@QAEXXZ 100214d0 f i TAConfig.obj
 0001:00020560       ?push_back@?$vector@PAVRegDword@@V?$allocator@PAVRegDword@@@std@@@std@@QAEXABQAVRegDword@@@Z 10021560 f i TAConfig.obj
 0001:00020580       ?push_back@?$vector@PAVRegString@@V?$allocator@PAVRegString@@@std@@@std@@QAEXABQAVRegString@@@Z 10021580 f i TAConfig.obj
 0001:000205a0       ?size@?$vector@PAVRegDword@@V?$allocator@PAVRegDword@@@std@@@std@@QBEIXZ 100215a0 f i TAConfig.obj
 0001:000205d0       ?size@?$vector@PAVRegString@@V?$allocator@PAVRegString@@@std@@@std@@QBEIXZ 100215d0 f i TAConfig.obj
 0001:00020600       ?strchr@@YAPADQADH@Z       10021600 f i TAConfig.obj
 0001:00020620       ?strlwr_s@Checked@ATL@@YAXPADI@Z 10021620 f i TAConfig.obj
 0001:00020640       ?strupr_s@Checked@ATL@@YAXPADI@Z 10021640 f i TAConfig.obj
 0001:00020660       ??0CTAHook@@QAE@H@Z        10021660 f   tahook.obj
 0001:00020930       ??1CTAHook@@QAE@XZ         10021930 f   tahook.obj
 0001:000209a0       ?Blit@CTAHook@@QAEXPAUIDirectDrawSurface@@@Z 100219a0 f   tahook.obj
 0001:000209b0       ?CalculateLine@CTAHook@@AAEXXZ 100219b0 f   tahook.obj
 0001:00020c50       ?CalculateRing@CTAHook@@AAEXHHHH@Z 10021c50 f   tahook.obj
 0001:00020fa0       ?CalculateRing@CTAHook@@AAEXXZ 10021fa0 f   tahook.obj
 0001:000210a0       ?ClickBuilding@CTAHook@@AAEXHH@Z 100220a0 f   tahook.obj
 0001:00021150       ?DisableTABuildRect@CTAHook@@AAEXXZ 10022150 f   tahook.obj
 0001:00021180       ?DrawBuildRect@CTAHook@@AAEXHHHHH@Z 10022180 f   tahook.obj
 0001:00021370       ?EnableTABuildRect@CTAHook@@AAEXXZ 10022370 f   tahook.obj
 0001:000213a0       ?GetFootX@CTAHook@@AAEFXZ  100223a0 f   tahook.obj
 0001:000213d0       ?GetFootY@CTAHook@@AAEFXZ  100223d0 f   tahook.obj
 0001:00021400       ?IsLineBuilding@CTAHook@@QAEHXZ 10022400 f   tahook.obj
 0001:00021440       ?Message@CTAHook@@QAE_NPAUHWND__@@IIJ@Z 10022440 f   tahook.obj
 0001:00021ba0       ?OptimizeDTRows@CTAHook@@AAEXXZ 10022ba0 f   tahook.obj
 0001:00021f10       ?PaintMinimapRect@CTAHook@@AAEXXZ 10022f10 f   tahook.obj
 0001:00021f40       ?Set@CTAHook@@QAEXHPAD_N1H@Z 10022f40 f   tahook.obj
 0001:00021f90       ?TABlit@CTAHook@@QAEXXZ    10022f90 f   tahook.obj
 0001:00022010       ?UpdateSpacing@CTAHook@@AAEXXZ 10023010 f   tahook.obj
 0001:00022050       ?VisualizeRow@CTAHook@@AAEXXZ 10023050 f   tahook.obj
 0001:000221c0       ?VisualizeRow_ForME_megamap@CTAHook@@QAEXPAU_OFFSCREEN@@@Z 100231c0 f   tahook.obj
 0001:00022330       ?WriteDTLine@CTAHook@@AAEXXZ 10023330 f   tahook.obj
 0001:000223d0       ?WriteScrollDTLine@CTAHook@@AAEXXZ 100233d0 f   tahook.obj
 0001:000223e0       ?WriteShareMacro@CTAHook@@QAEXXZ 100233e0 f   tahook.obj
 0001:00022570       ??$?0$$V@?$_Compressed_pair@V?$allocator@PAD@std@@V?$_Vector_val@U?$_Simple_types@PAD@std@@@2@$00@std@@QAE@U_Zero_then_variadic_args_t@1@@Z 10023570 f i UnicodeSupport.obj
 0001:00022590       ??$_Construct_in_place@PADPAD@std@@YGXAAPAD$$QAPAD@Z 10023590 f i UnicodeSupport.obj
 0001:000225d0       ??$_Copy_memmove@PAPADPAPAD@std@@YGPAPADPAPAD00@Z 100235d0 f i UnicodeSupport.obj
 0001:00022640       ??$_Destroy_range@V?$allocator@PAD@std@@@std@@YGXPAPADQAPADAAV?$allocator@PAD@0@@Z 10023640 f i UnicodeSupport.obj
 0001:00022650       ??$_Emplace_back@PAD@?$_Uninitialized_backout_al@V?$allocator@PAD@std@@@std@@QAEX$$QAPAD@Z 10023650 f i UnicodeSupport.obj
 0001:00022690       ??$_Emplace_back_with_unused_capacity@PAD@?$vector@PADV?$allocator@PAD@std@@@std@@AAEAAPAD$$QAPAD@Z 10023690 f i UnicodeSupport.obj
 0001:000226f0       ??$_Emplace_one_at_back@PAD@?$vector@PADV?$allocator@PAD@std@@@std@@AAEAAPAD$$QAPAD@Z 100236f0 f i UnicodeSupport.obj
 0001:00022750       ??$_Emplace_reallocate@PAD@?$vector@PADV?$allocator@PAD@std@@@std@@AAEPAPADQAPAD$$QAPAD@Z 10023750 f i UnicodeSupport.obj
 0001:00022920       ??$_Get_unwrapped@ABQAPAD@std@@YG?A_TABQAPAD@Z 10023920 f i UnicodeSupport.obj
 0001:00022930       ??$_To_address@PAPAD@std@@YG?A_PABQAPAD@Z 10023930 f i UnicodeSupport.obj
 0001:00022940       ??$_Unfancy@PAD@std@@YGPAPADPAPAD@Z 10023940 f i UnicodeSupport.obj
 0001:00022950       ??$_Uninitialized_move@PAPADV?$allocator@PAD@std@@@std@@YGPAPADQAPAD0PAPADAAV?$allocator@PAD@0@@Z 10023950 f i UnicodeSupport.obj
 0001:00022a30       ??$_Voidify_iter@PAPAD@std@@YGPAXPAPAD@Z 10023a30 f i UnicodeSupport.obj
 0001:00022a40       ??$addressof@PAD@std@@YGPAPADAAPAD@Z 10023a40 f i UnicodeSupport.obj
 0001:00022a50       ??$addressof@V?$_Vector_val@U?$_Simple_types@PAD@std@@@std@@@std@@YGPAV?$_Vector_val@U?$_Simple_types@PAD@std@@@0@AAV10@@Z 10023a50 f i UnicodeSupport.obj
 0001:00022a60       ??$construct@PADPAD@?$_Default_allocator_traits@V?$allocator@PAD@std@@@std@@SGXAAV?$allocator@PAD@1@QAPAD$$QAPAD@Z 10023a60 f i UnicodeSupport.obj
 0001:00022aa0       ??$destroy@PAD@?$_Default_allocator_traits@V?$allocator@PAD@std@@@std@@SGXAAV?$allocator@PAD@1@QAPAD@Z 10023aa0 f i UnicodeSupport.obj
 0001:00022ab0       ??$emplace_back@PAD@?$vector@PADV?$allocator@PAD@std@@@std@@QAE?A_T$$QAPAD@Z 10023ab0 f i UnicodeSupport.obj
 0001:00022ae0       ??$forward@PAD@std@@YG$$QAPADAAPAD@Z 10023ae0 f i UnicodeSupport.obj
 0001:00022af0       ??$move@AAPAD@std@@YG$$QAPADAAPAD@Z 10023af0 f i UnicodeSupport.obj
 0001:00022b00       ??0?$_Uninitialized_backout_al@V?$allocator@PAD@std@@@std@@QAE@PAPADAAV?$allocator@PAD@1@@Z 10023b00 f i UnicodeSupport.obj
 0001:00022b30       ??0?$_Vector_const_iterator@V?$_Vector_val@U?$_Simple_types@PAD@std@@@std@@@std@@QAE@PAPADPBU_Container_base0@1@@Z 10023b30 f i UnicodeSupport.obj
 0001:00022b60       ??0?$_Vector_iterator@V?$_Vector_val@U?$_Simple_types@PAD@std@@@std@@@std@@QAE@PAPADPBU_Container_base0@1@@Z 10023b60 f i UnicodeSupport.obj
 0001:00022b80       ??0?$_Vector_val@U?$_Simple_types@PAD@std@@@std@@QAE@XZ 10023b80 f i UnicodeSupport.obj
 0001:00022bb0       ??0?$allocator@PAD@std@@QAE@XZ 10023bb0 f i UnicodeSupport.obj
 0001:00022bc0       ??0?$vector@PADV?$allocator@PAD@std@@@std@@QAE@XZ 10023bc0 f i UnicodeSupport.obj
 0001:00022bf0       ??0UnicodeSupport@@QAE@H@Z 10023bf0 f   UnicodeSupport.obj
 0001:00022de0       ??0UnicodeSupport@@QAE@PBDKKH@Z 10023de0 f   UnicodeSupport.obj
 0001:00023400       ??1?$_Uninitialized_backout_al@V?$allocator@PAD@std@@@std@@QAE@XZ 10024400 f i UnicodeSupport.obj
 0001:00023430       ??1?$vector@PADV?$allocator@PAD@std@@@std@@QAE@XZ 10024430 f i UnicodeSupport.obj
 0001:00023450       ??1UnicodeSupport@@QAE@XZ  10024450 f   UnicodeSupport.obj
 0001:000236a0       ??8?$_Vector_const_iterator@V?$_Vector_val@U?$_Simple_types@PAD@std@@@std@@@std@@QBE_NABV01@@Z 100246a0 f i UnicodeSupport.obj
 0001:000236e0       ??9?$_Vector_const_iterator@V?$_Vector_val@U?$_Simple_types@PAD@std@@@std@@@std@@QBE_NABV01@@Z 100246e0 f i UnicodeSupport.obj
 0001:00023720       ??D?$_Vector_const_iterator@V?$_Vector_val@U?$_Simple_types@PAD@std@@@std@@@std@@QBEABQADXZ 10024720 f i UnicodeSupport.obj
 0001:00023730       ??D?$_Vector_iterator@V?$_Vector_val@U?$_Simple_types@PAD@std@@@std@@@std@@QBEAAPADXZ 10024730 f i UnicodeSupport.obj
 0001:00023750       ??E?$_Vector_const_iterator@V?$_Vector_val@U?$_Simple_types@PAD@std@@@std@@@std@@QAEAAV01@XZ 10024750 f i UnicodeSupport.obj
 0001:00023770       ??E?$_Vector_iterator@V?$_Vector_val@U?$_Simple_types@PAD@std@@@std@@@std@@QAEAAV01@XZ 10024770 f i UnicodeSupport.obj
 0001:00023790       ?Blt@UnicodeSupport@@QAE_NPAUIDirectDrawSurface@@@Z 10024790 f   UnicodeSupport.obj
 0001:00023980       ?Blt_BottomState0_Text@@YGHPAUtagInlineX86StackBuffer@@@Z 10024980 f   UnicodeSupport.obj
 0001:00023ab0       ?Blt_BottomState1_Text@@YGHPAUtagInlineX86StackBuffer@@@Z 10024ab0 f   UnicodeSupport.obj
 0001:00023bd0       ?CopyToContextScreenMem@@YGXPAU_OFFSCREEN@@PAUtagSpecScreenSurface@@@Z 10024bd0 f   UnicodeSupport.obj
 0001:00023c50       ?CopyToSpecSurfaceMem@@YGXPAUtagSpecScreenSurface@@PAU_OFFSCREEN@@@Z 10024c50 f   UnicodeSupport.obj
 0001:00023cd0       ?CreateSurfaceFromContextScreen@UnicodeSupport@@QAEPAUIDirectDrawSurface@@PAU_OFFSCREEN@@PAUIDirectDraw@@PAPAU2@@Z 10024cd0 f   UnicodeSupport.obj
 0001:00023d90       ?DBSC2rdByte@@YGHPAUtagInlineX86StackBuffer@@@Z 10024d90 f   UnicodeSupport.obj
 0001:00023e30       ?DrawALine_Ime@UnicodeSupport@@AAEXPAUHDC__@@PADPAH2@Z 10024e30 f   UnicodeSupport.obj
 0001:00023ed0       ?DrawSeparator@UnicodeSupport@@AAEHPAUHDC__@@HPAH1PAUHBRUSH__@@@Z 10024ed0 f   UnicodeSupport.obj
 0001:00023f40       ?FreeSpecScreenSurface@UnicodeSupport@@AAEXPAUtagSpecScreenSurface@@@Z 10024f40 f   UnicodeSupport.obj
 0001:00024020       ?GetSpecScreenSurface@UnicodeSupport@@AAEPAUtagSpecScreenSurface@@PAU_OFFSCREEN@@@Z 10025020 f   UnicodeSupport.obj
 0001:000240f0       ?GetStrExtent@@YGHPAUtagInlineX86StackBuffer@@@Z 100250f0 f   UnicodeSupport.obj
 0001:00024150       ?GetTextExtent_AssignCharLen@@YGHPAUtagInlineX86StackBuffer@@@Z 10025150 f   UnicodeSupport.obj
 0001:000241b0       ?IsIDDrawLost@UnicodeSupport@@AAEHXZ 100251b0 f   UnicodeSupport.obj
 0001:000241e0       ?Message@UnicodeSupport@@QAE_NPAUHWND__@@IIJ@Z 100251e0 f   UnicodeSupport.obj
 0001:00024700       ?NewSpecScreenSurface@UnicodeSupport@@AAEPAUtagSpecScreenSurface@@PAU_OFFSCREEN@@@Z 10025700 f   UnicodeSupport.obj
 0001:000247f0       ?PopadState@@YGHPAUtagInlineX86StackBuffer@@@Z 100257f0 f   UnicodeSupport.obj
 0001:00024890       ?ReleaseCandidateList@UnicodeSupport@@AAEXXZ 10025890 f   UnicodeSupport.obj
 0001:00024910       ?RestoreLocalSurf@UnicodeSupport@@AAEXH@Z 10025910 f   UnicodeSupport.obj
 0001:00024a10       ?SendStr@UnicodeSupport@@AAEXPAD@Z 10025a10 f   UnicodeSupport.obj
 0001:00024a60       ?Set@UnicodeSupport@@QAEXH@Z 10025a60 f   UnicodeSupport.obj
 0001:00024a80       ?SetHDCFont@UnicodeSupport@@AAEXPAUHDC__@@PAUHFONT__@@@Z 10025a80 f   UnicodeSupport.obj
 0001:00024ac0       ?USDrawTextInScreen_HookRouter@@YGHPAUtagInlineX86StackBuffer@@@Z 10025ac0 f   UnicodeSupport.obj
 0001:00024bf0       ?UnicodeDrawTextA@UnicodeSupport@@QAEHPAU_OFFSCREEN@@PADPAUIDirectDraw@@HH@Z 10025bf0 f   UnicodeSupport.obj
 0001:00024ee0       ?UpdateImeFrame@UnicodeSupport@@AAE_NXZ 10025ee0 f   UnicodeSupport.obj
 0001:000252f0       ?UpdateImeInput@UnicodeSupport@@AAE_NXZ 100262f0 f   UnicodeSupport.obj
 0001:00025520       ?_Calculate_growth@?$vector@PADV?$allocator@PAD@std@@@std@@ABEII@Z 10026520 f i UnicodeSupport.obj
 0001:00025580       ?_Change_array@?$vector@PADV?$allocator@PAD@std@@@std@@AAEXQAPADII@Z 10026580 f i UnicodeSupport.obj
 0001:00025620       ?_Compat@?$_Vector_const_iterator@V?$_Vector_val@U?$_Simple_types@PAD@std@@@std@@@std@@QBEXABV12@@Z 10026620 f i UnicodeSupport.obj
 0001:00025630       ?_Get_first@?$_Compressed_pair@V?$allocator@PAD@std@@V?$_Vector_val@U?$_Simple_types@PAD@std@@@2@$00@std@@QAEAAV?$allocator@PAD@2@XZ 10026630 f i UnicodeSupport.obj
 0001:00025640       ?_Get_first@?$_Compressed_pair@V?$allocator@PAD@std@@V?$_Vector_val@U?$_Simple_types@PAD@std@@@2@$00@std@@QBEABV?$allocator@PAD@2@XZ 10026640 f i UnicodeSupport.obj
 0001:00025650       ?_Getal@?$vector@PADV?$allocator@PAD@std@@@std@@AAEAAV?$allocator@PAD@2@XZ 10026650 f i UnicodeSupport.obj
 0001:00025670       ?_Getal@?$vector@PADV?$allocator@PAD@std@@@std@@ABEABV?$allocator@PAD@2@XZ 10026670 f i UnicodeSupport.obj
 0001:00025690       ?_Orphan_range@?$vector@PADV?$allocator@PAD@std@@@std@@ABEXPAPAD0@Z 10026690 f i UnicodeSupport.obj
 0001:000256a0       ?_Release@?$_Uninitialized_backout_al@V?$allocator@PAD@std@@@std@@QAEPAPADXZ 100266a0 f i UnicodeSupport.obj
 0001:000256c0       ?_Tidy@?$vector@PADV?$allocator@PAD@std@@@std@@AAEXXZ 100266c0 f i UnicodeSupport.obj
 0001:00025790       ?_Xlength@?$vector@PADV?$allocator@PAD@std@@@std@@CGXXZ 10026790 f i UnicodeSupport.obj
 0001:000257a0       ?allocate@?$allocator@PAD@std@@QAEPAPADI@Z 100267a0 f i UnicodeSupport.obj
 0001:000257c0       ?back@?$vector@PADV?$allocator@PAD@std@@@std@@QAEAAPADXZ 100267c0 f i UnicodeSupport.obj
 0001:000257f0       ?begin@?$vector@PADV?$allocator@PAD@std@@@std@@QAE?AV?$_Vector_iterator@V?$_Vector_val@U?$_Simple_types@PAD@std@@@std@@@2@XZ 100267f0 f i UnicodeSupport.obj
 0001:00025820       ?capacity@?$vector@PADV?$allocator@PAD@std@@@std@@QBEIXZ 10026820 f i UnicodeSupport.obj
 0001:00025850       ?deallocate@?$allocator@PAD@std@@QAEXQAPADI@Z 10026850 f i UnicodeSupport.obj
 0001:00025870       ?empty@?$vector@PADV?$allocator@PAD@std@@@std@@QBE_NXZ 10026870 f i UnicodeSupport.obj
 0001:000258b0       ?end@?$vector@PADV?$allocator@PAD@std@@@std@@QAE?AV?$_Vector_iterator@V?$_Vector_val@U?$_Simple_types@PAD@std@@@std@@@2@XZ 100268b0 f i UnicodeSupport.obj
 0001:000258f0       ?freelpImeSurface@UnicodeSupport@@AAEXXZ 100268f0 f   UnicodeSupport.obj
 0001:00025980       ?max_size@?$_Default_allocator_traits@V?$allocator@PAD@std@@@std@@SGIABV?$allocator@PAD@2@@Z 10026980 f i UnicodeSupport.obj
 0001:00025990       ?max_size@?$vector@PADV?$allocator@PAD@std@@@std@@QBEIXZ 10026990 f i UnicodeSupport.obj
 0001:000259d0       ?myDeleteChar@@YGHPAUtagInlineX86StackBuffer@@@Z 100269d0 f   UnicodeSupport.obj
 0001:00025ab0       ?myValidChar@@YGHPAUtagInlineX86StackBuffer@@@Z 10026ab0 f   UnicodeSupport.obj
 0001:00025c10       ?pop_back@?$vector@PADV?$allocator@PAD@std@@@std@@QAEXXZ 10026c10 f i UnicodeSupport.obj
 0001:00025ca0       ?push_back@?$vector@PADV?$allocator@PAD@std@@@std@@QAEX$$QAPAD@Z 10026ca0 f i UnicodeSupport.obj
 0001:00025dd0       ??0IncreaseAISearchMapEntriesLimit@@QAE@K@Z 10026dd0 f   LimitCrack.obj
 0001:00025e80       ??0IncreaseAISearchMapEntriesLimit@@QAE@XZ 10026e80 f   LimitCrack.obj
 0001:00025f20       ??0IncreaseCompositeBuf@@QAE@KK@Z 10026f20 f   LimitCrack.obj
 0001:00025f40       ??0IncreaseCompositeBuf@@QAE@XZ 10026f40 f   LimitCrack.obj
 0001:00025f60       ??0IncreaseSfxLimit@@QAE@K@Z 10026f60 f   LimitCrack.obj
 0001:00025f90       ??0IncreaseSfxLimit@@QAE@XZ 10026f90 f   LimitCrack.obj
 0001:00025fb0       ??0IncreaseUnitTypeLimit@@QAE@H@Z 10026fb0 f   LimitCrack.obj
 0001:00025fd0       ??0IncreaseUnitTypeLimit@@QAE@XZ 10026fd0 f   LimitCrack.obj
 0001:00025ff0       ??0IncreaseWeaponTypeLimit@@QAE@K@Z 10026ff0 f   LimitCrack.obj
 0001:00026010       ??0IncreaseWeaponTypeLimit@@QAE@XZ 10027010 f   LimitCrack.obj
 0001:00026030       ??0LimitCrack@@QAE@XZ      10027030 f   LimitCrack.obj
 0001:00026320       ??0UnitLimit@@QAE@K@Z      10027320 f   LimitCrack.obj
 0001:00026370       ??0UnitLimit@@QAE@XZ       10027370 f   LimitCrack.obj
 0001:000263b0       ??1IncreaseAISearchMapEntriesLimit@@QAE@XZ 100273b0 f   LimitCrack.obj
 0001:000263f0       ??1IncreaseCompositeBuf@@QAE@XZ 100273f0 f   LimitCrack.obj
 0001:00026430       ??1IncreaseSfxLimit@@QAE@XZ 10027430 f   LimitCrack.obj
 0001:000264c0       ??1IncreaseUnitTypeLimit@@QAE@XZ 100274c0 f   LimitCrack.obj
 0001:000266d0       ??1IncreaseWeaponTypeLimit@@QAE@XZ 100276d0 f   LimitCrack.obj
 0001:00026860       ??1LimitCrack@@QAE@XZ      10027860 f   LimitCrack.obj
 0001:00026970       ??1UnitLimit@@QAE@XZ       10027970 f   LimitCrack.obj
 0001:00026a60       ??_GExternHotKey@@QAEPAXI@Z 10027a60 f i LimitCrack.obj
 0001:00026aa0       ??_GIncreaseAISearchMapEntriesLimit@@QAEPAXI@Z 10027aa0 f i LimitCrack.obj
 0001:00026ad0       ??_GIncreaseCompositeBuf@@QAEPAXI@Z 10027ad0 f i LimitCrack.obj
 0001:00026b00       ??_GIncreaseSfxLimit@@QAEPAXI@Z 10027b00 f i LimitCrack.obj
 0001:00026b30       ??_GIncreaseUnitTypeLimit@@QAEPAXI@Z 10027b30 f i LimitCrack.obj
 0001:00026b60       ??_GIncreaseWeaponTypeLimit@@QAEPAXI@Z 10027b60 f i LimitCrack.obj
 0001:00026ba0       ??_GModifyWeaponPacket@@QAEPAXI@Z 10027ba0 f i LimitCrack.obj
 0001:00026bd0       ?NewLimit@IncreaseWeaponTypeLimit@@AAEXK@Z 10027bd0 f   LimitCrack.obj
 0001:00026d40       ?NewUnitLimit@UnitLimit@@AAEXK@Z 10027d40 f   LimitCrack.obj
 0001:00026ed0       ?SetNewLimit@IncreaseSfxLimit@@AAEXKK@Z 10027ed0 f   LimitCrack.obj
 0001:00027020       ?Sfx_mallocBufSizeRouter@@YGHPAUtagInlineX86StackBuffer@@@Z 10028020 f   LimitCrack.obj
 0001:00027040       ?WeaponType_IdLimit@IncreaseWeaponTypeLimit@@AAEXXZ 10028040 f   LimitCrack.obj
 0001:00027170       ?WriteNewLimit@IncreaseCompositeBuf@@AAEXKK@Z 10028170 f   LimitCrack.obj
 0001:00027270       ?WriteNewLimit@IncreaseUnitTypeLimit@@AAEXK@Z 10028270 f   LimitCrack.obj
 0001:00027a00       ?WriteWeaponAryLen@IncreaseWeaponTypeLimit@@AAEKK@Z 10028a00 f   LimitCrack.obj
 0001:00027ad0       ?WriteWeaponAryPtr@IncreaseWeaponTypeLimit@@AAEPAXPAPAX@Z 10028ad0 f   LimitCrack.obj
 0001:00027c40       ??0UnitsMinimap@@QAE@PAVFullScreenMinimap@@HHHHHHHHHHHHHHHHPAH@Z 10028c40 f   UnitMinimap.obj
 0001:00027cb0       ??0UnitsMinimap@@QAE@PAVFullScreenMinimap@@HHHHHHHHHHHHHHPAH@Z 10028cb0 f   UnitMinimap.obj
 0001:00027d20       ??1UnitsMinimap@@QAE@XZ    10028d20 f   UnitMinimap.obj
 0001:00027d70       ??_GUnitIcon@@QAEPAXI@Z    10028d70 f i UnitMinimap.obj
 0001:00027da0       ?DrawUnit@UnitsMinimap@@AAEXPAEPAUtagPOINT@@PAUUnitStruct@@@Z 10028da0 f   UnitMinimap.obj
 0001:00028750       ?FreeUnitPicture@UnitsMinimap@@QAEXXZ 10029750 f   UnitMinimap.obj
 0001:00028a50       ?GetSurface@UnitsMinimap@@QAEPAEXZ 10029a50 f   UnitMinimap.obj
 0001:00028a60       ?GetTransparentColor@UnitsMinimap@@QAEHXZ 10029a60 f   UnitMinimap.obj
 0001:00028a80       ?Init@UnitsMinimap@@QAEXHHHHHHHHHHHHHHPAH@Z 10029a80 f   UnitMinimap.obj
 0001:00028e70       ?InitHoverPicturePlayerColors@UnitsMinimap@@AAEXHHHHPAPAPAE@Z 10029e70 f   UnitMinimap.obj
 0001:00029020       ?InitPicturePlayerColors@UnitsMinimap@@AAEXHHPAPAPAE@Z 1002a020 f   UnitMinimap.obj
 0001:000291c0       ?InitSurface@UnitsMinimap@@QAEPAEPAUIDirectDraw@@H@Z 1002a1c0 f   UnitMinimap.obj
 0001:000292b0       ?InitUnSelectedPicturePlayerColors@UnitsMinimap@@AAEXHHHHPAPAPAE@Z 1002a2b0 f   UnitMinimap.obj
 0001:00029460       ?LoadUnitPicture@UnitsMinimap@@QAEXXZ 1002a460 f   UnitMinimap.obj
 0001:0002a930       ?LockOn@UnitsMinimap@@QAEPAEPAPAEPAUtagPOINT@@@Z 1002b930 f   UnitMinimap.obj
 0001:0002a970       ?NowDrawUnits@UnitsMinimap@@QAEXPAEPAUtagPOINT@@@Z 1002b970 f   UnitMinimap.obj
 0001:0002aad0       ?NukePicture@UnitsMinimap@@QAEPAEHPAPAEPAUtagPOINT@@@Z 1002bad0 f   UnitMinimap.obj
 0001:0002abc0       ?ReSet@UnitsMinimap@@QAEXHH@Z 1002bbc0 f   UnitMinimap.obj
 0001:0002ac10       ?ReleaseSurface@UnitsMinimap@@QAEXXZ 1002bc10 f   UnitMinimap.obj
 0001:0002ac40       ?UnitPicture@UnitsMinimap@@QAEPAEPAUUnitStruct@@HPAPAEPAUtagPOINT@@@Z 1002bc40 f   UnitMinimap.obj
 0001:0002b480       ?Unlock@UnitsMinimap@@QAEXPAE@Z 1002c480 f   UnitMinimap.obj
 0001:0002b490       ??0CUnitRotate@@QAE@XZ     1002c490 f   unitrotate.obj
 0001:0002b4b0       ??1CUnitRotate@@QAE@XZ     1002c4b0 f   unitrotate.obj
 0001:0002b4c0       ?Message@CUnitRotate@@QAE_NPAUHWND__@@IIJ@Z 1002c4c0 f   unitrotate.obj
 0001:0002b510       ?Rotate@CUnitRotate@@AAEXXZ 1002c510 f   unitrotate.obj
 0001:0002b720       ?SetMem@CUnitRotate@@AAEXXZ 1002c720 f   unitrotate.obj
 0001:0002b780       ??$?0$$V@?$_Compressed_pair@V?$allocator@PAVGraphicElement@@@std@@V?$_Deque_val@U?$_Deque_simple_types@PAVGraphicElement@@@std@@@2@$00@std@@QAE@U_Zero_then_variadic_args_t@1@@Z 1002c780 f i whiteboard.obj
 0001:0002b7a0       ??$?0$$V@?$_Compressed_pair@V?$allocator@PAVGraphicElement@@@std@@V?$_Vector_val@U?$_Simple_types@PAVGraphicElement@@@std@@@2@$00@std@@QAE@U_Zero_then_variadic_args_t@1@@Z 1002c7a0 f i whiteboard.obj
 0001:0002b7c0       ??$?0$$V@?$_Compressed_pair@V?$allocator@UMMHS@AlliesWhiteboard@@@std@@V?$_Deque_val@U?$_Deque_simple_types@UMMHS@AlliesWhiteboard@@@std@@@2@$00@std@@QAE@U_Zero_then_variadic_args_t@1@@Z 1002c7c0 f i whiteboard.obj
 0001:0002b7e0       ??$?0PAVGraphicElement@@@?$allocator@PAPAVGraphicElement@@@std@@QAE@ABV?$allocator@PAVGraphicElement@@@1@@Z 1002c7e0 f i whiteboard.obj
 0001:0002b7f0       ??$?0PAVGraphicElement@@@?$allocator@U_Container_proxy@std@@@std@@QAE@ABV?$allocator@PAVGraphicElement@@@1@@Z 1002c7f0 f i whiteboard.obj
 0001:0002b800       ??$?0UMMHS@AlliesWhiteboard@@@?$allocator@PAUMMHS@AlliesWhiteboard@@@std@@QAE@ABV?$allocator@UMMHS@AlliesWhiteboard@@@1@@Z 1002c800 f i whiteboard.obj
 0001:0002b810       ??$?0UMMHS@AlliesWhiteboard@@@?$allocator@U_Container_proxy@std@@@std@@QAE@ABV?$allocator@UMMHS@AlliesWhiteboard@@@1@@Z 1002c810 f i whiteboard.obj
 0001:0002b820       ??$_Adl_verify_range@PAPAPAVGraphicElement@@PAPAPAV1@@std@@YGXABQAPAPAVGraphicElement@@0@Z 1002c820 f i whiteboard.obj
 0001:0002b830       ??$_Adl_verify_range@PAPAUMMHS@AlliesWhiteboard@@PAPAU12@@std@@YGXABQAPAUMMHS@AlliesWhiteboard@@0@Z 1002c830 f i whiteboard.obj
 0001:0002b840       ??$_Construct_in_place@PAPAVGraphicElement@@AAPAPAV1@@std@@YGXAAPAPAVGraphicElement@@0@Z 1002c840 f i whiteboard.obj
 0001:0002b880       ??$_Construct_in_place@PAUMMHS@AlliesWhiteboard@@AAPAU12@@std@@YGXAAPAUMMHS@AlliesWhiteboard@@0@Z 1002c880 f i whiteboard.obj
 0001:0002b8c0       ??$_Copy_memmove@PAPAPAVGraphicElement@@PAPAPAV1@@std@@YGPAPAPAVGraphicElement@@PAPAPAV1@00@Z 1002c8c0 f i whiteboard.obj
 0001:0002b930       ??$_Copy_memmove@PAPAUMMHS@AlliesWhiteboard@@PAPAU12@@std@@YGPAPAUMMHS@AlliesWhiteboard@@PAPAU12@00@Z 1002c930 f i whiteboard.obj
 0001:0002b9a0       ??$_Destroy_in_place@PAPAVGraphicElement@@@std@@YGXAAPAPAVGraphicElement@@@Z 1002c9a0 f i whiteboard.obj
 0001:0002b9b0       ??$_Destroy_in_place@PAUMMHS@AlliesWhiteboard@@@std@@YGXAAPAUMMHS@AlliesWhiteboard@@@Z 1002c9b0 f i whiteboard.obj
 0001:0002b9c0       ??$_Destroy_range@PAPAPAVGraphicElement@@PAPAPAV1@@std@@YGXPAPAPAVGraphicElement@@QAPAPAV1@@Z 1002c9c0 f i whiteboard.obj
 0001:0002b9d0       ??$_Destroy_range@PAPAUMMHS@AlliesWhiteboard@@PAPAU12@@std@@YGXPAPAUMMHS@AlliesWhiteboard@@QAPAU12@@Z 1002c9d0 f i whiteboard.obj
 0001:0002b9e0       ??$_Destroy_range@V?$allocator@PAVGraphicElement@@@std@@@std@@YGXPAPAVGraphicElement@@QAPAV1@AAV?$allocator@PAVGraphicElement@@@0@@Z 1002c9e0 f i whiteboard.obj
 0001:0002b9f0       ??$_Emplace_back@AAPAPAVGraphicElement@@@?$_Uninitialized_backout@PAPAPAVGraphicElement@@@std@@QAEXAAPAPAVGraphicElement@@@Z 1002c9f0 f i whiteboard.obj
 0001:0002ba30       ??$_Emplace_back@AAPAUMMHS@AlliesWhiteboard@@@?$_Uninitialized_backout@PAPAUMMHS@AlliesWhiteboard@@@std@@QAEXAAPAUMMHS@AlliesWhiteboard@@@Z 1002ca30 f i whiteboard.obj
 0001:0002ba70       ??$_Emplace_back_internal@PAVGraphicElement@@@?$deque@PAVGraphicElement@@V?$allocator@PAVGraphicElement@@@std@@@std@@AAEX$$QAPAVGraphicElement@@@Z 1002ca70 f i whiteboard.obj
 0001:0002bbb0       ??$_Get_unwrapped@ABQAPAPAVGraphicElement@@@std@@YG?A_TABQAPAPAVGraphicElement@@@Z 1002cbb0 f i whiteboard.obj
 0001:0002bbc0       ??$_Get_unwrapped@ABQAPAUMMHS@AlliesWhiteboard@@@std@@YG?A_TABQAPAUMMHS@AlliesWhiteboard@@@Z 1002cbc0 f i whiteboard.obj
 0001:0002bbd0       ??$_Get_unwrapped_n@AAPAPAPAVGraphicElement@@H@std@@YG?A_TAAPAPAPAVGraphicElement@@H@Z 1002cbd0 f i whiteboard.obj
 0001:0002bbe0       ??$_Get_unwrapped_n@AAPAPAUMMHS@AlliesWhiteboard@@H@std@@YG?A_TAAPAPAUMMHS@AlliesWhiteboard@@H@Z 1002cbe0 f i whiteboard.obj
 0001:0002bbf0       ??$_Idl_distance@PAPAPAVGraphicElement@@PAPAPAV1@@std@@YG?A_PABQAPAPAVGraphicElement@@0@Z 1002cbf0 f i whiteboard.obj
 0001:0002bc10       ??$_Idl_distance@PAPAUMMHS@AlliesWhiteboard@@PAPAU12@@std@@YG?A_PABQAPAUMMHS@AlliesWhiteboard@@0@Z 1002cc10 f i whiteboard.obj
 0001:0002bc30       ??$_Pocma@V?$allocator@PAVGraphicElement@@@std@@@std@@YGXAAV?$allocator@PAVGraphicElement@@@0@0@Z 1002cc30 f i whiteboard.obj
 0001:0002bc40       ??$_Prev_iter@V?$_Deque_unchecked_iterator@V?$_Deque_val@U?$_Deque_simple_types@UMMHS@AlliesWhiteboard@@@std@@@std@@@std@@@std@@YG?AV?$_Deque_unchecked_iterator@V?$_Deque_val@U?$_Deque_simple_types@UMMHS@AlliesWhiteboard@@@std@@@std@@@0@V10@@Z 1002cc40 f i whiteboard.obj
 0001:0002bc60       ??$_Seek_wrapped@PAPAPAVGraphicElement@@PAPAPAV1@@std@@YGXAAPAPAPAVGraphicElement@@$$QAPAPAPAV1@@Z 1002cc60 f i whiteboard.obj
 0001:0002bc80       ??$_Seek_wrapped@PAPAUMMHS@AlliesWhiteboard@@PAPAU12@@std@@YGXAAPAPAUMMHS@AlliesWhiteboard@@$$QAPAPAU12@@Z 1002cc80 f i whiteboard.obj
 0001:0002bca0       ??$_To_address@PAPAPAVGraphicElement@@@std@@YG?A_PABQAPAPAVGraphicElement@@@Z 1002cca0 f i whiteboard.obj
 0001:0002bcb0       ??$_To_address@PAPAUMMHS@AlliesWhiteboard@@@std@@YG?A_PABQAPAUMMHS@AlliesWhiteboard@@@Z 1002ccb0 f i whiteboard.obj
 0001:0002bcc0       ??$_Unfancy@PAVGraphicElement@@@std@@YGPAPAVGraphicElement@@PAPAV1@@Z 1002ccc0 f i whiteboard.obj
 0001:0002bcd0       ??$_Unfancy@UMMHS@AlliesWhiteboard@@@std@@YGPAUMMHS@AlliesWhiteboard@@PAU12@@Z 1002ccd0 f i whiteboard.obj
 0001:0002bce0       ??$_Uninitialized_copy_unchecked@PAPAPAVGraphicElement@@PAPAPAV1@@std@@YGPAPAPAVGraphicElement@@PAPAPAV1@QAPAPAV1@0@Z 1002cce0 f i whiteboard.obj
 0001:0002bd80       ??$_Uninitialized_copy_unchecked@PAPAUMMHS@AlliesWhiteboard@@PAPAU12@@std@@YGPAPAUMMHS@AlliesWhiteboard@@PAPAU12@QAPAU12@0@Z 1002cd80 f i whiteboard.obj
 0001:0002be20       ??$_Uninitialized_value_construct_n_unchecked1@PAPAPAVGraphicElement@@I@std@@YGPAPAPAVGraphicElement@@PAPAPAV1@I@Z 1002ce20 f i whiteboard.obj
 0001:0002be40       ??$_Uninitialized_value_construct_n_unchecked1@PAPAUMMHS@AlliesWhiteboard@@I@std@@YGPAPAUMMHS@AlliesWhiteboard@@PAPAU12@I@Z 1002ce40 f i whiteboard.obj
 0001:0002be60       ??$_Voidify_iter@PAPAPAVGraphicElement@@@std@@YGPAXPAPAPAVGraphicElement@@@Z 1002ce60 f i whiteboard.obj
 0001:0002be70       ??$_Voidify_iter@PAPAUMMHS@AlliesWhiteboard@@@std@@YGPAXPAPAUMMHS@AlliesWhiteboard@@@Z 1002ce70 f i whiteboard.obj
 0001:0002be80       ??$_Voidify_iter@PAPAVGraphicElement@@@std@@YGPAXPAPAVGraphicElement@@@Z 1002ce80 f i whiteboard.obj
 0001:0002be90       ??$_Voidify_iter@PAUMMHS@AlliesWhiteboard@@@std@@YGPAXPAUMMHS@AlliesWhiteboard@@@Z 1002ce90 f i whiteboard.obj
 0001:0002bea0       ??$_Zero_range@PAPAPAVGraphicElement@@@std@@YGPAPAPAVGraphicElement@@QAPAPAV1@0@Z 1002cea0 f i whiteboard.obj
 0001:0002bee0       ??$_Zero_range@PAPAUMMHS@AlliesWhiteboard@@@std@@YGPAPAUMMHS@AlliesWhiteboard@@QAPAU12@0@Z 1002cee0 f i whiteboard.obj
 0001:0002bf20       ??$addressof@PAPAVGraphicElement@@@std@@YGPAPAPAVGraphicElement@@AAPAPAV1@@Z 1002cf20 f i whiteboard.obj
 0001:0002bf30       ??$addressof@PAUMMHS@AlliesWhiteboard@@@std@@YGPAPAUMMHS@AlliesWhiteboard@@AAPAU12@@Z 1002cf30 f i whiteboard.obj
 0001:0002bf40       ??$addressof@V?$_Deque_val@U?$_Deque_simple_types@PAVGraphicElement@@@std@@@std@@@std@@YGPAV?$_Deque_val@U?$_Deque_simple_types@PAVGraphicElement@@@std@@@0@AAV10@@Z 1002cf40 f i whiteboard.obj
 0001:0002bf50       ??$addressof@V?$_Deque_val@U?$_Deque_simple_types@UMMHS@AlliesWhiteboard@@@std@@@std@@@std@@YGPAV?$_Deque_val@U?$_Deque_simple_types@UMMHS@AlliesWhiteboard@@@std@@@0@AAV10@@Z 1002cf50 f i whiteboard.obj
 0001:0002bf60       ??$addressof@V?$vector@PAVGraphicElement@@V?$allocator@PAVGraphicElement@@@std@@@std@@@std@@YGPAV?$vector@PAVGraphicElement@@V?$allocator@PAVGraphicElement@@@std@@@0@AAV10@@Z 1002cf60 f i whiteboard.obj
 0001:0002bf70       ??$construct@PAVGraphicElement@@PAV1@@?$_Default_allocator_traits@V?$allocator@PAVGraphicElement@@@std@@@std@@SGXAAV?$allocator@PAVGraphicElement@@@1@QAPAVGraphicElement@@$$QAPAV3@@Z 1002cf70 f i whiteboard.obj
 0001:0002bfb0       ??$construct@UMMHS@AlliesWhiteboard@@ABU12@@?$_Default_allocator_traits@V?$allocator@UMMHS@AlliesWhiteboard@@@std@@@std@@SGXAAV?$allocator@UMMHS@AlliesWhiteboard@@@1@QAUMMHS@AlliesWhiteboard@@ABU34@@Z 1002cfb0 f i whiteboard.obj
 0001:0002bff0       ??$destroy@PAVGraphicElement@@@?$_Default_allocator_traits@V?$allocator@PAVGraphicElement@@@std@@@std@@SGXAAV?$allocator@PAVGraphicElement@@@1@QAPAVGraphicElement@@@Z 1002cff0 f i whiteboard.obj
 0001:0002c000       ??$destroy@UMMHS@AlliesWhiteboard@@@?$_Default_allocator_traits@V?$allocator@UMMHS@AlliesWhiteboard@@@std@@@std@@SGXAAV?$allocator@UMMHS@AlliesWhiteboard@@@1@QAUMMHS@AlliesWhiteboard@@@Z 1002d000 f i whiteboard.obj
 0001:0002c010       ??$emplace_front@ABUMMHS@AlliesWhiteboard@@@?$deque@UMMHS@AlliesWhiteboard@@V?$allocator@UMMHS@AlliesWhiteboard@@@std@@@std@@QAE?A_TABUMMHS@AlliesWhiteboard@@@Z 1002d010 f i whiteboard.obj
 0001:0002c170       ??$forward@AAPAPAVGraphicElement@@@std@@YGAAPAPAVGraphicElement@@AAPAPAV1@@Z 1002d170 f i whiteboard.obj
 0001:0002c180       ??$forward@AAPAUMMHS@AlliesWhiteboard@@@std@@YGAAPAUMMHS@AlliesWhiteboard@@AAPAU12@@Z 1002d180 f i whiteboard.obj
 0001:0002c190       ??$forward@ABUMMHS@AlliesWhiteboard@@@std@@YGABUMMHS@AlliesWhiteboard@@ABU12@@Z 1002d190 f i whiteboard.obj
 0001:0002c1a0       ??$forward@PAPAPAVGraphicElement@@@std@@YG$$QAPAPAPAVGraphicElement@@AAPAPAPAV1@@Z 1002d1a0 f i whiteboard.obj
 0001:0002c1b0       ??$forward@PAPAUMMHS@AlliesWhiteboard@@@std@@YG$$QAPAPAUMMHS@AlliesWhiteboard@@AAPAPAU12@@Z 1002d1b0 f i whiteboard.obj
 0001:0002c1c0       ??$forward@PAVGraphicElement@@@std@@YG$$QAPAVGraphicElement@@AAPAV1@@Z 1002d1c0 f i whiteboard.obj
 0001:0002c1d0       ??$move@AAPAVGraphicElement@@@std@@YG$$QAPAVGraphicElement@@AAPAV1@@Z 1002d1d0 f i whiteboard.obj
 0001:0002c1e0       ??$move@AAV?$allocator@PAVGraphicElement@@@std@@@std@@YG$$QAV?$allocator@PAVGraphicElement@@@0@AAV10@@Z 1002d1e0 f i whiteboard.obj
 0001:0002c1f0       ??$uninitialized_copy@PAPAPAVGraphicElement@@PAPAPAV1@@std@@YGPAPAPAVGraphicElement@@QAPAPAV1@0PAPAPAV1@@Z 1002d1f0 f i whiteboard.obj
 0001:0002c260       ??$uninitialized_copy@PAPAUMMHS@AlliesWhiteboard@@PAPAU12@@std@@YGPAPAUMMHS@AlliesWhiteboard@@QAPAU12@0PAPAU12@@Z 1002d260 f i whiteboard.obj
 0001:0002c2d0       ??0?$_Deque_unchecked_const_iterator@V?$_Deque_val@U?$_Deque_simple_types@PAVGraphicElement@@@std@@@std@@@std@@QAE@IPBU_Container_base12@1@@Z 1002d2d0 f i whiteboard.obj
 0001:0002c300       ??0?$_Deque_unchecked_const_iterator@V?$_Deque_val@U?$_Deque_simple_types@UMMHS@AlliesWhiteboard@@@std@@@std@@@std@@QAE@IPBU_Container_base12@1@@Z 1002d300 f i whiteboard.obj
 0001:0002c330       ??0?$_Deque_unchecked_iterator@V?$_Deque_val@U?$_Deque_simple_types@PAVGraphicElement@@@std@@@std@@@std@@QAE@IPBU_Container_base12@1@@Z 1002d330 f i whiteboard.obj
 0001:0002c350       ??0?$_Deque_unchecked_iterator@V?$_Deque_val@U?$_Deque_simple_types@UMMHS@AlliesWhiteboard@@@std@@@std@@@std@@QAE@IPBU_Container_base12@1@@Z 1002d350 f i whiteboard.obj
 0001:0002c370       ??0?$_Deque_val@U?$_Deque_simple_types@PAVGraphicElement@@@std@@@std@@QAE@XZ 1002d370 f i whiteboard.obj
 0001:0002c3b0       ??0?$_Deque_val@U?$_Deque_simple_types@UMMHS@AlliesWhiteboard@@@std@@@std@@QAE@XZ 1002d3b0 f i whiteboard.obj
 0001:0002c3f0       ??0?$_Uninitialized_backout@PAPAPAVGraphicElement@@@std@@QAE@PAPAPAVGraphicElement@@@Z 1002d3f0 f i whiteboard.obj
 0001:0002c420       ??0?$_Uninitialized_backout@PAPAUMMHS@AlliesWhiteboard@@@std@@QAE@PAPAUMMHS@AlliesWhiteboard@@@Z 1002d420 f i whiteboard.obj
 0001:0002c450       ??0?$_Vector_val@U?$_Simple_types@PAVGraphicElement@@@std@@@std@@QAE@XZ 1002d450 f i whiteboard.obj
 0001:0002c480       ??0?$allocator@PAVGraphicElement@@@std@@QAE@XZ 1002d480 f i whiteboard.obj
 0001:0002c490       ??0?$allocator@UMMHS@AlliesWhiteboard@@@std@@QAE@XZ 1002d490 f i whiteboard.obj
 0001:0002c4a0       ??0?$deque@PAVGraphicElement@@V?$allocator@PAVGraphicElement@@@std@@@std@@QAE@XZ 1002d4a0 f i whiteboard.obj
 0001:0002c4e0       ??0?$deque@UMMHS@AlliesWhiteboard@@V?$allocator@UMMHS@AlliesWhiteboard@@@std@@@std@@QAE@XZ 1002d4e0 f i whiteboard.obj
 0001:0002c520       ??0?$vector@PAVGraphicElement@@V?$allocator@PAVGraphicElement@@@std@@@std@@QAE@XZ 1002d520 f i whiteboard.obj
 0001:0002c550       ??0AlliesWhiteboard@@QAE@H@Z 1002d550 f   whiteboard.obj
 0001:0002caf0       ??0DeleteGraphic@@QAE@HHD@Z 1002daf0 f i whiteboard.obj
 0001:0002cb20       ??0GraphicElement@@QAE@HHHD@Z 1002db20 f i whiteboard.obj
 0001:0002cb60       ??0GraphicLine@@QAE@HHHHD@Z 1002db60 f i whiteboard.obj
 0001:0002cbb0       ??0GraphicText@@QAE@HHPADD@Z 1002dbb0 f i whiteboard.obj
 0001:0002cc60       ??0GraphicTextEdited@@QAE@HHPADD@Z 1002dc60 f i whiteboard.obj
 0001:0002cd10       ??1?$_Uninitialized_backout@PAPAPAVGraphicElement@@@std@@QAE@XZ 1002dd10 f i whiteboard.obj
 0001:0002cd30       ??1?$_Uninitialized_backout@PAPAUMMHS@AlliesWhiteboard@@@std@@QAE@XZ 1002dd30 f i whiteboard.obj
 0001:0002cd50       ??1?$deque@PAVGraphicElement@@V?$allocator@PAVGraphicElement@@@std@@@std@@QAE@XZ 1002dd50 f i whiteboard.obj
 0001:0002cda0       ??1?$deque@UMMHS@AlliesWhiteboard@@V?$allocator@UMMHS@AlliesWhiteboard@@@std@@@std@@QAE@XZ 1002dda0 f i whiteboard.obj
 0001:0002cdf0       ??1?$vector@PAVGraphicElement@@V?$allocator@PAVGraphicElement@@@std@@@std@@QAE@XZ 1002ddf0 f i whiteboard.obj
 0001:0002ce10       ??1AlliesWhiteboard@@QAE@XZ 1002de10 f   whiteboard.obj
 0001:0002cee0       ??1DeleteGraphic@@UAE@XZ   1002dee0 f i whiteboard.obj
 0001:0002cf00       ??1GraphicElement@@UAE@XZ  1002df00 f i whiteboard.obj
 0001:0002cf20       ??1GraphicLine@@UAE@XZ     1002df20 f i whiteboard.obj
 0001:0002cf40       ??1GraphicText@@UAE@XZ     1002df40 f i whiteboard.obj
 0001:0002cf80       ??1GraphicTextEdited@@UAE@XZ 1002df80 f i whiteboard.obj
 0001:0002cfc0       ??4?$vector@PAVGraphicElement@@V?$allocator@PAVGraphicElement@@@std@@@std@@QAEAAV01@$$QAV01@@Z 1002dfc0 f i whiteboard.obj
 0001:0002d030       ??A?$deque@UMMHS@AlliesWhiteboard@@V?$allocator@UMMHS@AlliesWhiteboard@@@std@@@std@@QAEAAUMMHS@AlliesWhiteboard@@I@Z 1002e030 f i whiteboard.obj
 0001:0002d070       ??A?$vector@PAVGraphicElement@@V?$allocator@PAVGraphicElement@@@std@@@std@@QAEAAPAVGraphicElement@@I@Z 1002e070 f i whiteboard.obj
 0001:0002d090       ??D?$_Deque_unchecked_const_iterator@V?$_Deque_val@U?$_Deque_simple_types@PAVGraphicElement@@@std@@@std@@@std@@QBEABQAVGraphicElement@@XZ 1002e090 f i whiteboard.obj
 0001:0002d0e0       ??D?$_Deque_unchecked_const_iterator@V?$_Deque_val@U?$_Deque_simple_types@UMMHS@AlliesWhiteboard@@@std@@@std@@@std@@QBEABUMMHS@AlliesWhiteboard@@XZ 1002e0e0 f i whiteboard.obj
 0001:0002d130       ??D?$_Deque_unchecked_iterator@V?$_Deque_val@U?$_Deque_simple_types@PAVGraphicElement@@@std@@@std@@@std@@QBEAAPAVGraphicElement@@XZ 1002e130 f i whiteboard.obj
 0001:0002d150       ??D?$_Deque_unchecked_iterator@V?$_Deque_val@U?$_Deque_simple_types@UMMHS@AlliesWhiteboard@@@std@@@std@@@std@@QBEAAUMMHS@AlliesWhiteboard@@XZ 1002e150 f i whiteboard.obj
 0001:0002d170       ??F?$_Deque_unchecked_const_iterator@V?$_Deque_val@U?$_Deque_simple_types@UMMHS@AlliesWhiteboard@@@std@@@std@@@std@@QAEAAV01@XZ 1002e170 f i whiteboard.obj
 0001:0002d190       ??F?$_Deque_unchecked_iterator@V?$_Deque_val@U?$_Deque_simple_types@UMMHS@AlliesWhiteboard@@@std@@@std@@@std@@QAEAAV01@XZ 1002e190 f i whiteboard.obj
 0001:0002d1b0       ??H?$_Deque_unchecked_iterator@V?$_Deque_val@U?$_Deque_simple_types@UMMHS@AlliesWhiteboard@@@std@@@std@@@std@@QBE?AV01@H@Z 1002e1b0 f i whiteboard.obj
 0001:0002d1f0       ??Y?$_Deque_unchecked_const_iterator@V?$_Deque_val@U?$_Deque_simple_types@UMMHS@AlliesWhiteboard@@@std@@@std@@@std@@QAEAAV01@H@Z 1002e1f0 f i whiteboard.obj
 0001:0002d210       ??Y?$_Deque_unchecked_iterator@V?$_Deque_val@U?$_Deque_simple_types@UMMHS@AlliesWhiteboard@@@std@@@std@@@std@@QAEAAV01@H@Z 1002e210 f i whiteboard.obj
 0001:0002d230       ??_EDeleteGraphic@@UAEPAXI@Z 1002e230 f i whiteboard.obj
 0001:0002d230       ??_GDeleteGraphic@@UAEPAXI@Z 1002e230 f i whiteboard.obj
 0001:0002d260       ??_EGraphicElement@@UAEPAXI@Z 1002e260 f i whiteboard.obj
 0001:0002d260       ??_GGraphicElement@@UAEPAXI@Z 1002e260 f i whiteboard.obj
 0001:0002d290       ??_EGraphicLine@@UAEPAXI@Z 1002e290 f i whiteboard.obj
 0001:0002d290       ??_GGraphicLine@@UAEPAXI@Z 1002e290 f i whiteboard.obj
 0001:0002d2c0       ??_EGraphicText@@UAEPAXI@Z 1002e2c0 f i whiteboard.obj
 0001:0002d2c0       ??_GGraphicText@@UAEPAXI@Z 1002e2c0 f i whiteboard.obj
 0001:0002d2f0       ??_EGraphicTextEdited@@UAEPAXI@Z 1002e2f0 f i whiteboard.obj
 0001:0002d2f0       ??_GGraphicTextEdited@@UAEPAXI@Z 1002e2f0 f i whiteboard.obj
 0001:0002d320       ?AddTextMarker@AlliesWhiteboard@@AAEXHHPADD@Z 1002e320 f   whiteboard.obj
 0001:0002d3e0       ?AddTextMarker@AlliesWhiteboard@@AAEXXZ 1002e3e0 f   whiteboard.obj
 0001:0002d530       ?Blit@AlliesWhiteboard@@QAEXPAE@Z 1002e530 f   whiteboard.obj
 0001:0002d5a0       ?Clip_Line@AlliesWhiteboard@@QAEHAAH000@Z 1002e5a0 f   whiteboard.obj
 0001:0002e0a0       ?DeleteMarker@AlliesWhiteboard@@AAEXHH@Z 1002f0a0 f   whiteboard.obj
 0001:0002e150       ?Draw@GraphicElement@@UAEXXZ 1002f150 f i whiteboard.obj
 0001:0002e160       ?Draw@GraphicLine@@UAEXXZ  1002f160 f i whiteboard.obj
 0001:0002e170       ?Draw@GraphicText@@UAEXXZ  1002f170 f i whiteboard.obj
 0001:0002e180       ?DrawFreeLine@AlliesWhiteboard@@QAEXHHHHDPADH@Z 1002f180 f   whiteboard.obj
 0001:0002e1d0       ?DrawLine@AlliesWhiteboard@@QAEXHHHHDPADH@Z 1002f1d0 f   whiteboard.obj
 0001:0002e280       ?DrawMarkers@AlliesWhiteboard@@AAEXPAE@Z 1002f280 f   whiteboard.obj
 0001:0002e3e0       ?DrawMinimapMarkers@AlliesWhiteboard@@QAEXPADH_N@Z 1002f3e0 f   whiteboard.obj
 0001:0002e660       ?DrawRotateRect@AlliesWhiteboard@@AAEXHHHPADH@Z 1002f660 f   whiteboard.obj
 0001:0002e940       ?DrawTextInput@AlliesWhiteboard@@AAEXPAE@Z 1002f940 f   whiteboard.obj
 0001:0002eb80       ?DrawTextMarker@AlliesWhiteboard@@AAEXPAEHHPADD@Z 1002fb80 f   whiteboard.obj
 0001:0002ee00       ?Draw_Line@AlliesWhiteboard@@QAEHHHHHEPAEH@Z 1002fe00 f   whiteboard.obj
 0001:0002ef40       ?EchoMarker@AlliesWhiteboard@@AAEXPAD@Z 1002ff40 f   whiteboard.obj
 0001:0002efa0       ?EreaseArea@AlliesWhiteboard@@AAEXHH@Z 1002ffa0 f   whiteboard.obj
 0001:0002f090       ?GenerateLookupTables@AlliesWhiteboard@@AAEXXZ 10030090 f   whiteboard.obj
 0001:0002f120       ?GetMapX@AlliesWhiteboard@@QAEHXZ 10030120 f   whiteboard.obj
 0001:0002f140       ?GetMapY@AlliesWhiteboard@@QAEHXZ 10030140 f   whiteboard.obj
 0001:0002f160       ?GetMarkers@AlliesWhiteboard@@QAEXPAUMarkerArray@@@Z 10030160 f   whiteboard.obj
 0001:0002f250       ?GetTextElementAt@AlliesWhiteboard@@AAEPAVGraphicElement@@HHH@Z 10030250 f   whiteboard.obj
 0001:0002f350       ?InstantScrollTo@AlliesWhiteboard@@QAEXHH@Z 10030350 f   whiteboard.obj
 0001:0002f3a0       ?Line@AlliesWhiteboard@@QAEXHHHHEPADH@Z 100303a0 f   whiteboard.obj
 0001:0002f450       ?LockBlit@AlliesWhiteboard@@QAEXPADH@Z 10030450 f   whiteboard.obj
 0001:0002f650       ?Message@AlliesWhiteboard@@QAE_NPAUHWND__@@IIJ@Z 10030650 f   whiteboard.obj
 0001:0002fe30       ?MouseMove@AlliesWhiteboard@@AAEXHHHH@Z 10030e30 f   whiteboard.obj
 0001:0002ff90       ?ReceiveMarkers@AlliesWhiteboard@@AAEXXZ 10030f90 f   whiteboard.obj
 0001:00030380       ?RestoreAll@AlliesWhiteboard@@AAEXXZ 10031380 f   whiteboard.obj
 0001:00030430       ?ScrollToCenter@AlliesWhiteboard@@QAEXHH@Z 10031430 f   whiteboard.obj
 0001:000304d0       ?SendMarkers@AlliesWhiteboard@@AAEXXZ 100314d0 f   whiteboard.obj
 0001:000309f0       ?Set@AlliesWhiteboard@@QAEXH@Z 100319f0 f   whiteboard.obj
 0001:00030a10       ?TextInputChar@AlliesWhiteboard@@AAEXD@Z 10031a10 f   whiteboard.obj
 0001:00030a90       ?TextInputKeyDown@AlliesWhiteboard@@AAEXH@Z 10031a90 f   whiteboard.obj
 0001:00030c60       ?_Get_data@?$deque@PAVGraphicElement@@V?$allocator@PAVGraphicElement@@@std@@@std@@AAEAAV?$_Deque_val@U?$_Deque_simple_types@PAVGraphicElement@@@std@@@2@XZ 10031c60 f i whiteboard.obj
 0001:00030c70       ?_Get_data@?$deque@PAVGraphicElement@@V?$allocator@PAVGraphicElement@@@std@@@std@@ABEABV?$_Deque_val@U?$_Deque_simple_types@PAVGraphicElement@@@std@@@2@XZ 10031c70 f i whiteboard.obj
 0001:00030c80       ?_Get_data@?$deque@UMMHS@AlliesWhiteboard@@V?$allocator@UMMHS@AlliesWhiteboard@@@std@@@std@@AAEAAV?$_Deque_val@U?$_Deque_simple_types@UMMHS@AlliesWhiteboard@@@std@@@2@XZ 10031c80 f i whiteboard.obj
 0001:00030c90       ?_Get_data@?$deque@UMMHS@AlliesWhiteboard@@V?$allocator@UMMHS@AlliesWhiteboard@@@std@@@std@@ABEABV?$_Deque_val@U?$_Deque_simple_types@UMMHS@AlliesWhiteboard@@@std@@@2@XZ 10031c90 f i whiteboard.obj
 0001:00030ca0       ?_Get_first@?$_Compressed_pair@V?$allocator@PAVGraphicElement@@@std@@V?$_Deque_val@U?$_Deque_simple_types@PAVGraphicElement@@@std@@@2@$00@std@@QAEAAV?$allocator@PAVGraphicElement@@@2@XZ 10031ca0 f i whiteboard.obj
 0001:00030cb0       ?_Get_first@?$_Compressed_pair@V?$allocator@PAVGraphicElement@@@std@@V?$_Deque_val@U?$_Deque_simple_types@PAVGraphicElement@@@std@@@2@$00@std@@QBEABV?$allocator@PAVGraphicElement@@@2@XZ 10031cb0 f i whiteboard.obj
 0001:00030cc0       ?_Get_first@?$_Compressed_pair@V?$allocator@PAVGraphicElement@@@std@@V?$_Vector_val@U?$_Simple_types@PAVGraphicElement@@@std@@@2@$00@std@@QAEAAV?$allocator@PAVGraphicElement@@@2@XZ 10031cc0 f i whiteboard.obj
 0001:00030cd0       ?_Get_first@?$_Compressed_pair@V?$allocator@UMMHS@AlliesWhiteboard@@@std@@V?$_Deque_val@U?$_Deque_simple_types@UMMHS@AlliesWhiteboard@@@std@@@2@$00@std@@QAEAAV?$allocator@UMMHS@AlliesWhiteboard@@@2@XZ 10031cd0 f i whiteboard.obj
 0001:00030ce0       ?_Get_first@?$_Compressed_pair@V?$allocator@UMMHS@AlliesWhiteboard@@@std@@V?$_Deque_val@U?$_Deque_simple_types@UMMHS@AlliesWhiteboard@@@std@@@2@$00@std@@QBEABV?$allocator@UMMHS@AlliesWhiteboard@@@2@XZ 10031ce0 f i whiteboard.obj
 0001:00030cf0       ?_Getal@?$deque@PAVGraphicElement@@V?$allocator@PAVGraphicElement@@@std@@@std@@AAEAAV?$allocator@PAVGraphicElement@@@2@XZ 10031cf0 f i whiteboard.obj
 0001:00030d10       ?_Getal@?$deque@PAVGraphicElement@@V?$allocator@PAVGraphicElement@@@std@@@std@@ABEABV?$allocator@PAVGraphicElement@@@2@XZ 10031d10 f i whiteboard.obj
 0001:00030d30       ?_Getal@?$deque@UMMHS@AlliesWhiteboard@@V?$allocator@UMMHS@AlliesWhiteboard@@@std@@@std@@AAEAAV?$allocator@UMMHS@AlliesWhiteboard@@@2@XZ 10031d30 f i whiteboard.obj
 0001:00030d50       ?_Getal@?$deque@UMMHS@AlliesWhiteboard@@V?$allocator@UMMHS@AlliesWhiteboard@@@std@@@std@@ABEABV?$allocator@UMMHS@AlliesWhiteboard@@@2@XZ 10031d50 f i whiteboard.obj
 0001:00030d70       ?_Getal@?$vector@PAVGraphicElement@@V?$allocator@PAVGraphicElement@@@std@@@std@@AAEAAV?$allocator@PAVGraphicElement@@@2@XZ 10031d70 f i whiteboard.obj
 0001:00030d90       ?_Getblock@?$_Deque_val@U?$_Deque_simple_types@PAVGraphicElement@@@std@@@std@@QBEII@Z 10031d90 f i whiteboard.obj
 0001:00030db0       ?_Getblock@?$_Deque_val@U?$_Deque_simple_types@UMMHS@AlliesWhiteboard@@@std@@@std@@QBEII@Z 10031db0 f i whiteboard.obj
 0001:00030dd0       ?_Getblock@?$deque@PAVGraphicElement@@V?$allocator@PAVGraphicElement@@@std@@@std@@ABEII@Z 10031dd0 f i whiteboard.obj
 0001:00030df0       ?_Getblock@?$deque@UMMHS@AlliesWhiteboard@@V?$allocator@UMMHS@AlliesWhiteboard@@@std@@@std@@ABEII@Z 10031df0 f i whiteboard.obj
 0001:00030e10       ?_Growmap@?$deque@PAVGraphicElement@@V?$allocator@PAVGraphicElement@@@std@@@std@@AAEXI@Z 10031e10 f i whiteboard.obj
 0001:00031050       ?_Growmap@?$deque@UMMHS@AlliesWhiteboard@@V?$allocator@UMMHS@AlliesWhiteboard@@@std@@@std@@AAEXI@Z 10032050 f i whiteboard.obj
 0001:00031280       ?_Map@?$deque@PAVGraphicElement@@V?$allocator@PAVGraphicElement@@@std@@@std@@AAEAAPAPAPAVGraphicElement@@XZ 10032280 f i whiteboard.obj
 0001:000312a0       ?_Map@?$deque@UMMHS@AlliesWhiteboard@@V?$allocator@UMMHS@AlliesWhiteboard@@@std@@@std@@AAEAAPAPAUMMHS@AlliesWhiteboard@@XZ 100322a0 f i whiteboard.obj
 0001:000312c0       ?_Mapsize@?$deque@PAVGraphicElement@@V?$allocator@PAVGraphicElement@@@std@@@std@@AAEAAIXZ 100322c0 f i whiteboard.obj
 0001:000312e0       ?_Mapsize@?$deque@UMMHS@AlliesWhiteboard@@V?$allocator@UMMHS@AlliesWhiteboard@@@std@@@std@@AAEAAIXZ 100322e0 f i whiteboard.obj
 0001:00031300       ?_Myoff@?$deque@PAVGraphicElement@@V?$allocator@PAVGraphicElement@@@std@@@std@@AAEAAIXZ 10032300 f i whiteboard.obj
 0001:00031320       ?_Myoff@?$deque@UMMHS@AlliesWhiteboard@@V?$allocator@UMMHS@AlliesWhiteboard@@@std@@@std@@AAEAAIXZ 10032320 f i whiteboard.obj
 0001:00031340       ?_Mysize@?$deque@PAVGraphicElement@@V?$allocator@PAVGraphicElement@@@std@@@std@@AAEAAIXZ 10032340 f i whiteboard.obj
 0001:00031360       ?_Mysize@?$deque@PAVGraphicElement@@V?$allocator@PAVGraphicElement@@@std@@@std@@ABEABIXZ 10032360 f i whiteboard.obj
 0001:00031380       ?_Mysize@?$deque@UMMHS@AlliesWhiteboard@@V?$allocator@UMMHS@AlliesWhiteboard@@@std@@@std@@AAEAAIXZ 10032380 f i whiteboard.obj
 0001:000313a0       ?_Mysize@?$deque@UMMHS@AlliesWhiteboard@@V?$allocator@UMMHS@AlliesWhiteboard@@@std@@@std@@ABEABIXZ 100323a0 f i whiteboard.obj
 0001:000313c0       ?_Orphan_all@?$deque@PAVGraphicElement@@V?$allocator@PAVGraphicElement@@@std@@@std@@AAEXXZ 100323c0 f i whiteboard.obj
 0001:000313e0       ?_Orphan_all@?$deque@UMMHS@AlliesWhiteboard@@V?$allocator@UMMHS@AlliesWhiteboard@@@std@@@std@@AAEXXZ 100323e0 f i whiteboard.obj
 0001:00031400       ?_Release@?$_Uninitialized_backout@PAPAPAVGraphicElement@@@std@@QAEPAPAPAVGraphicElement@@XZ 10032400 f i whiteboard.obj
 0001:00031420       ?_Release@?$_Uninitialized_backout@PAPAUMMHS@AlliesWhiteboard@@@std@@QAEPAPAUMMHS@AlliesWhiteboard@@XZ 10032420 f i whiteboard.obj
 0001:00031440       ?_Swap_proxy_and_iterators@_Container_base0@std@@QAEXAAU12@@Z 10032440 f i whiteboard.obj
 0001:00031450       ?_Take_contents@?$_Vector_val@U?$_Simple_types@PAVGraphicElement@@@std@@@std@@QAEXAAV12@@Z 10032450 f i whiteboard.obj
 0001:000314b0       ?_Tidy@?$deque@PAVGraphicElement@@V?$allocator@PAVGraphicElement@@@std@@@std@@AAEXXZ 100324b0 f i whiteboard.obj
 0001:000315d0       ?_Tidy@?$deque@UMMHS@AlliesWhiteboard@@V?$allocator@UMMHS@AlliesWhiteboard@@@std@@@std@@AAEXXZ 100325d0 f i whiteboard.obj
 0001:000316f0       ?_Tidy@?$vector@PAVGraphicElement@@V?$allocator@PAVGraphicElement@@@std@@@std@@AAEXXZ 100326f0 f i whiteboard.obj
 0001:000317c0       ?_Unchecked_begin@?$deque@PAVGraphicElement@@V?$allocator@PAVGraphicElement@@@std@@@std@@QAE?AV?$_Deque_unchecked_iterator@V?$_Deque_val@U?$_Deque_simple_types@PAVGraphicElement@@@std@@@std@@@2@XZ 100327c0 f i whiteboard.obj
 0001:00031800       ?_Unchecked_begin@?$deque@UMMHS@AlliesWhiteboard@@V?$allocator@UMMHS@AlliesWhiteboard@@@std@@@std@@QAE?AV?$_Deque_unchecked_iterator@V?$_Deque_val@U?$_Deque_simple_types@UMMHS@AlliesWhiteboard@@@std@@@std@@@2@XZ 10032800 f i whiteboard.obj
 0001:00031840       ?_Unchecked_end@?$deque@UMMHS@AlliesWhiteboard@@V?$allocator@UMMHS@AlliesWhiteboard@@@std@@@std@@QAE?AV?$_Deque_unchecked_iterator@V?$_Deque_val@U?$_Deque_simple_types@UMMHS@AlliesWhiteboard@@@std@@@std@@@2@XZ 10032840 f i whiteboard.obj
 0001:00031880       ?_Xlen@?$deque@PAVGraphicElement@@V?$allocator@PAVGraphicElement@@@std@@@std@@ABEXXZ 10032880 f i whiteboard.obj
 0001:000318a0       ?_Xlen@?$deque@UMMHS@AlliesWhiteboard@@V?$allocator@UMMHS@AlliesWhiteboard@@@std@@@std@@ABEXXZ 100328a0 f i whiteboard.obj
 0001:000318c0       ?allocate@?$allocator@PAPAVGraphicElement@@@std@@QAEPAPAPAVGraphicElement@@I@Z 100328c0 f i whiteboard.obj
 0001:000318e0       ?allocate@?$allocator@PAUMMHS@AlliesWhiteboard@@@std@@QAEPAPAUMMHS@AlliesWhiteboard@@I@Z 100328e0 f i whiteboard.obj
 0001:00031900       ?allocate@?$allocator@PAVGraphicElement@@@std@@QAEPAPAVGraphicElement@@I@Z 10032900 f i whiteboard.obj
 0001:00031920       ?allocate@?$allocator@UMMHS@AlliesWhiteboard@@@std@@QAEPAUMMHS@AlliesWhiteboard@@I@Z 10032920 f i whiteboard.obj
 0001:00031940       ?back@?$deque@UMMHS@AlliesWhiteboard@@V?$allocator@UMMHS@AlliesWhiteboard@@@std@@@std@@QAEAAUMMHS@AlliesWhiteboard@@XZ 10032940 f i whiteboard.obj
 0001:000319a0       ?clear@?$deque@UMMHS@AlliesWhiteboard@@V?$allocator@UMMHS@AlliesWhiteboard@@@std@@@std@@QAEXXZ 100329a0 f i whiteboard.obj
 0001:000319c0       ?deallocate@?$allocator@PAPAVGraphicElement@@@std@@QAEXQAPAPAVGraphicElement@@I@Z 100329c0 f i whiteboard.obj
 0001:000319e0       ?deallocate@?$allocator@PAUMMHS@AlliesWhiteboard@@@std@@QAEXQAPAUMMHS@AlliesWhiteboard@@I@Z 100329e0 f i whiteboard.obj
 0001:00031a00       ?deallocate@?$allocator@PAVGraphicElement@@@std@@QAEXQAPAVGraphicElement@@I@Z 10032a00 f i whiteboard.obj
 0001:00031a20       ?deallocate@?$allocator@UMMHS@AlliesWhiteboard@@@std@@QAEXQAUMMHS@AlliesWhiteboard@@I@Z 10032a20 f i whiteboard.obj
 0001:00031a40       ?empty@?$deque@PAVGraphicElement@@V?$allocator@PAVGraphicElement@@@std@@@std@@QBE_NXZ 10032a40 f i whiteboard.obj
 0001:00031a70       ?empty@?$deque@UMMHS@AlliesWhiteboard@@V?$allocator@UMMHS@AlliesWhiteboard@@@std@@@std@@QBE_NXZ 10032a70 f i whiteboard.obj
 0001:00031aa0       ?front@?$deque@PAVGraphicElement@@V?$allocator@PAVGraphicElement@@@std@@@std@@QAEAAPAVGraphicElement@@XZ 10032aa0 f i whiteboard.obj
 0001:00031ac0       ?max_size@?$_Default_allocator_traits@V?$allocator@PAVGraphicElement@@@std@@@std@@SGIABV?$allocator@PAVGraphicElement@@@2@@Z 10032ac0 f i whiteboard.obj
 0001:00031ad0       ?max_size@?$_Default_allocator_traits@V?$allocator@UMMHS@AlliesWhiteboard@@@std@@@std@@SGIABV?$allocator@UMMHS@AlliesWhiteboard@@@2@@Z 10032ad0 f i whiteboard.obj
 0001:00031ae0       ?max_size@?$deque@PAVGraphicElement@@V?$allocator@PAVGraphicElement@@@std@@@std@@QBEIXZ 10032ae0 f i whiteboard.obj
 0001:00031b20       ?max_size@?$deque@UMMHS@AlliesWhiteboard@@V?$allocator@UMMHS@AlliesWhiteboard@@@std@@@std@@QBEIXZ 10032b20 f i whiteboard.obj
 0001:00031b60       ?pop_back@?$deque@PAVGraphicElement@@V?$allocator@PAVGraphicElement@@@std@@@std@@QAEXXZ 10032b60 f i whiteboard.obj
 0001:00031c30       ?pop_back@?$deque@UMMHS@AlliesWhiteboard@@V?$allocator@UMMHS@AlliesWhiteboard@@@std@@@std@@QAEXXZ 10032c30 f i whiteboard.obj
 0001:00031d00       ?pop_front@?$deque@PAVGraphicElement@@V?$allocator@PAVGraphicElement@@@std@@@std@@QAEXXZ 10032d00 f i whiteboard.obj
 0001:00031de0       ?push_back@?$deque@PAVGraphicElement@@V?$allocator@PAVGraphicElement@@@std@@@std@@QAEX$$QAPAVGraphicElement@@@Z 10032de0 f i whiteboard.obj
 0001:00031e10       ?push_front@?$deque@UMMHS@AlliesWhiteboard@@V?$allocator@UMMHS@AlliesWhiteboard@@@std@@@std@@QAEXABUMMHS@AlliesWhiteboard@@@Z 10032e10 f i whiteboard.obj
 0001:00031e30       ?size@?$deque@PAVGraphicElement@@V?$allocator@PAVGraphicElement@@@std@@@std@@QBEIXZ 10032e30 f i whiteboard.obj
 0001:00031e50       ?size@?$deque@UMMHS@AlliesWhiteboard@@V?$allocator@UMMHS@AlliesWhiteboard@@@std@@@std@@QBEIXZ 10032e50 f i whiteboard.obj
 0001:00031e70       ?size@?$vector@PAVGraphicElement@@V?$allocator@PAVGraphicElement@@@std@@@std@@QBEIXZ 10032e70 f i whiteboard.obj
 0001:00031ea0       ??0PCX@@QAE@XZ             10032ea0 f   PCX.obj
 0001:00031ee0       ??1PCX@@QAE@XZ             10032ee0 f   PCX.obj
 0001:00031f50       ?CopyPalette@PCX@@QAEXPAUtagPALETTEENTRY@@@Z 10032f50 f   PCX.obj
 0001:00031fb0       ?Erase@PCX@@QAEXXZ         10032fb0 f   PCX.obj
 0001:00031ff0       ?Height@PCX@@QAEJXZ        10032ff0 f   PCX.obj
 0001:00032010       ?Load24@PCX@@QAEHPBD@Z     10033010 f   PCX.obj
 0001:00032200       ?Load@PCX@@QAEHPBDH@Z      10033200 f   PCX.obj
 0001:00032560       ?NewBuffer@PCX@@QAEPAEFF@Z 10033560 f   PCX.obj
 0001:000325c0       ?ReadLine24@PCX@@AAEPAEPAEKF@Z 100335c0 f   PCX.obj
 0001:000326b0       ?Save@PCX@@QAEHPBD@Z       100336b0 f   PCX.obj
 0001:000329d0       ?SetBuffer@PCX@@QAEPAEPAE@Z 100339d0 f   PCX.obj
 0001:00032a00       ?SetPalette@PCX@@QAEXPAUtagPALETTEENTRY@@@Z 10033a00 f   PCX.obj
 0001:00032a40       ?Width@PCX@@QAEJXZ         10033a40 f   PCX.obj
 0001:00032a50       ?WriteLine@PCX@@AAEPAEPAEK@Z 10033a50 f   PCX.obj
 0001:00032bd0       ?CreateSurfPCXResource@@YGPAUIDirectDrawSurface@@GH@Z 10033bd0 f   pcxread.obj
 0001:00032dd0       ?PCX2BitMap@@YGXPAEPAUpcx_picture_typ@@J@Z 10033dd0 f   pcxread.obj
 0001:00032fc0       ?RestoreFromPCX@@YGXGPAUIDirectDrawSurface@@@Z 10033fc0 f   pcxread.obj
 0001:00033150       ?RestoreFromPCXFile@@YGXPADPAUIDirectDrawSurface@@@Z 10034150 f   pcxread.obj
 0001:00033330       ?strrchr@@YAPADQADH@Z      10034330 f i etc.obj
 0001:00033350       _CalcCRC@8                 10034350 f   etc.obj
 0001:000333f0       _GetMinValidLenWithMatchOpcode@8 100343f0 f   etc.obj
 0001:00033430       _GetOpCodeSize@4           10034430 f   etc.obj
 0001:000336d0       _MemWriteWithBackup@16     100346d0 f   etc.obj
 0001:000337c0       _RegReadData@24            100347c0 f   etc.obj
 0001:00033850       _RegReadDword@16           10034850 f   etc.obj
 0001:00033870       _RegReadStr@20             10034870 f   etc.obj
 0001:000338a0       _RegWriteData@24           100348a0 f   etc.obj
 0001:00033930       _RegWriteDword@16          10034930 f   etc.obj
 0001:00033950       _RegWriteStr@20            10034950 f   etc.obj
 0001:00033980       _X86RedirectOpcodeToNewBase@16 10034980 f   etc.obj
 0001:00033d60       _X86ShallToRedirect@20     10034d60 f   etc.obj
 0001:00034040       _clean_remark@8            10035040 f   etc.obj
 0001:00034090       _duplicate_str@4           10035090 f   etc.obj
 0001:000340f0       _getDBCSlen@4              100350f0 f   etc.obj
 0001:00034160       _memfind@24                10035160 f   etc.obj
 0001:000342d0       _trim_crlf_@4              100352d0 f   etc.obj
 0001:000343d0       _vkToStr@12                100353d0 f   etc.obj
 0001:00035470       ??0SingleHook@@QAE@IKHPAE@Z 10036470 f   Hook.obj
 0001:000354b0       ??0SingleHook@@QAE@PAEKH0@Z 100364b0 f   Hook.obj
 0001:000354f0       ??0SingleHook@@QAE@XZ      100364f0 f   Hook.obj
 0001:00035520       ??1SingleHook@@QAE@XZ      10036520 f   Hook.obj
 0001:000355c0       ?AddrToHook@SingleHook@@UAEPAXPAX@Z 100365c0 f   Hook.obj
 0001:000355e0       ?AddrToHook@SingleHook@@UAEQAXXZ 100365e0 f   Hook.obj
 0001:00035600       ?AddrToRtn@SingleHook@@QAEPAXXZ 10036600 f   Hook.obj
 0001:00035620       ?Hook@SingleHook@@UAEXXZ   10036620 f   Hook.obj
 0001:00035660       ?InitHookClass@SingleHook@@UAEXPAEKH0@Z 10036660 f   Hook.obj
 0001:000357e0       ?LenToHook@SingleHook@@UAEKK@Z 100367e0 f   Hook.obj
 0001:00035800       ?ThisHookMode@SingleHook@@UAE?BHXZ 10036800 f   Hook.obj
 0001:00035820       ?ThisHookMode@SingleHook@@UAEHH@Z 10036820 f   Hook.obj
 0001:00035840       ?UnHook@SingleHook@@UAEXXZ 10036840 f   Hook.obj
 0001:00035880       ?X86CurrentThreadStackBufferFixRtnAddr@@YGPAUtagInlineX86StackBuffer@@PAPAU1@@Z 10036880 f   InlineHook.obj
 0001:00035930       ?X86CurrentThreadStackBuffer@@YGPAUtagInlineX86StackBuffer@@PAPAU1@@Z 10036930 f   InlineHook.obj
 0001:000359c0       ??0InlineSingleHook@@QAE@IKHP6GHPAUtagInlineX86StackBuffer@@@Z@Z 100369c0 f   InlineHook.obj
 0001:00035a50       ??0InlineSingleHook@@QAE@IKHPAX@Z 10036a50 f   InlineHook.obj
 0001:00035ae0       ??0InlineSingleHook@@QAE@XZ 10036ae0 f   InlineHook.obj
 0001:00035b60       ??1InlineSingleHook@@QAE@XZ 10036b60 f   InlineHook.obj
 0001:00035c70       ?Hook@InlineSingleHook@@UAEXXZ 10036c70 f   InlineHook.obj
 0001:00035d50       ?InitHookClass@InlineSingleHook@@AAEXQAEKHPAX1@Z 10036d50 f   InlineHook.obj
 0001:00036070       ?NewBytesForInlineHook@InlineSingleHook@@QAEPAEPAE@Z 10037070 f   InlineHook.obj
 0001:000360a0       ?RedirectedOpcodeInStub@InlineSingleHook@@QAEQAXXZ 100370a0 f   InlineHook.obj
 0001:000360c0       ?RedirectedOrgOpcodes@InlineSingleHook@@QAEQAEXZ 100370c0 f   InlineHook.obj
 0001:000360e0       ?RtnAddrOfHook@InlineSingleHook@@QAEQAXXZ 100370e0 f   InlineHook.obj
 0001:00036100       ?SetParamOfHook@InlineSingleHook@@QAEPAXPAX@Z 10037100 f   InlineHook.obj
 0001:00036130       ?X86InlineHookRouter@@YGXXZ 10037130 f   InlineHook.obj
 0001:00036200       ??0CGraphic@@QAE@XZ        10037200 f   cgraphic.obj
 0001:00036220       ??1CGraphic@@QAE@XZ        10037220 f   cgraphic.obj
 0001:00036230       ?DrawRotateRect@CGraphic@@QAEXPAUIDirectDrawSurface@@HHH@Z 10037230 f   cgraphic.obj
 0001:00036470       ?GenerateLookupTables@CGraphic@@AAEXXZ 10037470 f   cgraphic.obj
 0001:00036500       ??$?0$$V@?$_Compressed_pair@V?$allocator@U?$_List_node@PAVGraphicElement@@PAX@std@@@std@@V?$_List_val@U?$_List_simple_types@PAVGraphicElement@@@std@@@2@$00@std@@QAE@U_Zero_then_variadic_args_t@1@@Z 10037500 f i ElementHandler.obj
 0001:00036520       ??$?0ABQAVGraphicElement@@@?$_List_node_emplace_op2@V?$allocator@U?$_List_node@PAVGraphicElement@@PAX@std@@@std@@@std@@QAE@AAV?$allocator@U?$_List_node@PAVGraphicElement@@PAX@std@@@1@ABQAVGraphicElement@@@Z 10037520 f i ElementHandler.obj
 0001:000365b0       ??$?0V?$allocator@PAVGraphicElement@@@std@@PAPAVGraphicElement@@PAPAV2@PAPAV2@@?$_Compressed_pair@V?$allocator@PAVGraphicElement@@@std@@V?$_Vector_val@U?$_Simple_types@PAVGraphicElement@@@std@@@2@$00@std@@QAE@U_One_then_variadic_args_t@1@$$QAV?$allocator@PAVGraphicElement@@@1@$$QAPAPAVGraphicElement@@22@Z 100375b0 f i ElementHandler.obj
 0001:00036600       ??$_Construct_in_place@PAU?$_List_node@PAVGraphicElement@@PAX@std@@AAPAU12@@std@@YGXAAPAU?$_List_node@PAVGraphicElement@@PAX@0@0@Z 10037600 f i ElementHandler.obj
 0001:00036640       ??$_Construct_in_place@PAU?$_List_node@PAVGraphicElement@@PAX@std@@ABQAU12@@std@@YGXAAPAU?$_List_node@PAVGraphicElement@@PAX@0@ABQAU10@@Z 10037640 f i ElementHandler.obj
 0001:00036680       ??$_Construct_in_place@PAVGraphicElement@@ABQAV1@@std@@YGXAAPAVGraphicElement@@ABQAV1@@Z 10037680 f i ElementHandler.obj
 0001:000366c0       ??$_Copy_memmove@PAPAVGraphicElement@@PAPAV1@@std@@YGPAPAVGraphicElement@@PAPAV1@00@Z 100376c0 f i ElementHandler.obj
 0001:00036730       ??$_Destroy_in_place@PAU?$_List_node@PAVGraphicElement@@PAX@std@@@std@@YGXAAPAU?$_List_node@PAVGraphicElement@@PAX@0@@Z 10037730 f i ElementHandler.obj
 0001:00036740       ??$_Emplace@ABQAVGraphicElement@@@?$list@PAVGraphicElement@@V?$allocator@PAVGraphicElement@@@std@@@std@@QAEPAU?$_List_node@PAVGraphicElement@@PAX@1@QAU21@ABQAVGraphicElement@@@Z 10037740 f i ElementHandler.obj
 0001:000367c0       ??$_Emplace_back@PAVGraphicElement@@@?$_Uninitialized_backout_al@V?$allocator@PAVGraphicElement@@@std@@@std@@QAEX$$QAPAVGraphicElement@@@Z 100377c0 f i ElementHandler.obj
 0001:00036800       ??$_Emplace_back_with_unused_capacity@ABQAVGraphicElement@@@?$vector@PAVGraphicElement@@V?$allocator@PAVGraphicElement@@@std@@@std@@AAEAAPAVGraphicElement@@ABQAV2@@Z 10037800 f i ElementHandler.obj
 0001:00036860       ??$_Emplace_one_at_back@ABQAVGraphicElement@@@?$vector@PAVGraphicElement@@V?$allocator@PAVGraphicElement@@@std@@@std@@AAEAAPAVGraphicElement@@ABQAV2@@Z 10037860 f i ElementHandler.obj
 0001:000368c0       ??$_Emplace_reallocate@ABQAVGraphicElement@@@?$vector@PAVGraphicElement@@V?$allocator@PAVGraphicElement@@@std@@@std@@AAEPAPAVGraphicElement@@QAPAV2@ABQAV2@@Z 100378c0 f i ElementHandler.obj
 0001:00036a90       ??$_Free_non_head@V?$allocator@U?$_List_node@PAVGraphicElement@@PAX@std@@@std@@@?$_List_node@PAVGraphicElement@@PAX@std@@SGXAAV?$allocator@U?$_List_node@PAVGraphicElement@@PAX@std@@@1@PAU01@@Z 10037a90 f i ElementHandler.obj
 0001:00036ae0       ??$_Freenode0@V?$allocator@U?$_List_node@PAVGraphicElement@@PAX@std@@@std@@@?$_List_node@PAVGraphicElement@@PAX@std@@SGXAAV?$allocator@U?$_List_node@PAVGraphicElement@@PAX@std@@@1@PAU01@@Z 10037ae0 f i ElementHandler.obj
 0001:00036b40       ??$_Freenode@V?$allocator@U?$_List_node@PAVGraphicElement@@PAX@std@@@std@@@?$_List_node@PAVGraphicElement@@PAX@std@@SGXAAV?$allocator@U?$_List_node@PAVGraphicElement@@PAX@std@@@1@PAU01@@Z 10037b40 f i ElementHandler.obj
 0001:00036ba0       ??$_Get_unwrapped@ABQAPAVGraphicElement@@@std@@YG?A_TABQAPAVGraphicElement@@@Z 10037ba0 f i ElementHandler.obj
 0001:00036bb0       ??$_To_address@PAPAVGraphicElement@@@std@@YG?A_PABQAPAVGraphicElement@@@Z 10037bb0 f i ElementHandler.obj
 0001:00036bc0       ??$_Uninitialized_move@PAPAVGraphicElement@@V?$allocator@PAVGraphicElement@@@std@@@std@@YGPAPAVGraphicElement@@QAPAV1@0PAPAV1@AAV?$allocator@PAVGraphicElement@@@0@@Z 10037bc0 f i ElementHandler.obj
 0001:00036ca0       ??$_Voidify_iter@PAPAU?$_List_node@PAVGraphicElement@@PAX@std@@@std@@YGPAXPAPAU?$_List_node@PAVGraphicElement@@PAX@0@@Z 10037ca0 f i ElementHandler.obj
 0001:00036cb0       ??$addressof@$$CBV?$_List_val@U?$_List_simple_types@PAVGraphicElement@@@std@@@std@@@std@@YGPBV?$_List_val@U?$_List_simple_types@PAVGraphicElement@@@std@@@0@ABV10@@Z 10037cb0 f i ElementHandler.obj
 0001:00036cc0       ??$addressof@PAU?$_List_node@PAVGraphicElement@@PAX@std@@@std@@YGPAPAU?$_List_node@PAVGraphicElement@@PAX@0@AAPAU10@@Z 10037cc0 f i ElementHandler.obj
 0001:00036cd0       ??$addressof@PAVGraphicElement@@@std@@YGPAPAVGraphicElement@@AAPAV1@@Z 10037cd0 f i ElementHandler.obj
 0001:00036ce0       ??$addressof@V?$_List_val@U?$_List_simple_types@PAVGraphicElement@@@std@@@std@@@std@@YGPAV?$_List_val@U?$_List_simple_types@PAVGraphicElement@@@std@@@0@AAV10@@Z 10037ce0 f i ElementHandler.obj
 0001:00036cf0       ??$construct@PAVGraphicElement@@ABQAV1@@?$_Default_allocator_traits@V?$allocator@PAVGraphicElement@@@std@@@std@@SGXAAV?$allocator@PAVGraphicElement@@@1@QAPAVGraphicElement@@ABQAV3@@Z 10037cf0 f i ElementHandler.obj
 0001:00036d30       ??$construct@PAVGraphicElement@@ABQAV1@@?$_Default_allocator_traits@V?$allocator@U?$_List_node@PAVGraphicElement@@PAX@std@@@std@@@std@@SGXAAV?$allocator@U?$_List_node@PAVGraphicElement@@PAX@std@@@1@QAPAVGraphicElement@@ABQAV3@@Z 10037d30 f i ElementHandler.obj
 0001:00036d70       ??$destroy@PAU?$_List_node@PAVGraphicElement@@PAX@std@@@?$_Default_allocator_traits@V?$allocator@U?$_List_node@PAVGraphicElement@@PAX@std@@@std@@@std@@SGXAAV?$allocator@U?$_List_node@PAVGraphicElement@@PAX@std@@@1@QAPAU?$_List_node@PAVGraphicElement@@PAX@1@@Z 10037d70 f i ElementHandler.obj
 0001:00036d80       ??$destroy@PAVGraphicElement@@@?$_Default_allocator_traits@V?$allocator@U?$_List_node@PAVGraphicElement@@PAX@std@@@std@@@std@@SGXAAV?$allocator@U?$_List_node@PAVGraphicElement@@PAX@std@@@1@QAPAVGraphicElement@@@Z 10037d80 f i ElementHandler.obj
 0001:00036d90       ??$emplace_back@ABQAVGraphicElement@@@?$vector@PAVGraphicElement@@V?$allocator@PAVGraphicElement@@@std@@@std@@QAE?A_TABQAVGraphicElement@@@Z 10037d90 f i ElementHandler.obj
 0001:00036dc0       ??$exchange@PAPAVGraphicElement@@$$T@std@@YGPAPAVGraphicElement@@AAPAPAV1@$$QA$$T@Z 10037dc0 f i ElementHandler.obj
 0001:00036de0       ??$exchange@PAU?$_List_node@PAVGraphicElement@@PAX@std@@PAU12@@std@@YGPAU?$_List_node@PAVGraphicElement@@PAX@0@AAPAU10@$$QAPAU10@@Z 10037de0 f i ElementHandler.obj
 0001:00036e00       ??$forward@AAPAU?$_List_node@PAVGraphicElement@@PAX@std@@@std@@YGAAPAU?$_List_node@PAVGraphicElement@@PAX@0@AAPAU10@@Z 10037e00 f i ElementHandler.obj
 0001:00036e10       ??$forward@ABQAU?$_List_node@PAVGraphicElement@@PAX@std@@@std@@YGABQAU?$_List_node@PAVGraphicElement@@PAX@0@ABQAU10@@Z 10037e10 f i ElementHandler.obj
 0001:00036e20       ??$forward@ABQAVGraphicElement@@@std@@YGABQAVGraphicElement@@ABQAV1@@Z 10037e20 f i ElementHandler.obj
 0001:00036e30       ??$forward@PAPAVGraphicElement@@@std@@YG$$QAPAPAVGraphicElement@@AAPAPAV1@@Z 10037e30 f i ElementHandler.obj
 0001:00036e40       ??$forward@V?$allocator@PAVGraphicElement@@@std@@@std@@YG$$QAV?$allocator@PAVGraphicElement@@@0@AAV10@@Z 10037e40 f i ElementHandler.obj
 0001:00036e50       ??$remove_if@V<lambda_3a0e3eee6a925c7ad0776f0f5c737a02>@@@?$list@PAVGraphicElement@@V?$allocator@PAVGraphicElement@@@std@@@std@@QAE?A_PV<lambda_3a0e3eee6a925c7ad0776f0f5c737a02>@@@Z 10037e50 f i ElementHandler.obj
 0001:00036f10       ??0<lambda_3a0e3eee6a925c7ad0776f0f5c737a02>@@QAE@ABQAVGraphicElement@@@Z 10037f10 f i ElementHandler.obj
 0001:00036f30       ??0?$_Alloc_construct_ptr@V?$allocator@U?$_List_node@PAVGraphicElement@@PAX@std@@@std@@@std@@QAE@AAV?$allocator@U?$_List_node@PAVGraphicElement@@PAX@std@@@1@@Z 10037f30 f i ElementHandler.obj
 0001:00036f60       ??0?$_List_const_iterator@V?$_List_val@U?$_List_simple_types@PAVGraphicElement@@@std@@@std@@@std@@QAE@PAU?$_List_node@PAVGraphicElement@@PAX@1@PBV?$_List_val@U?$_List_simple_types@PAVGraphicElement@@@std@@@1@@Z 10037f60 f i ElementHandler.obj
 0001:00036f80       ??0?$_List_const_iterator@V?$_List_val@U?$_List_simple_types@PAVGraphicElement@@@std@@@std@@@std@@QAE@XZ 10037f80 f i ElementHandler.obj
 0001:00036fa0       ??0?$_List_iterator@V?$_List_val@U?$_List_simple_types@PAVGraphicElement@@@std@@@std@@@std@@QAE@PAU?$_List_node@PAVGraphicElement@@PAX@1@PBV?$_List_val@U?$_List_simple_types@PAVGraphicElement@@@std@@@1@@Z 10037fa0 f i ElementHandler.obj
 0001:00036fc0       ??0?$_List_iterator@V?$_List_val@U?$_List_simple_types@PAVGraphicElement@@@std@@@std@@@std@@QAE@XZ 10037fc0 f i ElementHandler.obj
 0001:00036fe0       ??0?$_List_unchecked_const_iterator@V?$_List_val@U?$_List_simple_types@PAVGraphicElement@@@std@@@std@@U_Iterator_base0@2@@std@@QAE@PAU?$_List_node@PAVGraphicElement@@PAX@1@PBV?$_List_val@U?$_List_simple_types@PAVGraphicElement@@@std@@@1@@Z 10037fe0 f i ElementHandler.obj
 0001:00037010       ??0?$_List_unchecked_const_iterator@V?$_List_val@U?$_List_simple_types@PAVGraphicElement@@@std@@@std@@U_Iterator_base0@2@@std@@QAE@XZ 10038010 f i ElementHandler.obj
 0001:00037030       ??0?$_List_val@U?$_List_simple_types@PAVGraphicElement@@@std@@@std@@QAE@XZ 10038030 f i ElementHandler.obj
 0001:00037060       ??0?$_Uninitialized_backout_al@V?$allocator@PAVGraphicElement@@@std@@@std@@QAE@PAPAVGraphicElement@@AAV?$allocator@PAVGraphicElement@@@1@@Z 10038060 f i ElementHandler.obj
 0001:00037090       ??0?$_Vector_val@U?$_Simple_types@PAVGraphicElement@@@std@@@std@@QAE@PAPAVGraphicElement@@00@Z 10038090 f i ElementHandler.obj
 0001:000370c0       ??0?$allocator@U?$_List_node@PAVGraphicElement@@PAX@std@@@std@@QAE@XZ 100380c0 f i ElementHandler.obj
 0001:000370d0       ??0?$list@PAVGraphicElement@@V?$allocator@PAVGraphicElement@@@std@@@std@@QAE@XZ 100380d0 f i ElementHandler.obj
 0001:00037100       ??0?$vector@PAVGraphicElement@@V?$allocator@PAVGraphicElement@@@std@@@std@@QAE@$$QAV01@@Z 10038100 f i ElementHandler.obj
 0001:000371a0       ??0CElementHandler@@QAE@XZ 100381a0 f   ElementHandler.obj
 0001:000371e0       ??0_Fake_proxy_ptr_impl@std@@QAE@ABU_Fake_allocator@1@ABU_Container_base0@1@@Z 100381e0 f i ElementHandler.obj
 0001:000371f0       ??0_List_node_remove_op@?$list@PAVGraphicElement@@V?$allocator@PAVGraphicElement@@@std@@@std@@QAE@AAV12@@Z 100381f0 f i ElementHandler.obj
 0001:00037230       ??1?$_Alloc_construct_ptr@V?$allocator@U?$_List_node@PAVGraphicElement@@PAX@std@@@std@@@std@@QAE@XZ 10038230 f i ElementHandler.obj
 0001:00037290       ??1?$_List_node_emplace_op2@V?$allocator@U?$_List_node@PAVGraphicElement@@PAX@std@@@std@@@std@@QAE@XZ 10038290 f i ElementHandler.obj
 0001:00037300       ??1?$_Uninitialized_backout_al@V?$allocator@PAVGraphicElement@@@std@@@std@@QAE@XZ 10038300 f i ElementHandler.obj
 0001:00037330       ??1?$list@PAVGraphicElement@@V?$allocator@PAVGraphicElement@@@std@@@std@@QAE@XZ 10038330 f i ElementHandler.obj
 0001:00037350       ??1CElementHandler@@UAE@XZ 10038350 f   ElementHandler.obj
 0001:000374b0       ??1_List_node_remove_op@?$list@PAVGraphicElement@@V?$allocator@PAVGraphicElement@@@std@@@std@@QAE@XZ 100384b0 f i ElementHandler.obj
 0001:00037580       ??8?$_List_const_iterator@V?$_List_val@U?$_List_simple_types@PAVGraphicElement@@@std@@@std@@@std@@QBE_NABV01@@Z 10038580 f i ElementHandler.obj
 0001:000375b0       ??9?$_List_const_iterator@V?$_List_val@U?$_List_simple_types@PAVGraphicElement@@@std@@@std@@@std@@QBE_NABV01@@Z 100385b0 f i ElementHandler.obj
 0001:000375f0       ??D?$_List_const_iterator@V?$_List_val@U?$_List_simple_types@PAVGraphicElement@@@std@@@std@@@std@@QBEABQAVGraphicElement@@XZ 100385f0 f i ElementHandler.obj
 0001:00037610       ??D?$_List_iterator@V?$_List_val@U?$_List_simple_types@PAVGraphicElement@@@std@@@std@@@std@@QBEAAPAVGraphicElement@@XZ 10038610 f i ElementHandler.obj
 0001:00037630       ??E?$_List_const_iterator@V?$_List_val@U?$_List_simple_types@PAVGraphicElement@@@std@@@std@@@std@@QAEAAV01@XZ 10038630 f i ElementHandler.obj
 0001:00037650       ??E?$_List_iterator@V?$_List_val@U?$_List_simple_types@PAVGraphicElement@@@std@@@std@@@std@@QAEAAV01@XZ 10038650 f i ElementHandler.obj
 0001:00037670       ??R<lambda_3a0e3eee6a925c7ad0776f0f5c737a02>@@QBE@ABQAVGraphicElement@@@Z 10038670 f i ElementHandler.obj
 0001:000376a0       ??_ECElementHandler@@UAEPAXI@Z 100386a0 f i ElementHandler.obj
 0001:000376a0       ??_GCElementHandler@@UAEPAXI@Z 100386a0 f i ElementHandler.obj
 0001:000376e0       ?AddElement@CElementHandler@@QAEXPAVGraphicElement@@@Z 100386e0 f   ElementHandler.obj
 0001:00037730       ?DeleteBetween@CElementHandler@@QAEXHHHH@Z 10038730 f   ElementHandler.obj
 0001:00037940       ?DeleteOn@CElementHandler@@QAEXHH@Z 10038940 f   ElementHandler.obj
 0001:00037980       ?GetArea@CElementHandler@@QAE?AV?$vector@PAVGraphicElement@@V?$allocator@PAVGraphicElement@@@std@@@std@@HHHH@Z 10038980 f   ElementHandler.obj
 0001:00037c10       ?GetClosestElement@CElementHandler@@QAEPAVGraphicElement@@HH@Z 10038c10 f   ElementHandler.obj
 0001:00037c20       ?MoveTextElement@CElementHandler@@QAEPAVGraphicElement@@PAV2@HH@Z 10038c20 f   ElementHandler.obj
 0001:00037d80       ?_Alloc_sentinel_and_proxy@?$list@PAVGraphicElement@@V?$allocator@PAVGraphicElement@@@std@@@std@@AAEXXZ 10038d80 f i ElementHandler.obj
 0001:00037df0       ?_Allocate@?$_Alloc_construct_ptr@V?$allocator@U?$_List_node@PAVGraphicElement@@PAX@std@@@std@@@std@@QAEXXZ 10038df0 f i ElementHandler.obj
 0001:00037e20       ?_Calculate_growth@?$vector@PAVGraphicElement@@V?$allocator@PAVGraphicElement@@@std@@@std@@ABEII@Z 10038e20 f i ElementHandler.obj
 0001:00037e80       ?_Change_array@?$vector@PAVGraphicElement@@V?$allocator@PAVGraphicElement@@@std@@@std@@AAEXQAPAVGraphicElement@@II@Z 10038e80 f i ElementHandler.obj
 0001:00037f20       ?_Get_first@?$_Compressed_pair@V?$allocator@PAVGraphicElement@@@std@@V?$_Vector_val@U?$_Simple_types@PAVGraphicElement@@@std@@@2@$00@std@@QBEABV?$allocator@PAVGraphicElement@@@2@XZ 10038f20 f i ElementHandler.obj
 0001:00037f30       ?_Get_first@?$_Compressed_pair@V?$allocator@U?$_List_node@PAVGraphicElement@@PAX@std@@@std@@V?$_List_val@U?$_List_simple_types@PAVGraphicElement@@@std@@@2@$00@std@@QAEAAV?$allocator@U?$_List_node@PAVGraphicElement@@PAX@std@@@2@XZ 10038f30 f i ElementHandler.obj
 0001:00037f40       ?_Get_first@?$_Compressed_pair@V?$allocator@U?$_List_node@PAVGraphicElement@@PAX@std@@@std@@V?$_List_val@U?$_List_simple_types@PAVGraphicElement@@@std@@@2@$00@std@@QBEABV?$allocator@U?$_List_node@PAVGraphicElement@@PAX@std@@@2@XZ 10038f40 f i ElementHandler.obj
 0001:00037f50       ?_Getal@?$list@PAVGraphicElement@@V?$allocator@PAVGraphicElement@@@std@@@std@@AAEAAV?$allocator@U?$_List_node@PAVGraphicElement@@PAX@std@@@2@XZ 10038f50 f i ElementHandler.obj
 0001:00037f70       ?_Getal@?$list@PAVGraphicElement@@V?$allocator@PAVGraphicElement@@@std@@@std@@ABEABV?$allocator@U?$_List_node@PAVGraphicElement@@PAX@std@@@2@XZ 10038f70 f i ElementHandler.obj
 0001:00037f90       ?_Getal@?$vector@PAVGraphicElement@@V?$allocator@PAVGraphicElement@@@std@@@std@@ABEABV?$allocator@PAVGraphicElement@@@2@XZ 10038f90 f i ElementHandler.obj
 0001:00037fb0       ?_Make_iter@?$list@PAVGraphicElement@@V?$allocator@PAVGraphicElement@@@std@@@std@@QBE?AV?$_List_iterator@V?$_List_val@U?$_List_simple_types@PAVGraphicElement@@@std@@@std@@@2@PAU?$_List_node@PAVGraphicElement@@PAX@2@@Z 10038fb0 f i ElementHandler.obj
 0001:00037fe0       ?_Orphan_ptr2@?$_List_val@U?$_List_simple_types@PAVGraphicElement@@@std@@@std@@QAEXPAU?$_List_node@PAVGraphicElement@@PAX@2@@Z 10038fe0 f i ElementHandler.obj
 0001:00037ff0       ?_Orphan_range@?$vector@PAVGraphicElement@@V?$allocator@PAVGraphicElement@@@std@@@std@@ABEXPAPAVGraphicElement@@0@Z 10038ff0 f i ElementHandler.obj
 0001:00038000       ?_Release@?$_Uninitialized_backout_al@V?$allocator@PAVGraphicElement@@@std@@@std@@QAEPAPAVGraphicElement@@XZ 10039000 f i ElementHandler.obj
 0001:00038020       ?_Release@_Fake_proxy_ptr_impl@std@@QAEXXZ 10039020 f i ElementHandler.obj
 0001:00038030       ?_Tidy@?$list@PAVGraphicElement@@V?$allocator@PAVGraphicElement@@@std@@@std@@AAEXXZ 10039030 f i ElementHandler.obj
 0001:00038080       ?_Transfer_back@_List_node_remove_op@?$list@PAVGraphicElement@@V?$allocator@PAVGraphicElement@@@std@@@std@@QAEPAU?$_List_node@PAVGraphicElement@@PAX@3@QAU43@@Z 10039080 f i ElementHandler.obj
 0001:000380f0       ?_Transfer_before@?$_List_node_emplace_op2@V?$allocator@U?$_List_node@PAVGraphicElement@@PAX@std@@@std@@@std@@QAEPAU?$_List_node@PAVGraphicElement@@PAX@2@QAU32@@Z 100390f0 f i ElementHandler.obj
 0001:00038160       ?_Unlinknode@?$_List_val@U?$_List_simple_types@PAVGraphicElement@@@std@@@std@@QAEPAU?$_List_node@PAVGraphicElement@@PAX@2@PAU32@@Z 10039160 f i ElementHandler.obj
 0001:000381b0       ?_Xlength@?$vector@PAVGraphicElement@@V?$allocator@PAVGraphicElement@@@std@@@std@@CGXXZ 100391b0 f i ElementHandler.obj
 0001:000381c0       ?allocate@?$allocator@U?$_List_node@PAVGraphicElement@@PAX@std@@@std@@QAEPAU?$_List_node@PAVGraphicElement@@PAX@2@I@Z 100391c0 f i ElementHandler.obj
 0001:000381e0       ?back@?$vector@PAVGraphicElement@@V?$allocator@PAVGraphicElement@@@std@@@std@@QAEAAPAVGraphicElement@@XZ 100391e0 f i ElementHandler.obj
 0001:00038210       ?begin@?$list@PAVGraphicElement@@V?$allocator@PAVGraphicElement@@@std@@@std@@QAE?AV?$_List_iterator@V?$_List_val@U?$_List_simple_types@PAVGraphicElement@@@std@@@std@@@2@XZ 10039210 f i ElementHandler.obj
 0001:00038240       ?capacity@?$vector@PAVGraphicElement@@V?$allocator@PAVGraphicElement@@@std@@@std@@QBEIXZ 10039240 f i ElementHandler.obj
 0001:00038270       ?deallocate@?$_Default_allocator_traits@V?$allocator@U?$_List_node@PAVGraphicElement@@PAX@std@@@std@@@std@@SGXAAV?$allocator@U?$_List_node@PAVGraphicElement@@PAX@std@@@2@QAU?$_List_node@PAVGraphicElement@@PAX@2@I@Z 10039270 f i ElementHandler.obj
 0001:00038290       ?deallocate@?$allocator@U?$_List_node@PAVGraphicElement@@PAX@std@@@std@@QAEXQAU?$_List_node@PAVGraphicElement@@PAX@2@I@Z 10039290 f i ElementHandler.obj
 0001:000382b0       ?empty@?$vector@PAVGraphicElement@@V?$allocator@PAVGraphicElement@@@std@@@std@@QBE_NXZ 100392b0 f i ElementHandler.obj
 0001:000382f0       ?end@?$list@PAVGraphicElement@@V?$allocator@PAVGraphicElement@@@std@@@std@@QAE?AV?$_List_iterator@V?$_List_val@U?$_List_simple_types@PAVGraphicElement@@@std@@@std@@@2@XZ 100392f0 f i ElementHandler.obj
 0001:00038320       ?erase@?$list@PAVGraphicElement@@V?$allocator@PAVGraphicElement@@@std@@@std@@QAE?AV?$_List_iterator@V?$_List_val@U?$_List_simple_types@PAVGraphicElement@@@std@@@std@@@2@V?$_List_const_iterator@V?$_List_val@U?$_List_simple_types@PAVGraphicElement@@@std@@@std@@@2@@Z 10039320 f i ElementHandler.obj
 0001:00038370       ?max_size@?$_Default_allocator_traits@V?$allocator@U?$_List_node@PAVGraphicElement@@PAX@std@@@std@@@std@@SGIABV?$allocator@U?$_List_node@PAVGraphicElement@@PAX@std@@@2@@Z 10039370 f i ElementHandler.obj
 0001:00038380       ?max_size@?$list@PAVGraphicElement@@V?$allocator@PAVGraphicElement@@@std@@@std@@QBEIXZ 10039380 f i ElementHandler.obj
 0001:000383c0       ?max_size@?$vector@PAVGraphicElement@@V?$allocator@PAVGraphicElement@@@std@@@std@@QBEIXZ 100393c0 f i ElementHandler.obj
 0001:00038400       ?pop_back@?$vector@PAVGraphicElement@@V?$allocator@PAVGraphicElement@@@std@@@std@@QAEXXZ 10039400 f i ElementHandler.obj
 0001:00038490       ?push_back@?$list@PAVGraphicElement@@V?$allocator@PAVGraphicElement@@@std@@@std@@QAEXABQAVGraphicElement@@@Z 10039490 f i ElementHandler.obj
 0001:000384b0       ?push_back@?$vector@PAVGraphicElement@@V?$allocator@PAVGraphicElement@@@std@@@std@@QAEXABQAVGraphicElement@@@Z 100394b0 f i ElementHandler.obj
 0001:000384d0       ?remove@?$list@PAVGraphicElement@@V?$allocator@PAVGraphicElement@@@std@@@std@@QAE@ABQAVGraphicElement@@@Z 100394d0 f i ElementHandler.obj
 0001:000384f6       _ImmIsIME@4                100394f6 f   imm32:IMM32.dll
 0001:000384fc       _ImmAssociateContext@8     100394fc f   imm32:IMM32.dll
 0001:00038502       _ImmGetCompositionStringA@16 10039502 f   imm32:IMM32.dll
 0001:00038508       _ImmGetCandidateListA@16   10039508 f   imm32:IMM32.dll
 0001:0003850e       _ImmEscapeA@16             1003950e f   imm32:IMM32.dll
 0001:00038514       _ImmNotifyIME@16           10039514 f   imm32:IMM32.dll
 0001:0003851a       _GetAsyncKeyState@4        1003951a f   user32:USER32.dll
 0001:00038520       _GetCursorPos@4            10039520 f   user32:USER32.dll
 0001:00038526       _SetWindowLongA@12         10039526 f   user32:USER32.dll
 0001:0003852c       _GetKeyState@4             1003952c f   user32:USER32.dll
 0001:00038532       _wsprintfA                 10039532 f   user32:USER32.dll
 0001:00038538       _GetForegroundWindow@0     10039538 f   user32:USER32.dll
 0001:0003853e       _GetClassNameA@12          1003953e f   user32:USER32.dll
 0001:00038544       _GetKeyboardLayout@4       10039544 f   user32:USER32.dll
 0001:0003854a       _SendMessageA@16           1003954a f   user32:USER32.dll
 0001:00038550       _DrawTextExA@24            10039550 f   user32:USER32.dll
 0001:00038556       _FillRect@12               10039556 f   user32:USER32.dll
 0001:0003855c       _CloseHandle@4             1003955c f   kernel32:KERNEL32.dll
 0001:00038562       _ReleaseMutex@4            10039562 f   kernel32:KERNEL32.dll
 0001:00038568       _WaitForSingleObject@8     10039568 f   kernel32:KERNEL32.dll
 0001:0003856e       _CreateMutexA@12           1003956e f   kernel32:KERNEL32.dll
 0001:00038574       _GetTickCount@0            10039574 f   kernel32:KERNEL32.dll
 0001:0003857a       _CreateFileA@28            1003957a f   kernel32:KERNEL32.dll
 0001:00038580       _ReadFile@20               10039580 f   kernel32:KERNEL32.dll
 0001:00038586       _GetLastError@0            10039586 f   kernel32:KERNEL32.dll
 0001:0003858c       _GetCurrentProcess@0       1003958c f   kernel32:KERNEL32.dll
 0001:00038592       _GetSystemDirectoryA@8     10039592 f   kernel32:KERNEL32.dll
 0001:00038598       _WriteProcessMemory@20     10039598 f   kernel32:KERNEL32.dll
 0001:0003859e       _MapViewOfFile@20          1003959e f   kernel32:KERNEL32.dll
 0001:000385a4       _UnmapViewOfFile@4         100395a4 f   kernel32:KERNEL32.dll
 0001:000385aa       _FreeLibrary@4             100395aa f   kernel32:KERNEL32.dll
 0001:000385b0       _GetProcAddress@8          100395b0 f   kernel32:KERNEL32.dll
 0001:000385b6       _LoadLibraryA@4            100395b6 f   kernel32:KERNEL32.dll
 0001:000385bc       _lstrcpyA@8                100395bc f   kernel32:KERNEL32.dll
 0001:000385c2       _lstrcatA@8                100395c2 f   kernel32:KERNEL32.dll
 0001:000385c8       _CreateFileMappingA@24     100395c8 f   kernel32:KERNEL32.dll
 0001:000385ce       _ReleaseSemaphore@12       100395ce f   kernel32:KERNEL32.dll
 0001:000385d4       _CreateSemaphoreA@16       100395d4 f   kernel32:KERNEL32.dll
 0001:000385da       _Sleep@4                   100395da f   kernel32:KERNEL32.dll
 0001:000385e0       _CreateThread@24           100395e0 f   kernel32:KERNEL32.dll
 0001:000385e6       _VirtualProtect@16         100395e6 f   kernel32:KERNEL32.dll
 0001:000385ec       _CreateDirectoryA@8        100395ec f   kernel32:KERNEL32.dll
 0001:000385f2       _FindClose@4               100395f2 f   kernel32:KERNEL32.dll
 0001:000385f8       _FindFirstFileA@8          100395f8 f   kernel32:KERNEL32.dll
 0001:000385fe       _GetFileSize@8             100395fe f   kernel32:KERNEL32.dll
 0001:00038604       _GetModuleHandleA@4        10039604 f   kernel32:KERNEL32.dll
 0001:0003860a       _lstrcmpiA@8               1003960a f   kernel32:KERNEL32.dll
 0001:00038610       _SetFilePointer@16         10039610 f   kernel32:KERNEL32.dll
 0001:00038616       _WriteFile@20              10039616 f   kernel32:KERNEL32.dll
 0001:0003861c       _AddVectoredExceptionHandler@8 1003961c f   kernel32:KERNEL32.dll
 0001:00038622       _RemoveVectoredExceptionHandler@4 10039622 f   kernel32:KERNEL32.dll
 0001:00038628       _EnterCriticalSection@4    10039628 f   kernel32:KERNEL32.dll
 0001:0003862e       _LeaveCriticalSection@4    1003962e f   kernel32:KERNEL32.dll
 0001:00038634       _GetTempPathA@8            10039634 f   kernel32:KERNEL32.dll
 0001:0003863a       _GetTempFileNameA@16       1003963a f   kernel32:KERNEL32.dll
 0001:00038640       _GetModuleFileNameA@12     10039640 f   kernel32:KERNEL32.dll
 0001:00038646       _GetPrivateProfileIntA@16  10039646 f   kernel32:KERNEL32.dll
 0001:0003864c       _GetPrivateProfileStringA@24 1003964c f   kernel32:KERNEL32.dll
 0001:00038652       _WritePrivateProfileStringA@16 10039652 f   kernel32:KERNEL32.dll
 0001:00038658       _IsDBCSLeadByte@4          10039658 f   kernel32:KERNEL32.dll
 0001:0003865e       _GetCurrentDirectoryA@8    1003965e f   kernel32:KERNEL32.dll
 0001:00038664       _GetFileAttributesA@4      10039664 f   kernel32:KERNEL32.dll
 0001:0003866a       _GetPrivateProfileSectionA@16 1003966a f   kernel32:KERNEL32.dll
 0001:00038670       _LoadResource@8            10039670 f   kernel32:KERNEL32.dll
 0001:00038676       _LockResource@4            10039676 f   kernel32:KERNEL32.dll
 0001:0003867c       _FindResourceA@12          1003967c f   kernel32:KERNEL32.dll
 0001:00038682       _IsBadWritePtr@8           10039682 f   kernel32:KERNEL32.dll
 0001:00038688       _GetCurrentThreadId@0      10039688 f   kernel32:KERNEL32.dll
 0001:0003868e       _CreateDCA@16              1003968e f   gdi32:GDI32.dll
 0001:00038694       _CreateDIBitmap@24         10039694 f   gdi32:GDI32.dll
 0001:0003869a       _CreatePalette@4           1003969a f   gdi32:GDI32.dll
 0001:000386a0       _DeleteDC@4                100396a0 f   gdi32:GDI32.dll
 0001:000386a6       _DeleteObject@4            100396a6 f   gdi32:GDI32.dll
 0001:000386ac       _GetDIBits@28              100396ac f   gdi32:GDI32.dll
 0001:000386b2       _SelectObject@8            100396b2 f   gdi32:GDI32.dll
 0001:000386b8       _SelectPalette@12          100396b8 f   gdi32:GDI32.dll
 0001:000386be       _TextOutA@20               100396be f   gdi32:GDI32.dll
 0001:000386c4       _CreateFontA@56            100396c4 f   gdi32:GDI32.dll
 0001:000386ca       _GetTextExtentPoint32A@16  100396ca f   gdi32:GDI32.dll
 0001:000386d0       _SetBkColor@8              100396d0 f   gdi32:GDI32.dll
 0001:000386d6       _SetTextColor@8            100396d6 f   gdi32:GDI32.dll
 0001:000386dc       _RegCloseKey@4             100396dc f   advapi32:ADVAPI32.dll
 0001:000386e2       _RegCreateKeyExA@36        100396e2 f   advapi32:ADVAPI32.dll
 0001:000386e8       _RegQueryValueExA@24       100396e8 f   advapi32:ADVAPI32.dll
 0001:000386ee       _RegSetValueExA@24         100396ee f   advapi32:ADVAPI32.dll
 0001:000386f4       ??2@YAPAXI@Z               100396f4 f   LIBCMT:new_scalar.obj
 0001:00038724       ??3@YAXPAXI@Z              10039724 f   LIBCMT:delete_scalar_size.obj
 0001:00038732       @__security_check_cookie@4 10039732 f   LIBCMT:secchk.obj
 0001:00038740       ??_U@YAPAXI@Z              10039740 f   LIBCMT:new_array.obj
 0001:00038749       ??1type_info@@UAE@XZ       10039749 f   LIBCMT:std_type_info_static.obj
 0001:00038750       ??_Etype_info@@UAEPAXI@Z   10039750 f i LIBCMT:std_type_info_static.obj
 0001:00038750       ??_Gtype_info@@UAEPAXI@Z   10039750 f i LIBCMT:std_type_info_static.obj
 0001:00038773       ??_V@YAXPAX@Z              10039773 f   LIBCMT:delete_array.obj
 0001:00038778       ___raise_securityfailure   10039778 f   LIBCMT:gs_report.obj
 0001:000387a0       ___report_gsfailure        100397a0 f   LIBCMT:gs_report.obj
 0001:0003889a       ___report_rangecheckfailure 1003989a f   LIBCMT:gs_report.obj
 0001:000388a6       ___report_securityfailure  100398a6 f   LIBCMT:gs_report.obj
 0001:00038975       ___report_securityfailureEx 10039975 f   LIBCMT:gs_report.obj
 0001:00038a90       __ftoui3                   10039a90 f   LIBCMT:ftol3.obj
 0001:00038ae0       __ftoul3                   10039ae0 f   LIBCMT:ftol3.obj
 0001:00038b50       __ftoul3_legacy            10039b50 f   LIBCMT:ftol3.obj
 0001:00038b80       __ftol3                    10039b80 f   LIBCMT:ftol3.obj
 0001:00038bf0       __dtoui3                   10039bf0 f   LIBCMT:ftol3.obj
 0001:00038c70       __dtoul3                   10039c70 f   LIBCMT:ftol3.obj
 0001:00038d20       __dtoul3_legacy            10039d20 f   LIBCMT:ftol3.obj
 0001:00038d50       __dtol3                    10039d50 f   LIBCMT:ftol3.obj
 0001:00038e00       __ultod3                   10039e00 f   LIBCMT:ftol3.obj
 0001:00038e60       __ltod3                    10039e60 f   LIBCMT:ftol3.obj
 0001:00038ea1       ??3@YAXPAX@Z               10039ea1 f   LIBCMT:delete_scalar.obj
 0001:00038eb0       __ftol2_sse_excpt          10039eb0 f   LIBCMT:ftol2.obj
 0001:00038ec0       __ftol2_sse                10039ec0 f   LIBCMT:ftol2.obj
 0001:00038ed0       __ftoi2                    10039ed0 f   LIBCMT:ftol2.obj
 0001:00038f50       __ftoui2                   10039f50 f   LIBCMT:ftol2.obj
 0001:00039000       __ftol2                    1003a000 f   LIBCMT:ftol2.obj
 0001:000390b0       __ftoul2                   1003a0b0 f   LIBCMT:ftol2.obj
 0001:00039170       __ftoul2_legacy            1003a170 f   LIBCMT:ftol2.obj
 0001:00039191       ??_L@YGXPAXIHP6EX0@Z1@Z    1003a191 f   LIBCMT:ehvecctr.obj
 0001:00039196       ??_L@YGXPAXIIP6EX0@Z1@Z    1003a196 f   LIBCMT:ehvecctr.obj
 0001:0003920a       ??_M@YGXPAXIHP6EX0@Z@Z     1003a20a f   LIBCMT:ehvecdtr.obj
 0001:0003920f       ??_M@YGXPAXIIP6EX0@Z@Z     1003a20f f   LIBCMT:ehvecdtr.obj
 0001:000392c3       ?__ArrayUnwind@@YGXPAXIIP6EX0@Z@Z 1003a2c3 f   LIBCMT:ehvecdtr.obj
 0001:00039693       __CRT_INIT@12              1003a693 f   LIBCMT:dll_dllmain.obj
 0001:0003969c       __DllMainCRTStartup@12     1003a69c f   LIBCMT:dll_dllmain.obj
 0001:000396bf       ??0bad_alloc@std@@QAE@XZ   1003a6bf f i LIBCMT:throw_bad_alloc.obj
 0001:000396d7       ?__scrt_throw_std_bad_alloc@@YAXXZ 1003a6d7 f   LIBCMT:throw_bad_alloc.obj
 0001:000396f4       ?__scrt_throw_std_bad_array_new_length@@YAXXZ 1003a6f4 f   LIBCMT:throw_bad_alloc.obj
 0001:00039711       ___isa_available_init      1003a711 f   LIBCMT:cpu_disp.obj
 0001:000398f0       __SEH_prolog4              1003a8f0 f   LIBCMT:sehprolg4.obj
 0001:00039940       __SEH_epilog4              1003a940 f   LIBCMT:sehprolg4.obj
 0001:00039954       @_guard_check_icall_nop@4  1003a954 f i LIBCMT:guard_support.obj
 0001:00039957       _ReadNoFence               1003a957 f i LIBCMT:guard_support.obj
 0001:00039961       _ReadPointerNoFence        1003a961 f i LIBCMT:guard_support.obj
 0001:0003996b       ___castguard_check_failure_debugbreak 1003a96b f i LIBCMT:guard_support.obj
 0001:00039986       ___castguard_check_failure_fastfail 1003a986 f i LIBCMT:guard_support.obj
 0001:000399a5       ___castguard_check_failure_nop 1003a9a5 f i LIBCMT:guard_support.obj
 0001:000399a8       ___castguard_check_failure_os_handled 1003a9a8 f i LIBCMT:guard_support.obj
 0001:00039a04       ___castguard_slow_path_check_debugbreak 1003aa04 f i LIBCMT:guard_support.obj
 0001:00039a31       ___castguard_slow_path_check_fastfail 1003aa31 f i LIBCMT:guard_support.obj
 0001:00039a62       ___castguard_slow_path_check_nop 1003aa62 f i LIBCMT:guard_support.obj
 0001:00039a65       ___castguard_slow_path_check_os_handled 1003aa65 f i LIBCMT:guard_support.obj
 0001:00039ac0       __guard_icall_checks_enforced 1003aac0 f i LIBCMT:guard_support.obj
 0001:00039b1f       ___security_init_cookie    1003ab1f f   LIBCMT:gs_support.obj
 0001:00039b6a       ?__scrt_initialize_type_info@@YAXXZ 1003ab6a f   LIBCMT:tncleanup.obj
 0001:00039b76       ?__scrt_uninitialize_type_info@@YAXXZ 1003ab76 f   LIBCMT:tncleanup.obj
 0001:00039b82       ___local_stdio_scanf_options 1003ab82 f i LIBCMT:default_local_stdio_options.obj
 0001:00039b88       ___scrt_initialize_default_local_stdio_options 1003ab88 f   LIBCMT:default_local_stdio_options.obj
 0001:00039ba5       ?configure_argv@__scrt_narrow_argv_policy@@SAHXZ 1003aba5 f i LIBCMT:utility.obj
 0001:00039bf6       ?initialize_environment@__scrt_narrow_environment_policy@@SAHXZ 1003abf6 f i LIBCMT:utility.obj
 0001:00039c2e       _NtCurrentTeb              1003ac2e f i LIBCMT:utility.obj
 0001:00039c35       ___scrt_acquire_startup_lock 1003ac35 f   LIBCMT:utility.obj
 0001:00039c67       ___scrt_dllmain_after_initialize_c 1003ac67 f   LIBCMT:utility.obj
 0001:00039c92       ___scrt_dllmain_before_initialize_c 1003ac92 f   LIBCMT:utility.obj
 0001:00039ca0       ___scrt_dllmain_crt_thread_attach 1003aca0 f   LIBCMT:utility.obj
 0001:00039cbf       ___scrt_dllmain_crt_thread_detach 1003acbf f   LIBCMT:utility.obj
 0001:00039ccc       ___scrt_dllmain_exception_filter 1003accc f   LIBCMT:utility.obj
 0001:00039d00       ___scrt_dllmain_uninitialize_c 1003ad00 f   LIBCMT:utility.obj
 0001:00039d23       ___scrt_dllmain_uninitialize_critical 1003ad23 f   LIBCMT:utility.obj
 0001:00039d30       ___scrt_initialize_crt     1003ad30 f   LIBCMT:utility.obj
 0001:00039d69       ___scrt_initialize_onexit_tables 1003ad69 f   LIBCMT:utility.obj
 0001:00039df0       ___scrt_is_nonwritable_in_current_image 1003adf0 f   LIBCMT:utility.obj
 0001:00039e84       ___scrt_release_startup_lock 1003ae84 f   LIBCMT:utility.obj
 0001:00039ea1       ___scrt_uninitialize_crt   1003aea1 f   LIBCMT:utility.obj
 0001:00039ec9       __onexit                   1003aec9 f   LIBCMT:utility.obj
 0001:00039ef6       _at_quick_exit             1003aef6 f   LIBCMT:utility.obj
 0001:00039f19       _atexit                    1003af19 f   LIBCMT:utility.obj
 0001:00039f2e       ___scrt_get_dyn_tls_init_callback 1003af2e f   LIBCMT:dyn_tls_init.obj
 0001:00039f34       ___scrt_fastfail           1003af34 f   LIBCMT:utility_desktop.obj
 0001:0003a04f       ___scrt_get_show_window_mode 1003b04f f   LIBCMT:utility_desktop.obj
 0001:0003a080       ___scrt_initialize_mta     1003b080 f   LIBCMT:utility_desktop.obj
 0001:0003a085       ___scrt_initialize_winrt   1003b085 f   LIBCMT:utility_desktop.obj
 0001:0003a088       ___scrt_is_managed_app     1003b088 f   LIBCMT:utility_desktop.obj
 0001:0003a0ca       ___scrt_set_unhandled_exception_filter 1003b0ca f   LIBCMT:utility_desktop.obj
 0001:0003a0d6       ___scrt_exe_initialize_mta 1003b0d6 f   LIBCMT:utility_desktop.obj
 0001:0003a0d6       ___scrt_stub_for_initialize_mta 1003b0d6 f   LIBCMT:utility_desktop.obj
 0001:0003a0d9       ___scrt_unhandled_exception_filter@4 1003b0d9 f   LIBCMT:utility_desktop.obj
 0001:0003a12f       __crt_debugger_hook        1003b12f f   LIBCMT:utility_desktop.obj
 0001:0003a137       __RTC_Initialize           1003b137 f   LIBCMT:initsect.obj
 0001:0003a163       __RTC_Terminate            1003b163 f   LIBCMT:initsect.obj
 0001:0003a18f       __get_startup_argv_mode    1003b18f f   LIBCMT:argv_mode.obj
 0001:0003a193       ___scrt_is_ucrt_dll_in_use 1003b193 f   LIBCMT:ucrt_detection.obj
 0001:0003a19f       ??0bad_function_call@std@@QAE@ABV01@@Z 1003b19f f i libcpmt:xthrow.obj
 0001:0003a1ba       ??0bad_function_call@std@@QAE@XZ 1003b1ba f i libcpmt:xthrow.obj
 0001:0003a1cb       ??0exception@std@@QAE@QBD@Z 1003b1cb f i libcpmt:xthrow.obj
 0001:0003a200       ??0exception@std@@QAE@XZ   1003b200 f i libcpmt:xthrow.obj
 0001:0003a211       ??0invalid_argument@std@@QAE@ABV01@@Z 1003b211 f i libcpmt:xthrow.obj
 0001:0003a22c       ??0invalid_argument@std@@QAE@PBD@Z 1003b22c f i libcpmt:xthrow.obj
 0001:0003a24b       ??0length_error@std@@QAE@ABV01@@Z 1003b24b f i libcpmt:xthrow.obj
 0001:0003a266       ??0length_error@std@@QAE@PBD@Z 1003b266 f i libcpmt:xthrow.obj
 0001:0003a285       ??0logic_error@std@@QAE@ABV01@@Z 1003b285 f i libcpmt:xthrow.obj
 0001:0003a2a0       ??0logic_error@std@@QAE@PBD@Z 1003b2a0 f i libcpmt:xthrow.obj
 0001:0003a2bf       ??0out_of_range@std@@QAE@ABV01@@Z 1003b2bf f i libcpmt:xthrow.obj
 0001:0003a2da       ??0out_of_range@std@@QAE@PBD@Z 1003b2da f i libcpmt:xthrow.obj
 0001:0003a2f9       ??0overflow_error@std@@QAE@ABV01@@Z 1003b2f9 f i libcpmt:xthrow.obj
 0001:0003a314       ??0overflow_error@std@@QAE@PBD@Z 1003b314 f i libcpmt:xthrow.obj
 0001:0003a333       ??0regex_error@std@@QAE@ABV01@@Z 1003b333 f i libcpmt:xthrow.obj
 0001:0003a357       ??0regex_error@std@@QAE@W4error_type@regex_constants@1@@Z 1003b357 f i libcpmt:xthrow.obj
 0001:0003a385       ??0runtime_error@std@@QAE@ABV01@@Z 1003b385 f i libcpmt:xthrow.obj
 0001:0003a3a0       ??0runtime_error@std@@QAE@PBD@Z 1003b3a0 f i libcpmt:xthrow.obj
 0001:0003a3bf       ??1bad_function_call@std@@UAE@XZ 1003b3bf f i libcpmt:xthrow.obj
 0001:0003a3d0       ??1invalid_argument@std@@UAE@XZ 1003b3d0 f i libcpmt:xthrow.obj
 0001:0003a3e1       ??1length_error@std@@UAE@XZ 1003b3e1 f i libcpmt:xthrow.obj
 0001:0003a3f2       ??1logic_error@std@@UAE@XZ 1003b3f2 f i libcpmt:xthrow.obj
 0001:0003a403       ??1out_of_range@std@@UAE@XZ 1003b403 f i libcpmt:xthrow.obj
 0001:0003a414       ??1overflow_error@std@@UAE@XZ 1003b414 f i libcpmt:xthrow.obj
 0001:0003a425       ??1regex_error@std@@UAE@XZ 1003b425 f i libcpmt:xthrow.obj
 0001:0003a436       ??1runtime_error@std@@UAE@XZ 1003b436 f i libcpmt:xthrow.obj
 0001:0003a447       ??_Ebad_function_call@std@@UAEPAXI@Z 1003b447 f i libcpmt:xthrow.obj
 0001:0003a447       ??_Gbad_function_call@std@@UAEPAXI@Z 1003b447 f i libcpmt:xthrow.obj
 0001:0003a474       ??_Einvalid_argument@std@@UAEPAXI@Z 1003b474 f i libcpmt:xthrow.obj
 0001:0003a474       ??_Ginvalid_argument@std@@UAEPAXI@Z 1003b474 f i libcpmt:xthrow.obj
 0001:0003a4a1       ??_Elength_error@std@@UAEPAXI@Z 1003b4a1 f i libcpmt:xthrow.obj
 0001:0003a4a1       ??_Glength_error@std@@UAEPAXI@Z 1003b4a1 f i libcpmt:xthrow.obj
 0001:0003a4ce       ??_Elogic_error@std@@UAEPAXI@Z 1003b4ce f i libcpmt:xthrow.obj
 0001:0003a4ce       ??_Glogic_error@std@@UAEPAXI@Z 1003b4ce f i libcpmt:xthrow.obj
 0001:0003a4fb       ??_Eout_of_range@std@@UAEPAXI@Z 1003b4fb f i libcpmt:xthrow.obj
 0001:0003a4fb       ??_Gout_of_range@std@@UAEPAXI@Z 1003b4fb f i libcpmt:xthrow.obj
 0001:0003a528       ??_Eoverflow_error@std@@UAEPAXI@Z 1003b528 f i libcpmt:xthrow.obj
 0001:0003a528       ??_Goverflow_error@std@@UAEPAXI@Z 1003b528 f i libcpmt:xthrow.obj
 0001:0003a555       ??_Eregex_error@std@@UAEPAXI@Z 1003b555 f i libcpmt:xthrow.obj
 0001:0003a555       ??_Gregex_error@std@@UAEPAXI@Z 1003b555 f i libcpmt:xthrow.obj
 0001:0003a582       ??_Eruntime_error@std@@UAEPAXI@Z 1003b582 f i libcpmt:xthrow.obj
 0001:0003a582       ??_Gruntime_error@std@@UAEPAXI@Z 1003b582 f i libcpmt:xthrow.obj
 0001:0003a5af       ?_Stringify@regex_error@std@@CAPBDW4error_type@regex_constants@2@@Z 1003b5af f i libcpmt:xthrow.obj
 0001:0003a66f       ?_Xbad_alloc@std@@YAXXZ    1003b66f f   libcpmt:xthrow.obj
 0001:0003a68c       ?_Xbad_function_call@std@@YAXXZ 1003b68c f   libcpmt:xthrow.obj
 0001:0003a6a9       ?_Xinvalid_argument@std@@YAXPBD@Z 1003b6a9 f   libcpmt:xthrow.obj
 0001:0003a6c9       ?_Xlength_error@std@@YAXPBD@Z 1003b6c9 f   libcpmt:xthrow.obj
 0001:0003a6e9       ?_Xout_of_range@std@@YAXPBD@Z 1003b6e9 f   libcpmt:xthrow.obj
 0001:0003a709       ?_Xoverflow_error@std@@YAXPBD@Z 1003b709 f   libcpmt:xthrow.obj
 0001:0003a729       ?_Xregex_error@std@@YAXW4error_type@regex_constants@1@@Z 1003b729 f   libcpmt:xthrow.obj
 0001:0003a749       ?_Xruntime_error@std@@YAXPBD@Z 1003b749 f   libcpmt:xthrow.obj
 0001:0003a769       ?what@bad_function_call@std@@UBEPBDXZ 1003b769 f i libcpmt:xthrow.obj
 0001:0003a770       _memcpy                    1003b770 f   libvcruntime:memcpy.obj
 0001:0003acf0       _memset                    1003bcf0 f   libvcruntime:memset.obj
 0001:0003ae4a       ??$?0AAViterator@TryBlockMap@__FrameHandler3@@AAV012@$0A@@?$pair@Viterator@TryBlockMap@__FrameHandler3@@V123@@std@@QAE@AAViterator@TryBlockMap@__FrameHandler3@@0@Z 1003be4a f i libvcruntime:trnsctrl.obj
 0001:0003ae6e       ??$forward@AAViterator@TryBlockMap@__FrameHandler3@@@std@@YAAAViterator@TryBlockMap@__FrameHandler3@@AAV123@@Z 1003be6e f i libvcruntime:trnsctrl.obj
 0001:0003ae76       ??0iterator@TryBlockMap@__FrameHandler3@@QAE@AAV12@I@Z 1003be76 f i libvcruntime:trnsctrl.obj
 0001:0003ae8a       ?GetRangeOfTrysToCheck@__FrameHandler3@@SA?AU?$pair@Viterator@TryBlockMap@__FrameHandler3@@V123@@std@@AAVTryBlockMap@1@HPAXPBU_s_FuncInfo@@H@Z 1003be8a f   libvcruntime:trnsctrl.obj
 0001:0003aefa       ?_CallCatchBlock2@@YAPAXPAUEHRegistrationNode@@PBU_s_FuncInfo@@PAXHK@Z 1003befa f   libvcruntime:trnsctrl.obj
 0001:0003af57       ?_CallSETranslator@@YAHPAUEHExceptionRecord@@PAUEHRegistrationNode@@PAX2PBU_s_FuncInfo@@H1@Z 1003bf57 f   libvcruntime:trnsctrl.obj
 0001:0003b04d       ?_JumpToContinuation@@YGXPAXPAUEHRegistrationNode@@@Z 1003c04d f   libvcruntime:trnsctrl.obj
 0001:0003b07d       ?_UnwindNestedFrames@@YGXPAUEHRegistrationNode@@PAUEHExceptionRecord@@@Z 1003c07d f   libvcruntime:trnsctrl.obj
 0001:0003b0d0       __CatchGuardHandler        1003c0d0 f   libvcruntime:trnsctrl.obj
 0001:0003b101       __CreateFrameInfo          1003c101 f   libvcruntime:trnsctrl.obj
 0001:0003b125       __FindAndUnlinkFrame       1003c125 f   libvcruntime:trnsctrl.obj
 0001:0003b16d       __TranslatorGuardHandler   1003c16d f   libvcruntime:trnsctrl.obj
 0001:0003b20a       ___CxxFrameHandler         1003c20a f   libvcruntime:trnsctrl.obj
 0001:0003b240       ___CxxFrameHandler2        1003c240 f   libvcruntime:trnsctrl.obj
 0001:0003b276       ___CxxFrameHandler3        1003c276 f   libvcruntime:trnsctrl.obj
 0001:0003b2ac       ___CxxLongjmpUnwind@4      1003c2ac f   libvcruntime:trnsctrl.obj
 0001:0003b2e0       _memmove                   1003c2e0 f   libvcruntime:memmove.obj
 0001:0003b854       ??$?RD@__crt_public_free_policy@@QBEXQBD@Z 1003c854 f i libvcruntime:std_exception.obj
 0001:0003b864       ??0?$__crt_unique_heap_ptr@DU__crt_public_free_policy@@@@QAE@QAD@Z 1003c864 f i libvcruntime:std_exception.obj
 0001:0003b872       ??1?$__crt_unique_heap_ptr@DU__crt_public_free_policy@@@@QAE@XZ 1003c872 f i libvcruntime:std_exception.obj
 0001:0003b882       ??B?$__crt_unique_heap_ptr@DU__crt_public_free_policy@@@@QBE_NXZ 1003c882 f i libvcruntime:std_exception.obj
 0001:0003b889       ?detach@?$__crt_unique_heap_ptr@DU__crt_public_free_policy@@@@QAEPADXZ 1003c889 f i libvcruntime:std_exception.obj
 0001:0003b88f       ?get@?$__crt_unique_heap_ptr@DU__crt_public_free_policy@@@@QBEPADXZ 1003c88f f i libvcruntime:std_exception.obj
 0001:0003b892       ?is_valid@?$__crt_unique_heap_ptr@DU__crt_public_free_policy@@@@QBE_NXZ 1003c892 f i libvcruntime:std_exception.obj
 0001:0003b899       ?release@?$__crt_unique_heap_ptr@DU__crt_public_free_policy@@@@QAEXXZ 1003c899 f i libvcruntime:std_exception.obj
 0001:0003b8a9       ___std_exception_copy      1003c8a9 f   libvcruntime:std_exception.obj
 0001:0003b90c       ___std_exception_destroy   1003c90c f   libvcruntime:std_exception.obj
 0001:0003b92b       __CxxThrowException@8      1003c92b f   libvcruntime:throw.obj
 0001:0003b9e0       __except_handler4          1003c9e0 f   libvcruntime:chandler4.obj
 0001:0003bb40       _strchr                    1003cb40 f   libvcruntime:strchr.obj
 0001:0003bbae       ___from_strstr_to_strchr   1003cbae     libvcruntime:strchr.obj
 0001:0003bc70       _strstr                    1003cc70 f   libvcruntime:strstr.obj
 0001:0003bff8       _memcmp                    1003cff8 f   libvcruntime:memcmp.obj
 0001:0003ec60       _strrchr                   1003fc60 f   libvcruntime:strrchr.obj
 0001:0003ed97       ___DestructExceptionObject 1003fd97 f   libvcruntime:ehhelpers.obj
 0001:0003ee38       ?_CallMemberFunction0@@YGXQAX0@Z 1003fe38 f i libvcruntime:ehhelpers.obj
 0001:0003ee9d       ?raw_name@type_info@@QBEPBDXZ 1003fe9d f i libvcruntime:ehhelpers.obj
 0001:0003eea1       __IsExceptionObjectToBeDestroyed 1003fea1 f   libvcruntime:ehhelpers.obj
 0001:0003eec7       __SetWinRTOutOfMemoryExceptionCallback 1003fec7 f   libvcruntime:ehhelpers.obj
 0001:0003eed4       ___AdjustPointer           1003fed4 f   libvcruntime:ehhelpers.obj
 0001:0003eef9       ___FrameUnwindFilter       1003fef9 f   libvcruntime:ehhelpers.obj
 0001:0003ef4f       ___GetPlatformExceptionInfo 1003ff4f f   libvcruntime:ehhelpers.obj
 0001:0003ef9b       ___current_exception       1003ff9b f   libvcruntime:ehhelpers.obj
 0001:0003efa4       ___current_exception_context 1003ffa4 f   libvcruntime:ehhelpers.obj
 0001:0003efad       ___processing_throw        1003ffad f   libvcruntime:ehhelpers.obj
 0001:0003efb6       ___std_terminate           1003ffb6 f   libvcruntime:ehhelpers.obj
 0001:0003efbb       __is_exception_typeof      1003ffbb f   libvcruntime:ehhelpers.obj
 0001:0003f06d       ??$?RD@__crt_internal_free_policy@@QBEXQBD@Z 1004006d f i libvcruntime:std_type_info.obj
 0001:0003f07d       ??$?RX@__crt_internal_free_policy@@QBEXQBX@Z 1004007d f i libvcruntime:std_type_info.obj
 0001:0003f08d       ??$__crt_interlocked_compare_exchange_pointer@$$CBDPAD$$T@@YAPBDPDSBDQAD$$T@Z 1004008d f i libvcruntime:std_type_info.obj
 0001:0003f09f       ??$__crt_interlocked_read_pointer@$$CBD@@YAPBDPDSBD@Z 1004009f f i libvcruntime:std_type_info.obj
 0001:0003f0aa       ??0?$__crt_unique_heap_ptr@DU__crt_internal_free_policy@@@@QAE@QAD@Z 100400aa f i libvcruntime:std_type_info.obj
 0001:0003f0b8       ??0?$__crt_unique_heap_ptr@XU__crt_internal_free_policy@@@@QAE@QAX@Z 100400b8 f i libvcruntime:std_type_info.obj
 0001:0003f0c6       ??1?$__crt_unique_heap_ptr@DU__crt_internal_free_policy@@@@QAE@XZ 100400c6 f i libvcruntime:std_type_info.obj
 0001:0003f0d6       ??1?$__crt_unique_heap_ptr@XU__crt_internal_free_policy@@@@QAE@XZ 100400d6 f i libvcruntime:std_type_info.obj
 0001:0003f0e6       ??B?$__crt_unique_heap_ptr@DU__crt_internal_free_policy@@@@QBE_NXZ 100400e6 f i libvcruntime:std_type_info.obj
 0001:0003f0ed       ??B?$__crt_unique_heap_ptr@XU__crt_internal_free_policy@@@@QBE_NXZ 100400ed f i libvcruntime:std_type_info.obj
 0001:0003f120       ?__crt_interlocked_read_32@@YAHPDH@Z 10040120 f i libvcruntime:std_type_info.obj
 0001:0003f12b       ?detach@?$__crt_unique_heap_ptr@XU__crt_internal_free_policy@@@@QAEPAXXZ 1004012b f i libvcruntime:std_type_info.obj
 0001:0003f131       ?get@?$__crt_unique_heap_ptr@DU__crt_internal_free_policy@@@@QBEPADXZ 10040131 f i libvcruntime:std_type_info.obj
 0001:0003f134       ?get@?$__crt_unique_heap_ptr@XU__crt_internal_free_policy@@@@QBEPAXXZ 10040134 f i libvcruntime:std_type_info.obj
 0001:0003f137       ?is_valid@?$__crt_unique_heap_ptr@DU__crt_internal_free_policy@@@@QBE_NXZ 10040137 f i libvcruntime:std_type_info.obj
 0001:0003f13e       ?is_valid@?$__crt_unique_heap_ptr@XU__crt_internal_free_policy@@@@QBE_NXZ 1004013e f i libvcruntime:std_type_info.obj
 0001:0003f145       ?release@?$__crt_unique_heap_ptr@DU__crt_internal_free_policy@@@@QAEXXZ 10040145 f i libvcruntime:std_type_info.obj
 0001:0003f155       ?release@?$__crt_unique_heap_ptr@XU__crt_internal_free_policy@@@@QAEXXZ 10040155 f i libvcruntime:std_type_info.obj
 0001:0003f165       ___std_type_info_compare   10040165 f   libvcruntime:std_type_info.obj
 0001:0003f1a1       ___std_type_info_destroy_list 100401a1 f   libvcruntime:std_type_info.obj
 0001:0003f1c4       ___std_type_info_hash      100401c4 f   libvcruntime:std_type_info.obj
 0001:0003f1ea       ___std_type_info_name      100401ea f   libvcruntime:std_type_info.obj
 0001:0003f2b0       ___vcrt_initialize         100402b0 f   libvcruntime:initialization.obj
 0001:0003f2cf       ___vcrt_thread_attach      100402cf f   libvcruntime:initialization.obj
 0001:0003f2da       ___vcrt_thread_detach      100402da f   libvcruntime:initialization.obj
 0001:0003f2e5       ___vcrt_uninitialize       100402e5 f   libvcruntime:initialization.obj
 0001:0003f2fc       ___vcrt_uninitialize_critical 100402fc f   libvcruntime:initialization.obj
 0001:0003f307       ??$?RU__vcrt_ptd@@@__crt_internal_free_policy@@QBEXQBU__vcrt_ptd@@@Z 10040307 f i libvcruntime:per_thread_data.obj
 0001:0003f317       ??0?$__crt_unique_heap_ptr@U__vcrt_ptd@@U__crt_internal_free_policy@@@@QAE@QAU__vcrt_ptd@@@Z 10040317 f i libvcruntime:per_thread_data.obj
 0001:0003f334       ??1?$__crt_unique_heap_ptr@U__vcrt_ptd@@U__crt_internal_free_policy@@@@QAE@XZ 10040334 f i libvcruntime:per_thread_data.obj
 0001:0003f34d       ??B?$__crt_unique_heap_ptr@U__vcrt_ptd@@U__crt_internal_free_policy@@@@QBE_NXZ 1004034d f i libvcruntime:per_thread_data.obj
 0001:0003f354       ?detach@?$__crt_unique_heap_ptr@U__vcrt_ptd@@U__crt_internal_free_policy@@@@QAEPAU__vcrt_ptd@@XZ 10040354 f i libvcruntime:per_thread_data.obj
 0001:0003f35a       ?get@?$__crt_unique_heap_ptr@U__vcrt_ptd@@U__crt_internal_free_policy@@@@QBEPAU__vcrt_ptd@@XZ 1004035a f i libvcruntime:per_thread_data.obj
 0001:0003f35d       ?is_valid@?$__crt_unique_heap_ptr@U__vcrt_ptd@@U__crt_internal_free_policy@@@@QBE_NXZ 1004035d f i libvcruntime:per_thread_data.obj
 0001:0003f364       ?release@?$__crt_unique_heap_ptr@U__vcrt_ptd@@U__crt_internal_free_policy@@@@QAEXXZ 10040364 f i libvcruntime:per_thread_data.obj
 0001:0003f38e       ___vcrt_freefls@4          1004038e f   libvcruntime:per_thread_data.obj
 0001:0003f3aa       ___vcrt_freeptd            100403aa f   libvcruntime:per_thread_data.obj
 0001:0003f3e0       ___vcrt_getptd             100403e0 f   libvcruntime:per_thread_data.obj
 0001:0003f3ee       ___vcrt_getptd_noexit      100403ee f   libvcruntime:per_thread_data.obj
 0001:0003f480       ___vcrt_getptd_noinit      10040480 f   libvcruntime:per_thread_data.obj
 0001:0003f4b7       ___vcrt_initialize_ptd     100404b7 f   libvcruntime:per_thread_data.obj
 0001:0003f4ea       ___vcrt_uninitialize_ptd   100404ea f   libvcruntime:per_thread_data.obj
 0001:0003fc37       ??$TypeMatchHelper@V__FrameHandler3@@@@YAHPBU_s_HandlerType@@PBU_s_CatchableType@@PBU_s_ThrowInfo@@@Z 10040c37 f i libvcruntime:frame.obj
 0001:0003fcc5       ??$__InternalCxxFrameHandler@V__FrameHandler3@@@@YA?AW4_EXCEPTION_DISPOSITION@@PAUEHExceptionRecord@@PAUEHRegistrationNode@@PAU_CONTEXT@@PAXPBU_s_FuncInfo@@H1E@Z 10040cc5 f i libvcruntime:frame.obj
 0001:0003fdc7       ??0HandlerMap@__FrameHandler3@@QAE@PBU_s_TryBlockMapEntry@@II@Z 10040dc7 f i libvcruntime:frame.obj
 0001:0003fdde       ??0TryBlockMap@__FrameHandler3@@QAE@PBU_s_FuncInfo@@I@Z 10040dde f i libvcruntime:frame.obj
 0001:0003fdf2       ??0bad_exception@std@@QAE@ABV01@@Z 10040df2 f i libvcruntime:frame.obj
 0001:0003fe0d       ??0bad_exception@std@@QAE@XZ 10040e0d f i libvcruntime:frame.obj
 0001:0003fe25       ??0iterator@HandlerMap@__FrameHandler3@@QAE@AAV12@I@Z 10040e25 f i libvcruntime:frame.obj
 0001:0003fe39       ??1bad_exception@std@@UAE@XZ 10040e39 f i libvcruntime:frame.obj
 0001:0003fe4a       ??8iterator@HandlerMap@__FrameHandler3@@QBE_NABV012@@Z 10040e4a f i libvcruntime:frame.obj
 0001:0003fe5d       ??8type_info@@QBE_NABV0@@Z 10040e5d f i libvcruntime:frame.obj
 0001:0003fe7c       ??9iterator@HandlerMap@__FrameHandler3@@QBE_NABV012@@Z 10040e7c f i libvcruntime:frame.obj
 0001:0003fe8f       ??Diterator@HandlerMap@__FrameHandler3@@QAE?BU_s_HandlerType@@XZ 10040e8f f i libvcruntime:frame.obj
 0001:0003feae       ??Diterator@TryBlockMap@__FrameHandler3@@QAE?BU_s_TryBlockMapEntry@@XZ 10040eae f i libvcruntime:frame.obj
 0001:0003fed0       ??Eiterator@HandlerMap@__FrameHandler3@@QAEAAV012@XZ 10040ed0 f i libvcruntime:frame.obj
 0001:0003fed6       ??Eiterator@TryBlockMap@__FrameHandler3@@QAEAAV012@XZ 10040ed6 f i libvcruntime:frame.obj
 0001:0003fedc       ??Miterator@TryBlockMap@__FrameHandler3@@QBE_NABV012@@Z 10040edc f i libvcruntime:frame.obj
 0001:0003feef       ??_Ebad_exception@std@@UAEPAXI@Z 10040eef f i libvcruntime:frame.obj
 0001:0003feef       ??_Gbad_exception@std@@UAEPAXI@Z 10040eef f i libvcruntime:frame.obj
 0001:0003ff1c       ?BuildCatchObject@__FrameHandler3@@SAXPAUEHExceptionRecord@@PAXPBU_s_HandlerType@@PBU_s_CatchableType@@@Z 10040f1c f   libvcruntime:frame.obj
 0001:0003ff21       ?BuildCatchObjectHelper@__FrameHandler3@@SAHPAUEHExceptionRecord@@PAXPBU_s_HandlerType@@PBU_s_CatchableType@@@Z 10040f21 f   libvcruntime:frame.obj
 0001:00040182       ?FrameUnwindToEmptyState@__FrameHandler3@@SAXPAUEHRegistrationNode@@PAXPBU_s_FuncInfo@@@Z 10041182 f   libvcruntime:frame.obj
 0001:0004019a       ?FrameUnwindToState@__FrameHandler3@@SAXPAUEHRegistrationNode@@PAXPBU_s_FuncInfo@@H@Z 1004119a f   libvcruntime:frame.obj
 0001:00040282       ?GetMaxState@__FrameHandler3@@SAHPAXPBU_s_FuncInfo@@@Z 10041282 f i libvcruntime:frame.obj
 0001:00040360       ?TypeMatch@__FrameHandler3@@SAHPBU_s_HandlerType@@PBU_s_CatchableType@@PBU_s_ThrowInfo@@@Z 10041360 f   libvcruntime:frame.obj
 0001:00040369       ?_CallMemberFunction1@@YGXQAX00@Z 10041369 f i libvcruntime:frame.obj
 0001:00040379       ?_CallMemberFunction2@@YGXQAX00H@Z 10041379 f i libvcruntime:frame.obj
 0001:0004038c       ?begin@HandlerMap@__FrameHandler3@@QAE?AViterator@12@XZ 1004138c f i libvcruntime:frame.obj
 0001:0004039c       ?end@HandlerMap@__FrameHandler3@@QAE?AViterator@12@XZ 1004139c f i libvcruntime:frame.obj
 0001:000403ad       ?getESTypes@__FrameHandler3@@SAPBU_s_ESTypeList@@PBU_s_FuncInfo@@@Z 100413ad f i libvcruntime:frame.obj
 0001:000403b8       ?getLastEntry@HandlerMap@__FrameHandler3@@QAEPBU_s_HandlerType@@XZ 100413b8 f i libvcruntime:frame.obj
 0001:000403c6       ?getMagicNum@__FrameHandler3@@SAIPBU_s_FuncInfo@@@Z 100413c6 f i libvcruntime:frame.obj
 0001:000403d5       ?getNumTryBlocks@TryBlockMap@__FrameHandler3@@QAEIXZ 100413d5 f i libvcruntime:frame.obj
 0001:000403db       ?isEHs@__FrameHandler3@@SA_NPBU_s_FuncInfo@@@Z 100413db f i libvcruntime:frame.obj
 0001:000403e8       ?isNoExcept@__FrameHandler3@@SA_NPBU_s_FuncInfo@@@Z 100413e8 f i libvcruntime:frame.obj
 0001:000403f8       ___BuildCatchObject        100413f8 f   libvcruntime:frame.obj
 0001:000403fd       ___BuildCatchObjectHelper  100413fd f   libvcruntime:frame.obj
 0001:00040406       ___TypeMatch               10041406 f   libvcruntime:frame.obj
 0001:0004040f       ___vcrt_EncodePointer      1004140f f i libvcruntime:frame.obj
 0001:00040420       __CallSettingFrame@12      10041420 f   libvcruntime:lowhelpr.obj
 0001:00040447       __NLG_Return               10041447     libvcruntime:lowhelpr.obj
 0001:00040477       ___except_validate_context_record 10041477 f   libvcruntime:jbcxrval.obj
 0001:000404a7       ___except_validate_jump_buffer 100414a7 f   libvcruntime:jbcxrval.obj
 0001:000404d4       ___except_validate_jump_buffer_common 100414d4 f i libvcruntime:jbcxrval.obj
 0001:00040510       __local_unwind4            10041510 f   libvcruntime:exsup4.obj
 0001:00040600       __seh_longjmp_unwind4@4    10041600 f   libvcruntime:exsup4.obj
 0001:00040630       @_EH4_CallFilterFunc@8     10041630 f   libvcruntime:exsup4.obj
 0001:00040650       @_EH4_TransferToHandler@8  10041650 f   libvcruntime:exsup4.obj
 0001:00040670       @_EH4_GlobalUnwind2@8      10041670 f   libvcruntime:exsup4.obj
 0001:00040690       @_EH4_LocalUnwind@16       10041690 f   libvcruntime:exsup4.obj
 0001:000406a7       ??$?0$00@DName@@QAE@PBDU?$StringLifeSelector@$00@@@Z 100416a7 f i libvcruntime:undname.obj
 0001:000406da       ??$?0$00@pcharNode@@QAE@PBDHU?$StringLifeSelector@$00@@@Z 100416da f i libvcruntime:undname.obj
 0001:000406f5       ??$?0$01@DName@@QAE@PBDU?$StringLifeSelector@$01@@@Z 100416f5 f i libvcruntime:undname.obj
 0001:00040728       ??$?0$01@pcharNode@@QAE@PBDHU?$StringLifeSelector@$01@@@Z 10041728 f i libvcruntime:undname.obj
 0001:00040768       ??$?0$0A@@DName@@QAE@PBDU?$StringLifeSelector@$0A@@@@Z 10041768 f i libvcruntime:undname.obj
 0001:0004079b       ??$?0$0A@@pcharNode@@QAE@PBDHU?$StringLifeSelector@$0A@@@@Z 1004179b f i libvcruntime:undname.obj
 0001:000407db       ??$?0_K$0A@@?$optional@_K@std@@QAE@$$QA_K@Z 100417db f i libvcruntime:undname.obj
 0001:000407f5       ??$?0_K@?$_Optional_construct_base@_K@std@@QAE@Uin_place_t@1@$$QA_K@Z 100417f5 f i libvcruntime:undname.obj
 0001:0004080f       ??$?0_K@?$_Optional_destruct_base@_K$00@std@@QAE@Uin_place_t@1@$$QA_K@Z 1004180f f i libvcruntime:undname.obj
 0001:00040829       ??$append@VDNameNode@@@DName@@AAEXPBVDNameNode@@@Z 10041829 f i libvcruntime:undname.obj
 0001:0004086a       ??$append@VDNameStatusNode@@@DName@@AAEXPBVDNameStatusNode@@@Z 1004186a f i libvcruntime:undname.obj
 0001:000408ab       ??$append@VcharNode@@@DName@@AAEXPBVcharNode@@@Z 100418ab f i libvcruntime:undname.obj
 0001:000408ec       ??$append@VpDNameNode@@@DName@@AAEXPBVpDNameNode@@@Z 100418ec f i libvcruntime:undname.obj
 0001:0004092d       ??$append@VpcharNode@@@DName@@AAEXPBVpcharNode@@@Z 1004192d f i libvcruntime:undname.obj
 0001:0004096e       ??$doPchar@$00@DName@@AAEXPBDH@Z 1004196e f i libvcruntime:undname.obj
 0001:000409d9       ??$doPchar@$01@DName@@AAEXPBDH@Z 100419d9 f i libvcruntime:undname.obj
 0001:00040a4a       ??$doPchar@$0A@@DName@@AAEXPBDH@Z 10041a4a f i libvcruntime:undname.obj
 0001:00040abb       ??$forward@_K@std@@YA$$QA_KAA_K@Z 10041abb f i libvcruntime:undname.obj
 0001:00040b7f       ??$size@D$04@std@@YAIAAY04$$CBD@Z 10041b7f f i libvcruntime:undname.obj
 0001:00040b83       ??0?$_Optional_construct_base@_K@std@@QAE@XZ 10041b83 f i libvcruntime:undname.obj
 0001:00040b8a       ??0?$_Optional_destruct_base@_K$00@std@@QAE@XZ 10041b8a f i libvcruntime:undname.obj
 0001:00040b91       ??0?$optional@_K@std@@QAE@XZ 10041b91 f i libvcruntime:undname.obj
 0001:00040b98       ??0Block@_HeapManager@@QAE@XZ 10041b98 f i libvcruntime:undname.obj
 0001:00040b9e       ??0DName@@QAE@AAPBDD@Z     10041b9e f   libvcruntime:undname.obj
 0001:00040c1e       ??0DName@@QAE@ABUStringLiteral@@@Z 10041c1e f   libvcruntime:undname.obj
 0001:00040c45       ??0DName@@QAE@ABV0@@Z      10041c45 f i libvcruntime:undname.obj
 0001:00040c5b       ??0DName@@QAE@D@Z          10041c5b f   libvcruntime:undname.obj
 0001:00040c77       ??0DName@@QAE@PAV0@@Z      10041c77 f   libvcruntime:undname.obj
 0001:00040cc0       ??0DName@@QAE@W4DNameStatus@@@Z 10041cc0 f   libvcruntime:undname.obj
 0001:00040d00       ??0DName@@QAE@XZ           10041d00 f i libvcruntime:undname.obj
 0001:00040d0a       ??0DName@@QAE@_J@Z         10041d0a f   libvcruntime:undname.obj
 0001:00040d9d       ??0DName@@QAE@_K@Z         10041d9d f   libvcruntime:undname.obj
 0001:00040e0f       ??0DNameNode@@IAE@XZ       10041e0f f i libvcruntime:undname.obj
 0001:00040e18       ??0Replicator@@QAE@XZ      10041e18 f i libvcruntime:undname.obj
 0001:00040e27       ??0UnDecorator@@QAE@PBDP6APADJ@ZK@Z 10041e27 f i libvcruntime:undname.obj
 0001:00040e73       ??0_Nontrivial_dummy_type@std@@QAE@XZ 10041e73 f i libvcruntime:undname.obj
 0001:00040e76       ??0charNode@@QAE@D@Z       10041e76 f i libvcruntime:undname.obj
 0001:00040e8b       ??0pDNameNode@@QAE@PAVDName@@@Z 10041e8b f   libvcruntime:undname.obj
 0001:00040eb3       ??0pairNode@@QAE@PBVDNameNode@@0@Z 10041eb3 f i libvcruntime:undname.obj
 0001:00040ed9       ??2@YAPAXIAAV_HeapManager@@H@Z 10041ed9 f   libvcruntime:undname.obj
 0001:00040ef8       ??4DName@@QAEAAV0@ABUStringLiteral@@@Z 10041ef8 f   libvcruntime:undname.obj
 0001:00040f19       ??4DName@@QAEAAV0@ABV0@@Z  10041f19 f   libvcruntime:undname.obj
 0001:00040f2f       ??4DName@@QAEAAV0@D@Z      10041f2f f i libvcruntime:undname.obj
 0001:00040f4b       ??4DName@@QAEAAV0@PAV0@@Z  10041f4b f   libvcruntime:undname.obj
 0001:00040f8e       ??4DName@@QAEAAV0@W4DNameStatus@@@Z 10041f8e f   libvcruntime:undname.obj
 0001:00040fc0       ??AReplicator@@QBE?AVDName@@H@Z 10041fc0 f   libvcruntime:undname.obj
 0001:00040ffc       ??B?$optional@_K@std@@QBE_NXZ 10041ffc f i libvcruntime:undname.obj
 0001:00041000       ??D?$_Optional_construct_base@_K@std@@QGAEAA_KXZ 10042000 f i libvcruntime:undname.obj
 0001:00041003       ??H@YA?AVDName@@ABUStringLiteral@@ABV0@@Z 10042003 f i libvcruntime:undname.obj
 0001:00041025       ??H@YA?AVDName@@DABV0@@Z   10042025 f i libvcruntime:undname.obj
 0001:00041050       ??H@YA?AVDName@@W4DNameStatus@@ABV0@@Z 10042050 f i libvcruntime:undname.obj
 0001:00041072       ??HDName@@QBE?AV0@ABUStringLiteral@@@Z 10042072 f   libvcruntime:undname.obj
 0001:00041094       ??HDName@@QBE?AV0@ABV0@@Z  10042094 f   libvcruntime:undname.obj
 0001:000410b6       ??HDName@@QBE?AV0@D@Z      100420b6 f   libvcruntime:undname.obj
 0001:000410d8       ??HDName@@QBE?AV0@PAV0@@Z  100420d8 f   libvcruntime:undname.obj
 0001:000410fa       ??HDName@@QBE?AV0@W4DNameStatus@@@Z 100420fa f   libvcruntime:undname.obj
 0001:0004111c       ??HStringLiteral@@QBE?AU0@H@Z 1004211c f i libvcruntime:undname.obj
 0001:00041136       ??YDName@@QAEAAV0@ABUStringLiteral@@@Z 10042136 f   libvcruntime:undname.obj
 0001:0004118e       ??YDName@@QAEAAV0@ABV0@@Z  1004218e f   libvcruntime:undname.obj
 0001:000411e5       ??YDName@@QAEAAV0@D@Z      100421e5 f   libvcruntime:undname.obj
 0001:0004123a       ??YDName@@QAEAAV0@PAV0@@Z  1004223a f   libvcruntime:undname.obj
 0001:0004129e       ??YDName@@QAEAAV0@W4DNameStatus@@@Z 1004229e f   libvcruntime:undname.obj
 0001:000412de       ??YReplicator@@QAEAAV0@ABVDName@@@Z 100422de f   libvcruntime:undname.obj
 0001:0004131e       ??_5DName@@QAEAAV0@ABV0@@Z 1004231e f   libvcruntime:undname.obj
 0001:0004133a       ??__K_l@@YA?AUStringLiteral@@PBDI@Z 1004233a f i libvcruntime:undname.obj
 0001:00041345       ?Constructor@_HeapManager@@QAEXP6APAXI@ZP6AXPAX@Z@Z 10042345 f i libvcruntime:undname.obj
 0001:00041362       ?Destructor@_HeapManager@@QAEXXZ 10042362 f i libvcruntime:undname.obj
 0001:000413a6       ?UScore@UnDecorator@@SA?AUStringLiteral@@W4Tokens@@@Z 100423a6 f   libvcruntime:undname.obj
 0001:000413cd       ?composeDeclaration@UnDecorator@@CA?AVDName@@ABV2@@Z 100423cd f i libvcruntime:undname.obj
 0001:000420c5       ?doAccessSpecifiers@UnDecorator@@SAHXZ 100430c5 f i libvcruntime:undname.obj
 0001:000420d3       ?doAllocationLanguage@UnDecorator@@SAHXZ 100430d3 f i libvcruntime:undname.obj
 0001:000420e1       ?doAllocationModel@UnDecorator@@SAHXZ 100430e1 f i libvcruntime:undname.obj
 0001:000420ef       ?doEcsu@UnDecorator@@SAHXZ 100430ef f i libvcruntime:undname.obj
 0001:000420fd       ?doEllipsis@UnDecorator@@SAHXZ 100430fd f i libvcruntime:undname.obj
 0001:0004210b       ?doFunctionReturns@UnDecorator@@SAHXZ 1004310b f i libvcruntime:undname.obj
 0001:00042119       ?doMSKeywords@UnDecorator@@SAHXZ 10043119 f i libvcruntime:undname.obj
 0001:00042126       ?doMemberTypes@UnDecorator@@SAHXZ 10043126 f i libvcruntime:undname.obj
 0001:00042134       ?doNameOnly@UnDecorator@@SAHXZ 10043134 f i libvcruntime:undname.obj
 0001:0004213f       ?doNoIdentCharCheck@UnDecorator@@SAHXZ 1004313f f i libvcruntime:undname.obj
 0001:0004214a       ?doPchar@DName@@AAEXD@Z    1004314a f   libvcruntime:undname.obj
 0001:00042182       ?doPtr64@UnDecorator@@SAHXZ 10043182 f i libvcruntime:undname.obj
 0001:00042190       ?doRestrictionSpec@UnDecorator@@SAHXZ 10043190 f i libvcruntime:undname.obj
 0001:0004219e       ?doThisTypes@UnDecorator@@SAHXZ 1004319e f i libvcruntime:undname.obj
 0001:000421b0       ?doThrowTypes@UnDecorator@@SAHXZ 100431b0 f i libvcruntime:undname.obj
 0001:000421be       ?doTypeOnly@UnDecorator@@SAHXZ 100431be f i libvcruntime:undname.obj
 0001:000421c9       ?doUnderScore@UnDecorator@@SAHXZ 100431c9 f i libvcruntime:undname.obj
 0001:000421d4       ?getAddressOf@UnDecorator@@CA?AVDName@@XZ 100431d4 f   libvcruntime:undname.obj
 0001:0004223c       ?getArgumentList@UnDecorator@@CA?AVDName@@XZ 1004323c f   libvcruntime:undname.obj
 0001:000423a6       ?getArgumentTypes@UnDecorator@@CA?AVDName@@XZ 100433a6 f   libvcruntime:undname.obj
 0001:000424ae       ?getArrayAccess@UnDecorator@@CA?AVDName@@XZ 100434ae f   libvcruntime:undname.obj
 0001:00042522       ?getArrayObject@UnDecorator@@CA?AVDName@@XZ 10043522 f   libvcruntime:undname.obj
 0001:000425ad       ?getArrayType@UnDecorator@@CA?AVDName@@ABV2@@Z 100435ad f i libvcruntime:undname.obj
 0001:0004274a       ?getBasedType@UnDecorator@@CA?AVDName@@XZ 1004374a f   libvcruntime:undname.obj
 0001:00042800       ?getBasicDataType@UnDecorator@@CA?AVDName@@ABV2@@Z 10043800 f   libvcruntime:undname.obj
 0001:00042d68       ?getCHPEName@UnDecorator@@QAEPADPADH@Z 10043d68 f i libvcruntime:undname.obj
 0001:00042e45       ?getCallIndex@UnDecorator@@CA?AVDName@@XZ 10043e45 f i libvcruntime:undname.obj
 0001:00042e59       ?getCallingConvention@UnDecorator@@CA?AVDName@@XZ 10043e59 f   libvcruntime:undname.obj
 0001:00042f2e       ?getDataIndirectType@UnDecorator@@CA?AVDName@@ABV2@W4IndirectionKind@@0H@Z 10043f2e f   libvcruntime:undname.obj
 0001:000436cb       ?getDataIndirectType@UnDecorator@@CA?AVDName@@XZ 100446cb f i libvcruntime:undname.obj
 0001:000436f9       ?getDataType@UnDecorator@@CA?AVDName@@PAV2@@Z 100446f9 f   libvcruntime:undname.obj
 0001:000437d0       ?getDecoratedName@UnDecorator@@CA?AVDName@@XZ 100447d0 f   libvcruntime:undname.obj
 0001:00043a24       ?getDimension@UnDecorator@@CA?AVDName@@_N@Z 10044a24 f   libvcruntime:undname.obj
 0001:00043b32       ?getDispatchTarget@UnDecorator@@CA?AVDName@@XZ 10044b32 f   libvcruntime:undname.obj
 0001:00043b85       ?getDisplacement@UnDecorator@@CA?AVDName@@XZ 10044b85 f i libvcruntime:undname.obj
 0001:00043b99       ?getECSUDataType@UnDecorator@@CA?AVDName@@XZ 10044b99 f   libvcruntime:undname.obj
 0001:00043d2b       ?getECSUName@UnDecorator@@CA?AVDName@@XZ 10044d2b f i libvcruntime:undname.obj
 0001:00043d3c       ?getEnumType@UnDecorator@@CA?AVDName@@XZ 10044d3c f i libvcruntime:undname.obj
 0001:00043e50       ?getExtendedDataIndirectType@UnDecorator@@CA?AVDName@@AAW4IndirectionKind@@AA_NH@Z 10044e50 f   libvcruntime:undname.obj
 0001:00043ffb       ?getExternalDataType@UnDecorator@@CA?AVDName@@ABV2@@Z 10044ffb f i libvcruntime:undname.obj
 0001:00044060       ?getFloatingPoint@UnDecorator@@CA?AVDName@@H@Z 10045060 f   libvcruntime:undname.obj
 0001:0004411e       ?getFunctionIndirectType@UnDecorator@@CA?AVDName@@ABV2@@Z 1004511e f   libvcruntime:undname.obj
 0001:000444c8       ?getGuardNumber@UnDecorator@@CA?AVDName@@XZ 100454c8 f i libvcruntime:undname.obj
 0001:000444dc       ?getLastChar@DName@@QBEDXZ 100454dc f i libvcruntime:undname.obj
 0001:000444fc       ?getLastChar@DNameStatusNode@@UBEDXZ 100454fc f i libvcruntime:undname.obj
 0001:00044508       ?getLastChar@charNode@@UBEDXZ 10045508 f i libvcruntime:undname.obj
 0001:0004450c       ?getLastChar@pDNameNode@@UBEDXZ 1004550c f i libvcruntime:undname.obj
 0001:0004451a       ?getLastChar@pairNode@@UBEDXZ 1004551a f i libvcruntime:undname.obj
 0001:0004454f       ?getLastChar@pcharNode@@UBEDXZ 1004554f f i libvcruntime:undname.obj
 0001:00044561       ?getLexicalFrame@UnDecorator@@CA?AVDName@@XZ 10045561 f i libvcruntime:undname.obj
 0001:00044592       ?getMemberAccess@UnDecorator@@CA?AVDName@@XZ 10045592 f   libvcruntime:undname.obj
 0001:00044602       ?getMemoryWithBuffer@_HeapManager@@QAEPAXI@Z 10045602 f   libvcruntime:undname.obj
 0001:0004466c       ?getMemoryWithoutBuffer@_HeapManager@@QAEPAXI@Z 1004566c f   libvcruntime:undname.obj
 0001:0004468c       ?getNoexcept@UnDecorator@@CA?AVDName@@XZ 1004568c f   libvcruntime:undname.obj
 0001:000446e0       ?getNumberOfDimensions@UnDecorator@@CAHXZ 100456e0 f   libvcruntime:undname.obj
 0001:00044742       ?getOperatorName@UnDecorator@@CA?AVDName@@_NPA_N@Z 10045742 f i libvcruntime:undname.obj
 0001:00045058       ?getPointerToMember@UnDecorator@@CA?AVDName@@XZ 10046058 f   libvcruntime:undname.obj
 0001:00045114       ?getPointerType@UnDecorator@@CA?AVDName@@ABV2@0@Z 10046114 f i libvcruntime:undname.obj
 0001:0004512f       ?getPointerTypeArray@UnDecorator@@CA?AVDName@@ABV2@0@Z 1004612f f i libvcruntime:undname.obj
 0001:0004514a       ?getPrimaryDataType@UnDecorator@@CA?AVDName@@ABV2@@Z 1004614a f   libvcruntime:undname.obj
 0001:00045398       ?getPtrRefDataType@UnDecorator@@CA?AVDName@@ABV2@H@Z 10046398 f   libvcruntime:undname.obj
 0001:00045505       ?getPtrRefType@UnDecorator@@CA?AVDName@@ABV2@0W4IndirectionKind@@@Z 10046505 f   libvcruntime:undname.obj
 0001:00045616       ?getReferenceType@UnDecorator@@CA?AVDName@@ABV2@0W4IndirectionKind@@@Z 10046616 f i libvcruntime:undname.obj
 0001:00045632       ?getRestrictionSpec@UnDecorator@@CA?AVDName@@XZ 10046632 f   libvcruntime:undname.obj
 0001:00045757       ?getReturnType@UnDecorator@@CA?AVDName@@PAV2@@Z 10046757 f   libvcruntime:undname.obj
 0001:00045786       ?getScope@UnDecorator@@CA?AVDName@@XZ 10046786 f   libvcruntime:undname.obj
 0001:00045b44       ?getScopedName@UnDecorator@@CA?AVDName@@XZ 10046b44 f   libvcruntime:undname.obj
 0001:00045c37       ?getSignedDimension@UnDecorator@@CA?AVDName@@XZ 10046c37 f   libvcruntime:undname.obj
 0001:00045c88       ?getStorageConvention@UnDecorator@@CA?AVDName@@XZ 10046c88 f i libvcruntime:undname.obj
 0001:00045c99       ?getString@DName@@QBEPADPAD0@Z 10046c99 f i libvcruntime:undname.obj
 0001:00045cc6       ?getString@DName@@QBEPADPADH@Z 10046cc6 f i libvcruntime:undname.obj
 0001:00045d1b       ?getString@DNameStatusNode@@UBEPADPAD0@Z 10046d1b f i libvcruntime:undname.obj
 0001:00045d62       ?getString@charNode@@UBEPADPAD0@Z 10046d62 f i libvcruntime:undname.obj
 0001:00045d77       ?getString@pDNameNode@@UBEPADPAD0@Z 10046d77 f i libvcruntime:undname.obj
 0001:00045d8e       ?getString@pairNode@@UBEPADPAD0@Z 10046d8e f i libvcruntime:undname.obj
 0001:00045dd4       ?getString@pcharNode@@UBEPADPAD0@Z 10046dd4 f i libvcruntime:undname.obj
 0001:00045def       ?getStringEncoding@UnDecorator@@CA?AVDName@@W4PrefixKind@@H@Z 10046def f   libvcruntime:undname.obj
 0001:00045e8c       ?getStringHelper@@YAPADPADPBD1H@Z 10046e8c f i libvcruntime:undname.obj
 0001:00045eb6       ?getStringObject@UnDecorator@@CA?AVDName@@XZ 10046eb6 f   libvcruntime:undname.obj
 0001:00045f01       ?getSymbolName@UnDecorator@@CA?AVDName@@XZ 10046f01 f i libvcruntime:undname.obj
 0001:00045f4c       ?getTemplateArgumentList@UnDecorator@@CA?AVDName@@XZ 10046f4c f   libvcruntime:undname.obj
 0001:000460fc       ?getTemplateName@UnDecorator@@CA?AVDName@@_N@Z 100470fc f   libvcruntime:undname.obj
 0001:0004625c       ?getTemplateNonTypeArgument@UnDecorator@@CA?AVDName@@XZ 1004725c f   libvcruntime:undname.obj
 0001:00046634       ?getTemplateTypeArgument@UnDecorator@@CA?AVDName@@XZ 10047634 f   libvcruntime:undname.obj
 0001:00046745       ?getThisType@UnDecorator@@CA?AVDName@@XZ 10047745 f i libvcruntime:undname.obj
 0001:00046774       ?getThrowTypes@UnDecorator@@CA?AVDName@@XZ 10047774 f   libvcruntime:undname.obj
 0001:00046797       ?getTypeEncoding@UnDecorator@@CAHXZ 10047797 f i libvcruntime:undname.obj
 0001:00046acf       ?getUndecoratedName@UnDecorator@@QAEPADPADH@Z 10047acf f i libvcruntime:undname.obj
 0001:00046bee       ?getUnionObject@UnDecorator@@CA?AVDName@@XZ 10047bee f   libvcruntime:undname.obj
 0001:00046c95       ?getVCallThunkType@UnDecorator@@CA?AVDName@@XZ 10047c95 f i libvcruntime:undname.obj
 0001:00046cdf       ?getValue@UnDecorator@@CA?AV?$optional@_K@std@@XZ 10047cdf f   libvcruntime:undname.obj
 0001:00046d67       ?getValueObject@UnDecorator@@CA?AVDName@@XZ 10047d67 f   libvcruntime:undname.obj
 0001:00046e61       ?getVbTableType@UnDecorator@@CA?AVDName@@ABV2@@Z 10047e61 f i libvcruntime:undname.obj
 0001:00046e76       ?getVdispMapType@UnDecorator@@CA?AVDName@@ABV2@@Z 10047e76 f i libvcruntime:undname.obj
 0001:00046ed8       ?getVfTableType@UnDecorator@@CA?AVDName@@ABV2@@Z 10047ed8 f i libvcruntime:undname.obj
 0001:0004702c       ?getZName@UnDecorator@@CA?AVDName@@_N0@Z 1004802c f   libvcruntime:undname.obj
 0001:0004724a       ?haveTemplateParameters@UnDecorator@@SAHXZ 1004824a f i libvcruntime:undname.obj
 0001:00047255       ?isArray@DName@@QBEHXZ     10048255 f i libvcruntime:undname.obj
 0001:0004725f       ?isComArray@DName@@QBEHXZ  1004825f f i libvcruntime:undname.obj
 0001:00047269       ?isEmpty@DName@@QBEHXZ     10048269 f i libvcruntime:undname.obj
 0001:00047271       ?isFull@Replicator@@QBEHXZ 10048271 f i libvcruntime:undname.obj
 0001:0004727a       ?isNoTE@DName@@QBEHXZ      1004827a f i libvcruntime:undname.obj
 0001:00047284       ?isPinPtr@DName@@QBEHXZ    10048284 f i libvcruntime:undname.obj
 0001:0004728e       ?isPtrRef@DName@@QBEHXZ    1004828e f i libvcruntime:undname.obj
 0001:00047298       ?isUDC@DName@@QBEHXZ       10048298 f i libvcruntime:undname.obj
 0001:000472a9       ?isUDTThunk@DName@@QBEHXZ  100482a9 f i libvcruntime:undname.obj
 0001:000472ba       ?isVCallThunk@DName@@QBEHXZ 100482ba f i libvcruntime:undname.obj
 0001:000472c4       ?isValid@DName@@QBEHXZ     100482c4 f i libvcruntime:undname.obj
 0001:000472ce       ?length@DName@@QBEHXZ      100482ce f i libvcruntime:undname.obj
 0001:000472ed       ?length@DNameStatusNode@@UBEHXZ 100482ed f i libvcruntime:undname.obj
 0001:000472f1       ?length@charNode@@UBEHXZ   100482f1 f i libvcruntime:undname.obj
 0001:000472f5       ?length@pDNameNode@@UBEHXZ 100482f5 f i libvcruntime:undname.obj
 0001:00047303       ?length@pairNode@@UBEHXZ   10048303 f i libvcruntime:undname.obj
 0001:0004734c       ?length@pcharNode@@UBEHXZ  1004834c f i libvcruntime:undname.obj
 0001:00047350       ?make@DNameStatusNode@@SAPBV1@W4DNameStatus@@@Z 10048350 f i libvcruntime:undname.obj
 0001:0004736c       ?parseDecoratedName@UnDecorator@@CA?AVDName@@XZ 1004836c f   libvcruntime:undname.obj
 0001:00047466       ?raw_length@DNameStatusNode@@UBEHXZ 10048466 f i libvcruntime:undname.obj
 0001:0004746a       ?raw_length@charNode@@UBEHXZ 1004846a f i libvcruntime:undname.obj
 0001:0004746e       ?raw_length@pDNameNode@@UBEHXZ 1004846e f i libvcruntime:undname.obj
 0001:00047472       ?raw_length@pairNode@@UBEHXZ 10048472 f i libvcruntime:undname.obj
 0001:00047476       ?raw_length@pcharNode@@UBEHXZ 10048476 f i libvcruntime:undname.obj
 0001:0004747a       ?setIsArray@DName@@QAEXXZ  1004847a f i libvcruntime:undname.obj
 0001:00047482       ?setIsComArray@DName@@QAEXXZ 10048482 f i libvcruntime:undname.obj
 0001:0004748a       ?setIsNoTE@DName@@QAEXXZ   1004848a f i libvcruntime:undname.obj
 0001:00047492       ?setIsPinPtr@DName@@QAEXXZ 10048492 f i libvcruntime:undname.obj
 0001:0004749a       ?setIsUDC@DName@@QAEXXZ    1004849a f i libvcruntime:undname.obj
 0001:000474a7       ?setIsVCallThunk@DName@@QAEXXZ 100484a7 f i libvcruntime:undname.obj
 0001:000474af       ?setPtrRef@DName@@QAEAAV1@XZ 100484af f i libvcruntime:undname.obj
 0001:000474b9       ?status@DName@@QBE?AW4DNameStatus@@XZ 100484b9 f i libvcruntime:undname.obj
 0001:00047525       ___unDName                 10048525 f   libvcruntime:undname.obj
 0001:00047548       ___unDNameEx               10048548 f   libvcruntime:undname.obj
 0001:000475e7       _snprintf                  100485e7 f i libvcruntime:undname.obj
 0001:00047601       _unDNameGenerateCHPE       10048601 f   libvcruntime:undname.obj
 0001:0004769e       _vsnprintf                 1004869e f i libvcruntime:undname.obj
 0001:000476ce       ___vcrt_initialize_locks   100486ce f   libvcruntime:locks.obj
 0001:0004770a       ___vcrt_lock               1004870a f   libvcruntime:locks.obj
 0001:0004771f       ___vcrt_uninitialize_locks 1004871f f   libvcruntime:locks.obj
 0001:0004774e       ___vcrt_unlock             1004874e f   libvcruntime:locks.obj
 0001:00047763       ??$__crt_interlocked_exchange_pointer@UHINSTANCE__@@PAU1@@@YAPAUHINSTANCE__@@PDSAU0@QAU0@@Z 10048763 f i libvcruntime:winapi_downlevel.obj
 0001:00047770       ??$__crt_interlocked_exchange_pointer@UHINSTANCE__@@PAX@@YAPAUHINSTANCE__@@PDSAU0@QAX@Z 10048770 f i libvcruntime:winapi_downlevel.obj
 0001:0004777d       ??$__crt_interlocked_exchange_pointer@XPAX@@YAPAXPDSAXQAX@Z 1004877d f i libvcruntime:winapi_downlevel.obj
 0001:0004778a       ??$__crt_interlocked_read_pointer@UHINSTANCE__@@@@YAPAUHINSTANCE__@@PDSAU0@@Z 1004878a f i libvcruntime:winapi_downlevel.obj
 0001:00047795       ??$__crt_interlocked_read_pointer@X@@YAPAXPDSAX@Z 10048795 f i libvcruntime:winapi_downlevel.obj
 0001:00047a21       ___vcrt_FlsAlloc           10048a21 f   libvcruntime:winapi_downlevel.obj
 0001:00047a5c       ___vcrt_FlsFree            10048a5c f   libvcruntime:winapi_downlevel.obj
 0001:00047a97       ___vcrt_FlsGetValue        10048a97 f   libvcruntime:winapi_downlevel.obj
 0001:00047ad2       ___vcrt_FlsSetValue        10048ad2 f   libvcruntime:winapi_downlevel.obj
 0001:00047b10       ___vcrt_InitializeCriticalSectionEx 10048b10 f   libvcruntime:winapi_downlevel.obj
 0001:00047b6b       __get_unexpected           10048b6b f   libvcruntime:unexpected.obj
 0001:00047b7d       _set_unexpected            10048b7d f   libvcruntime:unexpected.obj
 0001:00047b9b       _unexpected                10048b9b f   libvcruntime:unexpected.obj
 0001:00047bb8       ?GetCurrentState@__FrameHandler3@@SAHPAUEHRegistrationNode@@PAXPBU_s_FuncInfo@@@Z 10048bb8 f   libvcruntime:ehstate.obj
 0001:00047bd5       ?SetState@__FrameHandler3@@SAXPAUEHRegistrationNode@@PBU_s_FuncInfo@@H@Z 10048bd5 f   libvcruntime:ehstate.obj
 0001:00047bf0       __global_unwind2           10048bf0 f   libvcruntime:exsup.obj
 0001:00047c70       __local_unwind2            10048c70 f   libvcruntime:exsup.obj
 0001:00047d10       __abnormal_termination     10048d10 f   libvcruntime:exsup.obj
 0001:00047d40       __NLG_Notify1              10048d40 f   libvcruntime:exsup.obj
 0001:00047d50       __NLG_Notify               10048d50 f   libvcruntime:exsup.obj
 0001:00047d67       __NLG_Dispatch             10048d67     libvcruntime:exsup.obj
 0001:00047d67       __NLG_Dispatch2            10048d67     libvcruntime:exsup.obj
 0001:00047d70       __NLG_Call                 10048d70 f   libvcruntime:exsup.obj
 0001:00047d72       __NLG_Return2              10048d72     libvcruntime:exsup.obj
 0001:00047d73       ??$__crt_interlocked_exchange_pointer@$$A6AXXZP6AXXZ@@YAP6AXXZPDS6AXXZQ6AXXZ@Z 10048d73 f i libvcruntime:purevirt.obj
 0001:00047d80       ??$__crt_interlocked_read_pointer@$$A6AXXZ@@YAP6AXXZPDS6AXXZ@Z 10048d80 f i libvcruntime:purevirt.obj
 0001:00047d8b       __get_purecall_handler     10048d8b f   libvcruntime:purevirt.obj
 0001:00047d92       __purecall                 10048d92 f   libvcruntime:purevirt.obj
 0001:00047dae       __set_purecall_handler     10048dae f   libvcruntime:purevirt.obj
 0001:00047dbd       _malloc                    10048dbd f   libucrt:malloc.obj
 0001:00047dc8       _labs                      10048dc8 f   libucrt:labs.obj
 0001:00047dd7       ??$__crt_fast_decode_pointer@P6AXPB_W00II@Z@@YAP6AXPB_W00II@ZQ6AX000II@Z@Z 10048dd7 f i libucrt:invalid_parameter.obj
 0001:00047ded       ??$__crt_fast_encode_pointer@P6AXPB_W00II@Z@@YAP6AXPB_W00II@ZQ6AX000II@Z@Z 10048ded f i libucrt:invalid_parameter.obj
 0001:00047e0c       ??$initialize_from_array@$$BY00Q6AXPB_W00II@Z@?$dual_state_global@P6AXPB_W00II@Z@__crt_state_management@@QAAXAAY00Q6AXPB_W00II@Z@Z 10048e0c f i libucrt:invalid_parameter.obj
 0001:00047e1d       ?__crt_rotate_pointer_value@@YAIIH@Z 10048e1d f i libucrt:invalid_parameter.obj
 0001:00047e2c       ?dangerous_get_state_array@?$dual_state_global@P6AXPB_W00II@Z@__crt_state_management@@QAEPAP6AXPB_W00II@ZXZ 10048e2c f i libucrt:invalid_parameter.obj
 0001:00047e2f       ?get_current_state_index@__crt_state_management@@YAIXZ 10048e2f f i libucrt:invalid_parameter.obj
 0001:00047e32       ?value@?$dual_state_global@P6AXPB_W00II@Z@__crt_state_management@@QAEAAP6AXPB_W00II@ZXZ 10048e32 f i libucrt:invalid_parameter.obj
 0001:00047e35       ___acrt_call_reportfault   10048e35 f   libucrt:invalid_parameter.obj
 0001:00047f6e       ___acrt_initialize_invalid_parameter_handler 10048f6e f   libucrt:invalid_parameter.obj
 0001:00047f7d       __get_invalid_parameter_handler 10048f7d f   libucrt:invalid_parameter.obj
 0001:00047f90       __get_thread_local_invalid_parameter_handler 10048f90 f   libucrt:invalid_parameter.obj
 0001:00047fa1       __invalid_parameter        10048fa1 f   libucrt:invalid_parameter.obj
 0001:00048005       __invalid_parameter_noinfo 10049005 f   libucrt:invalid_parameter.obj
 0001:00048015       __invalid_parameter_noinfo_noreturn 10049015 f   libucrt:invalid_parameter.obj
 0001:00048032       __invoke_watson            10049032 f   libucrt:invalid_parameter.obj
 0001:00048066       __set_invalid_parameter_handler 10049066 f   libucrt:invalid_parameter.obj
 0001:00048096       __set_thread_local_invalid_parameter_handler 10049096 f   libucrt:invalid_parameter.obj
 0001:000480b3       _free                      100490b3 f   libucrt:free.obj
 0001:000480d0       _sqrt                      100490d0 f   libucrt:sqrt.obj
 0001:000480de       ??$?0ABV?$stream_output_adapter@D@__crt_stdio_output@@AB_KABQBDABQAU__crt_locale_pointers@@ABQAD@?$format_validation_base@DV?$stream_output_adapter@D@__crt_stdio_output@@@__crt_stdio_output@@IAE@ABV?$stream_output_adapter@D@1@AB_KABQBDABQAU__crt_locale_pointers@@ABQAD@Z 100490de f i libucrt:output.obj
 0001:00048101       ??$?0ABV?$stream_output_adapter@D@__crt_stdio_output@@AB_KABQBDABQAU__crt_locale_pointers@@ABQAD@?$positional_parameter_base@DV?$stream_output_adapter@D@__crt_stdio_output@@@__crt_stdio_output@@IAE@ABV?$stream_output_adapter@D@1@AB_KABQBDABQAU__crt_locale_pointers@@ABQAD@Z 10049101 f i libucrt:output.obj
 0001:00048149       ??$?0ABV?$stream_output_adapter@D@__crt_stdio_output@@AB_KABQBDABQAU__crt_locale_pointers@@ABQAD@?$standard_base@DV?$stream_output_adapter@D@__crt_stdio_output@@@__crt_stdio_output@@IAE@ABV?$stream_output_adapter@D@1@AB_KABQBDABQAU__crt_locale_pointers@@ABQAD@Z 10049149 f i libucrt:output.obj
 0001:0004817e       ??$?0ABV?$stream_output_adapter@_W@__crt_stdio_output@@AB_KABQB_WABQAU__crt_locale_pointers@@ABQAD@?$format_validation_base@_WV?$stream_output_adapter@_W@__crt_stdio_output@@@__crt_stdio_output@@IAE@ABV?$stream_output_adapter@_W@1@AB_KABQB_WABQAU__crt_locale_pointers@@ABQAD@Z 1004917e f i libucrt:output.obj
 0001:000481a1       ??$?0ABV?$stream_output_adapter@_W@__crt_stdio_output@@AB_KABQB_WABQAU__crt_locale_pointers@@ABQAD@?$positional_parameter_base@_WV?$stream_output_adapter@_W@__crt_stdio_output@@@__crt_stdio_output@@IAE@ABV?$stream_output_adapter@_W@1@AB_KABQB_WABQAU__crt_locale_pointers@@ABQAD@Z 100491a1 f i libucrt:output.obj
 0001:000481e9       ??$?0ABV?$stream_output_adapter@_W@__crt_stdio_output@@AB_KABQB_WABQAU__crt_locale_pointers@@ABQAD@?$standard_base@_WV?$stream_output_adapter@_W@__crt_stdio_output@@@__crt_stdio_output@@IAE@ABV?$stream_output_adapter@_W@1@AB_KABQB_WABQAU__crt_locale_pointers@@ABQAD@Z 100491e9 f i libucrt:output.obj
 0001:0004821e       ??$?0ABV?$string_output_adapter@D@__crt_stdio_output@@AB_KABQBDABQAU__crt_locale_pointers@@ABQAD@?$format_validation_base@DV?$string_output_adapter@D@__crt_stdio_output@@@__crt_stdio_output@@IAE@ABV?$string_output_adapter@D@1@AB_KABQBDABQAU__crt_locale_pointers@@ABQAD@Z 1004921e f i libucrt:output.obj
 0001:00048241       ??$?0ABV?$string_output_adapter@D@__crt_stdio_output@@AB_KABQBDABQAU__crt_locale_pointers@@ABQAD@?$positional_parameter_base@DV?$string_output_adapter@D@__crt_stdio_output@@@__crt_stdio_output@@IAE@ABV?$string_output_adapter@D@1@AB_KABQBDABQAU__crt_locale_pointers@@ABQAD@Z 10049241 f i libucrt:output.obj
 0001:00048289       ??$?0ABV?$string_output_adapter@D@__crt_stdio_output@@AB_KABQBDABQAU__crt_locale_pointers@@ABQAD@?$standard_base@DV?$string_output_adapter@D@__crt_stdio_output@@@__crt_stdio_output@@IAE@ABV?$string_output_adapter@D@1@AB_KABQBDABQAU__crt_locale_pointers@@ABQAD@Z 10049289 f i libucrt:output.obj
 0001:000482be       ??$?0ABV?$string_output_adapter@_W@__crt_stdio_output@@AB_KABQB_WABQAU__crt_locale_pointers@@ABQAD@?$format_validation_base@_WV?$string_output_adapter@_W@__crt_stdio_output@@@__crt_stdio_output@@IAE@ABV?$string_output_adapter@_W@1@AB_KABQB_WABQAU__crt_locale_pointers@@ABQAD@Z 100492be f i libucrt:output.obj
 0001:000482e1       ??$?0ABV?$string_output_adapter@_W@__crt_stdio_output@@AB_KABQB_WABQAU__crt_locale_pointers@@ABQAD@?$positional_parameter_base@_WV?$string_output_adapter@_W@__crt_stdio_output@@@__crt_stdio_output@@IAE@ABV?$string_output_adapter@_W@1@AB_KABQB_WABQAU__crt_locale_pointers@@ABQAD@Z 100492e1 f i libucrt:output.obj
 0001:00048329       ??$?0ABV?$string_output_adapter@_W@__crt_stdio_output@@AB_KABQB_WABQAU__crt_locale_pointers@@ABQAD@?$standard_base@_WV?$string_output_adapter@_W@__crt_stdio_output@@@__crt_stdio_output@@IAE@ABV?$string_output_adapter@_W@1@AB_KABQB_WABQAU__crt_locale_pointers@@ABQAD@Z 10049329 f i libucrt:output.obj
 0001:00048664       ??$__crt_interlocked_read@J@@YAJPDJ@Z 10049664 f i libucrt:output.obj
 0001:00049530       ??$count@D@formatting_buffer@__crt_stdio_output@@QBEIXZ 1004a530 f i libucrt:output.obj
 0001:00049548       ??$count@_W@formatting_buffer@__crt_stdio_output@@QBEIXZ 1004a548 f i libucrt:output.obj
 0001:00049561       ??$data@D@formatting_buffer@__crt_stdio_output@@QAEPADXZ 1004a561 f i libucrt:output.obj
 0001:0004956e       ??$data@_W@formatting_buffer@__crt_stdio_output@@QAEPA_WXZ 1004a56e f i libucrt:output.obj
 0001:0004957b       ??$ensure_buffer_is_big_enough@D@formatting_buffer@__crt_stdio_output@@QAE_NI@Z 1004a57b f i libucrt:output.obj
 0001:000495f8       ??$ensure_buffer_is_big_enough@_W@formatting_buffer@__crt_stdio_output@@QAE_NI@Z 1004a5f8 f i libucrt:output.obj
 0001:00049676       ??$extract_argument_from_va_list@C_J@?$positional_parameter_base@DV?$stream_output_adapter@D@__crt_stdio_output@@@__crt_stdio_output@@IAE_NAA_J@Z 1004a676 f i libucrt:output.obj
 0001:000496ef       ??$extract_argument_from_va_list@C_J@?$positional_parameter_base@DV?$string_output_adapter@D@__crt_stdio_output@@@__crt_stdio_output@@IAE_NAA_J@Z 1004a6ef f i libucrt:output.obj
 0001:00049768       ??$extract_argument_from_va_list@C_J@?$positional_parameter_base@_WV?$stream_output_adapter@_W@__crt_stdio_output@@@__crt_stdio_output@@IAE_NAA_J@Z 1004a768 f i libucrt:output.obj
 0001:000497e1       ??$extract_argument_from_va_list@C_J@?$positional_parameter_base@_WV?$string_output_adapter@_W@__crt_stdio_output@@@__crt_stdio_output@@IAE_NAA_J@Z 1004a7e1 f i libucrt:output.obj
 0001:0004985a       ??$extract_argument_from_va_list@C_J@?$standard_base@DV?$stream_output_adapter@D@__crt_stdio_output@@@__crt_stdio_output@@IAE_NAA_J@Z 1004a85a f i libucrt:output.obj
 0001:00049879       ??$extract_argument_from_va_list@C_J@?$standard_base@DV?$string_output_adapter@D@__crt_stdio_output@@@__crt_stdio_output@@IAE_NAA_J@Z 1004a879 f i libucrt:output.obj
 0001:00049898       ??$extract_argument_from_va_list@C_J@?$standard_base@_WV?$stream_output_adapter@_W@__crt_stdio_output@@@__crt_stdio_output@@IAE_NAA_J@Z 1004a898 f i libucrt:output.obj
 0001:000498b7       ??$extract_argument_from_va_list@C_J@?$standard_base@_WV?$string_output_adapter@_W@__crt_stdio_output@@@__crt_stdio_output@@IAE_NAA_J@Z 1004a8b7 f i libucrt:output.obj
 0001:000498d6       ??$extract_argument_from_va_list@E_J@?$positional_parameter_base@DV?$stream_output_adapter@D@__crt_stdio_output@@@__crt_stdio_output@@IAE_NAA_J@Z 1004a8d6 f i libucrt:output.obj
 0001:0004994f       ??$extract_argument_from_va_list@E_J@?$positional_parameter_base@DV?$string_output_adapter@D@__crt_stdio_output@@@__crt_stdio_output@@IAE_NAA_J@Z 1004a94f f i libucrt:output.obj
 0001:000499c8       ??$extract_argument_from_va_list@E_J@?$positional_parameter_base@_WV?$stream_output_adapter@_W@__crt_stdio_output@@@__crt_stdio_output@@IAE_NAA_J@Z 1004a9c8 f i libucrt:output.obj
 0001:00049a41       ??$extract_argument_from_va_list@E_J@?$positional_parameter_base@_WV?$string_output_adapter@_W@__crt_stdio_output@@@__crt_stdio_output@@IAE_NAA_J@Z 1004aa41 f i libucrt:output.obj
 0001:00049aba       ??$extract_argument_from_va_list@E_J@?$standard_base@DV?$stream_output_adapter@D@__crt_stdio_output@@@__crt_stdio_output@@IAE_NAA_J@Z 1004aaba f i libucrt:output.obj
 0001:00049ad9       ??$extract_argument_from_va_list@E_J@?$standard_base@DV?$string_output_adapter@D@__crt_stdio_output@@@__crt_stdio_output@@IAE_NAA_J@Z 1004aad9 f i libucrt:output.obj
 0001:00049af8       ??$extract_argument_from_va_list@E_J@?$standard_base@_WV?$stream_output_adapter@_W@__crt_stdio_output@@@__crt_stdio_output@@IAE_NAA_J@Z 1004aaf8 f i libucrt:output.obj
 0001:00049b17       ??$extract_argument_from_va_list@E_J@?$standard_base@_WV?$string_output_adapter@_W@__crt_stdio_output@@@__crt_stdio_output@@IAE_NAA_J@Z 1004ab17 f i libucrt:output.obj
 0001:00049b36       ??$extract_argument_from_va_list@F_J@?$positional_parameter_base@DV?$stream_output_adapter@D@__crt_stdio_output@@@__crt_stdio_output@@IAE_NAA_J@Z 1004ab36 f i libucrt:output.obj
 0001:00049baf       ??$extract_argument_from_va_list@F_J@?$positional_parameter_base@DV?$string_output_adapter@D@__crt_stdio_output@@@__crt_stdio_output@@IAE_NAA_J@Z 1004abaf f i libucrt:output.obj
 0001:00049c28       ??$extract_argument_from_va_list@F_J@?$positional_parameter_base@_WV?$stream_output_adapter@_W@__crt_stdio_output@@@__crt_stdio_output@@IAE_NAA_J@Z 1004ac28 f i libucrt:output.obj
 0001:00049ca1       ??$extract_argument_from_va_list@F_J@?$positional_parameter_base@_WV?$string_output_adapter@_W@__crt_stdio_output@@@__crt_stdio_output@@IAE_NAA_J@Z 1004aca1 f i libucrt:output.obj
 0001:00049d1a       ??$extract_argument_from_va_list@F_J@?$standard_base@DV?$stream_output_adapter@D@__crt_stdio_output@@@__crt_stdio_output@@IAE_NAA_J@Z 1004ad1a f i libucrt:output.obj
 0001:00049d39       ??$extract_argument_from_va_list@F_J@?$standard_base@DV?$string_output_adapter@D@__crt_stdio_output@@@__crt_stdio_output@@IAE_NAA_J@Z 1004ad39 f i libucrt:output.obj
 0001:00049d58       ??$extract_argument_from_va_list@F_J@?$standard_base@_WV?$stream_output_adapter@_W@__crt_stdio_output@@@__crt_stdio_output@@IAE_NAA_J@Z 1004ad58 f i libucrt:output.obj
 0001:00049d77       ??$extract_argument_from_va_list@F_J@?$standard_base@_WV?$string_output_adapter@_W@__crt_stdio_output@@@__crt_stdio_output@@IAE_NAA_J@Z 1004ad77 f i libucrt:output.obj
 0001:00049d96       ??$extract_argument_from_va_list@GD@?$positional_parameter_base@DV?$stream_output_adapter@D@__crt_stdio_output@@@__crt_stdio_output@@IAE_NAAD@Z 1004ad96 f i libucrt:output.obj
 0001:00049e0e       ??$extract_argument_from_va_list@GD@?$positional_parameter_base@DV?$string_output_adapter@D@__crt_stdio_output@@@__crt_stdio_output@@IAE_NAAD@Z 1004ae0e f i libucrt:output.obj
 0001:00049e86       ??$extract_argument_from_va_list@GD@?$standard_base@DV?$stream_output_adapter@D@__crt_stdio_output@@@__crt_stdio_output@@IAE_NAAD@Z 1004ae86 f i libucrt:output.obj
 0001:00049ea0       ??$extract_argument_from_va_list@GD@?$standard_base@DV?$string_output_adapter@D@__crt_stdio_output@@@__crt_stdio_output@@IAE_NAAD@Z 1004aea0 f i libucrt:output.obj
 0001:00049eba       ??$extract_argument_from_va_list@G_J@?$positional_parameter_base@DV?$stream_output_adapter@D@__crt_stdio_output@@@__crt_stdio_output@@IAE_NAA_J@Z 1004aeba f i libucrt:output.obj
 0001:00049f33       ??$extract_argument_from_va_list@G_J@?$positional_parameter_base@DV?$string_output_adapter@D@__crt_stdio_output@@@__crt_stdio_output@@IAE_NAA_J@Z 1004af33 f i libucrt:output.obj
 0001:00049fac       ??$extract_argument_from_va_list@G_J@?$positional_parameter_base@_WV?$stream_output_adapter@_W@__crt_stdio_output@@@__crt_stdio_output@@IAE_NAA_J@Z 1004afac f i libucrt:output.obj
 0001:0004a025       ??$extract_argument_from_va_list@G_J@?$positional_parameter_base@_WV?$string_output_adapter@_W@__crt_stdio_output@@@__crt_stdio_output@@IAE_NAA_J@Z 1004b025 f i libucrt:output.obj
 0001:0004a09e       ??$extract_argument_from_va_list@G_J@?$standard_base@DV?$stream_output_adapter@D@__crt_stdio_output@@@__crt_stdio_output@@IAE_NAA_J@Z 1004b09e f i libucrt:output.obj
 0001:0004a0bd       ??$extract_argument_from_va_list@G_J@?$standard_base@DV?$string_output_adapter@D@__crt_stdio_output@@@__crt_stdio_output@@IAE_NAA_J@Z 1004b0bd f i libucrt:output.obj
 0001:0004a0dc       ??$extract_argument_from_va_list@G_J@?$standard_base@_WV?$stream_output_adapter@_W@__crt_stdio_output@@@__crt_stdio_output@@IAE_NAA_J@Z 1004b0dc f i libucrt:output.obj
 0001:0004a0fb       ??$extract_argument_from_va_list@G_J@?$standard_base@_WV?$string_output_adapter@_W@__crt_stdio_output@@@__crt_stdio_output@@IAE_NAA_J@Z 1004b0fb f i libucrt:output.obj
 0001:0004a11a       ??$extract_argument_from_va_list@H_J@?$positional_parameter_base@DV?$stream_output_adapter@D@__crt_stdio_output@@@__crt_stdio_output@@IAE_NAA_J@Z 1004b11a f i libucrt:output.obj
 0001:0004a191       ??$extract_argument_from_va_list@H_J@?$positional_parameter_base@DV?$string_output_adapter@D@__crt_stdio_output@@@__crt_stdio_output@@IAE_NAA_J@Z 1004b191 f i libucrt:output.obj
 0001:0004a208       ??$extract_argument_from_va_list@H_J@?$positional_parameter_base@_WV?$stream_output_adapter@_W@__crt_stdio_output@@@__crt_stdio_output@@IAE_NAA_J@Z 1004b208 f i libucrt:output.obj
 0001:0004a27f       ??$extract_argument_from_va_list@H_J@?$positional_parameter_base@_WV?$string_output_adapter@_W@__crt_stdio_output@@@__crt_stdio_output@@IAE_NAA_J@Z 1004b27f f i libucrt:output.obj
 0001:0004a2f6       ??$extract_argument_from_va_list@H_J@?$standard_base@DV?$stream_output_adapter@D@__crt_stdio_output@@@__crt_stdio_output@@IAE_NAA_J@Z 1004b2f6 f i libucrt:output.obj
 0001:0004a314       ??$extract_argument_from_va_list@H_J@?$standard_base@DV?$string_output_adapter@D@__crt_stdio_output@@@__crt_stdio_output@@IAE_NAA_J@Z 1004b314 f i libucrt:output.obj
 0001:0004a332       ??$extract_argument_from_va_list@H_J@?$standard_base@_WV?$stream_output_adapter@_W@__crt_stdio_output@@@__crt_stdio_output@@IAE_NAA_J@Z 1004b332 f i libucrt:output.obj
 0001:0004a350       ??$extract_argument_from_va_list@H_J@?$standard_base@_WV?$string_output_adapter@_W@__crt_stdio_output@@@__crt_stdio_output@@IAE_NAA_J@Z 1004b350 f i libucrt:output.obj
 0001:0004a36e       ??$extract_argument_from_va_list@I_J@?$positional_parameter_base@DV?$stream_output_adapter@D@__crt_stdio_output@@@__crt_stdio_output@@IAE_NAA_J@Z 1004b36e f i libucrt:output.obj
 0001:0004a3ee       ??$extract_argument_from_va_list@I_J@?$positional_parameter_base@DV?$string_output_adapter@D@__crt_stdio_output@@@__crt_stdio_output@@IAE_NAA_J@Z 1004b3ee f i libucrt:output.obj
 0001:0004a46e       ??$extract_argument_from_va_list@I_J@?$positional_parameter_base@_WV?$stream_output_adapter@_W@__crt_stdio_output@@@__crt_stdio_output@@IAE_NAA_J@Z 1004b46e f i libucrt:output.obj
 0001:0004a4ee       ??$extract_argument_from_va_list@I_J@?$positional_parameter_base@_WV?$string_output_adapter@_W@__crt_stdio_output@@@__crt_stdio_output@@IAE_NAA_J@Z 1004b4ee f i libucrt:output.obj
 0001:0004a56e       ??$extract_argument_from_va_list@I_J@?$standard_base@DV?$stream_output_adapter@D@__crt_stdio_output@@@__crt_stdio_output@@IAE_NAA_J@Z 1004b56e f i libucrt:output.obj
 0001:0004a58c       ??$extract_argument_from_va_list@I_J@?$standard_base@DV?$string_output_adapter@D@__crt_stdio_output@@@__crt_stdio_output@@IAE_NAA_J@Z 1004b58c f i libucrt:output.obj
 0001:0004a5aa       ??$extract_argument_from_va_list@I_J@?$standard_base@_WV?$stream_output_adapter@_W@__crt_stdio_output@@@__crt_stdio_output@@IAE_NAA_J@Z 1004b5aa f i libucrt:output.obj
 0001:0004a5c8       ??$extract_argument_from_va_list@I_J@?$standard_base@_WV?$string_output_adapter@_W@__crt_stdio_output@@@__crt_stdio_output@@IAE_NAA_J@Z 1004b5c8 f i libucrt:output.obj
 0001:0004a5e6       ??$extract_argument_from_va_list@PADPAD@?$positional_parameter_base@DV?$stream_output_adapter@D@__crt_stdio_output@@@__crt_stdio_output@@IAE_NAAPAD@Z 1004b5e6 f i libucrt:output.obj
 0001:0004a65e       ??$extract_argument_from_va_list@PADPAD@?$positional_parameter_base@DV?$string_output_adapter@D@__crt_stdio_output@@@__crt_stdio_output@@IAE_NAAPAD@Z 1004b65e f i libucrt:output.obj
 0001:0004a6d6       ??$extract_argument_from_va_list@PADPAD@?$positional_parameter_base@_WV?$stream_output_adapter@_W@__crt_stdio_output@@@__crt_stdio_output@@IAE_NAAPAD@Z 1004b6d6 f i libucrt:output.obj
 0001:0004a74e       ??$extract_argument_from_va_list@PADPAD@?$positional_parameter_base@_WV?$string_output_adapter@_W@__crt_stdio_output@@@__crt_stdio_output@@IAE_NAAPAD@Z 1004b74e f i libucrt:output.obj
 0001:0004a7c6       ??$extract_argument_from_va_list@PADPAD@?$standard_base@DV?$stream_output_adapter@D@__crt_stdio_output@@@__crt_stdio_output@@IAE_NAAPAD@Z 1004b7c6 f i libucrt:output.obj
 0001:0004a7e0       ??$extract_argument_from_va_list@PADPAD@?$standard_base@DV?$string_output_adapter@D@__crt_stdio_output@@@__crt_stdio_output@@IAE_NAAPAD@Z 1004b7e0 f i libucrt:output.obj
 0001:0004a7fa       ??$extract_argument_from_va_list@PADPAD@?$standard_base@_WV?$stream_output_adapter@_W@__crt_stdio_output@@@__crt_stdio_output@@IAE_NAAPAD@Z 1004b7fa f i libucrt:output.obj
 0001:0004a814       ??$extract_argument_from_va_list@PADPAD@?$standard_base@_WV?$string_output_adapter@_W@__crt_stdio_output@@@__crt_stdio_output@@IAE_NAAPAD@Z 1004b814 f i libucrt:output.obj
 0001:0004a82e       ??$extract_argument_from_va_list@PAUansi_string@?1??type_case_Z@?$output_processor@DV?$stream_output_adapter@D@__crt_stdio_output@@V?$format_validation_base@DV?$stream_output_adapter@D@__crt_stdio_output@@@2@@__crt_stdio_output@@AAE_NXZ@PAU1?1??234@AAE_NXZ@@?$standard_base@DV?$stream_output_adapter@D@__crt_stdio_output@@@__crt_stdio_output@@IAE_NAAPAUansi_string@?1??type_case_Z@?$output_processor@DV?$stream_output_adapter@D@__crt_stdio_output@@V?$format_validation_base@DV?$stream_output_adapter@D@__crt_stdio_output@@@2@@1@AAE_NXZ@@Z 1004b82e f i libucrt:output.obj
 0001:0004a848       ??$extract_argument_from_va_list@PAUansi_string@?1??type_case_Z@?$output_processor@DV?$stream_output_adapter@D@__crt_stdio_output@@V?$positional_parameter_base@DV?$stream_output_adapter@D@__crt_stdio_output@@@2@@__crt_stdio_output@@AAE_NXZ@PAU1?1??234@AAE_NXZ@@?$positional_parameter_base@DV?$stream_output_adapter@D@__crt_stdio_output@@@__crt_stdio_output@@IAE_NAAPAUansi_string@?1??type_case_Z@?$output_processor@DV?$stream_output_adapter@D@__crt_stdio_output@@V?$positional_parameter_base@DV?$stream_output_adapter@D@__crt_stdio_output@@@2@@1@AAE_NXZ@@Z 1004b848 f i libucrt:output.obj
 0001:0004a8c0       ??$extract_argument_from_va_list@PAUansi_string@?1??type_case_Z@?$output_processor@DV?$stream_output_adapter@D@__crt_stdio_output@@V?$positional_parameter_base@DV?$stream_output_adapter@D@__crt_stdio_output@@@2@@__crt_stdio_output@@AAE_NXZ@PAU1?1??234@AAE_NXZ@@?$standard_base@DV?$stream_output_adapter@D@__crt_stdio_output@@@__crt_stdio_output@@IAE_NAAPAUansi_string@?1??type_case_Z@?$output_processor@DV?$stream_output_adapter@D@__crt_stdio_output@@V?$positional_parameter_base@DV?$stream_output_adapter@D@__crt_stdio_output@@@2@@1@AAE_NXZ@@Z 1004b8c0 f i libucrt:output.obj
 0001:0004a8da       ??$extract_argument_from_va_list@PAUansi_string@?1??type_case_Z@?$output_processor@DV?$stream_output_adapter@D@__crt_stdio_output@@V?$standard_base@DV?$stream_output_adapter@D@__crt_stdio_output@@@2@@__crt_stdio_output@@AAE_NXZ@PAU1?1??234@AAE_NXZ@@?$standard_base@DV?$stream_output_adapter@D@__crt_stdio_output@@@__crt_stdio_output@@IAE_NAAPAUansi_string@?1??type_case_Z@?$output_processor@DV?$stream_output_adapter@D@__crt_stdio_output@@V?$standard_base@DV?$stream_output_adapter@D@__crt_stdio_output@@@2@@1@AAE_NXZ@@Z 1004b8da f i libucrt:output.obj
 0001:0004a8f4       ??$extract_argument_from_va_list@PAUansi_string@?1??type_case_Z@?$output_processor@DV?$string_output_adapter@D@__crt_stdio_output@@V?$format_validation_base@DV?$string_output_adapter@D@__crt_stdio_output@@@2@@__crt_stdio_output@@AAE_NXZ@PAU1?1??234@AAE_NXZ@@?$standard_base@DV?$string_output_adapter@D@__crt_stdio_output@@@__crt_stdio_output@@IAE_NAAPAUansi_string@?1??type_case_Z@?$output_processor@DV?$string_output_adapter@D@__crt_stdio_output@@V?$format_validation_base@DV?$string_output_adapter@D@__crt_stdio_output@@@2@@1@AAE_NXZ@@Z 1004b8f4 f i libucrt:output.obj
 0001:0004a90e       ??$extract_argument_from_va_list@PAUansi_string@?1??type_case_Z@?$output_processor@DV?$string_output_adapter@D@__crt_stdio_output@@V?$positional_parameter_base@DV?$string_output_adapter@D@__crt_stdio_output@@@2@@__crt_stdio_output@@AAE_NXZ@PAU1?1??234@AAE_NXZ@@?$positional_parameter_base@DV?$string_output_adapter@D@__crt_stdio_output@@@__crt_stdio_output@@IAE_NAAPAUansi_string@?1??type_case_Z@?$output_processor@DV?$string_output_adapter@D@__crt_stdio_output@@V?$positional_parameter_base@DV?$string_output_adapter@D@__crt_stdio_output@@@2@@1@AAE_NXZ@@Z 1004b90e f i libucrt:output.obj
 0001:0004a986       ??$extract_argument_from_va_list@PAUansi_string@?1??type_case_Z@?$output_processor@DV?$string_output_adapter@D@__crt_stdio_output@@V?$positional_parameter_base@DV?$string_output_adapter@D@__crt_stdio_output@@@2@@__crt_stdio_output@@AAE_NXZ@PAU1?1??234@AAE_NXZ@@?$standard_base@DV?$string_output_adapter@D@__crt_stdio_output@@@__crt_stdio_output@@IAE_NAAPAUansi_string@?1??type_case_Z@?$output_processor@DV?$string_output_adapter@D@__crt_stdio_output@@V?$positional_parameter_base@DV?$string_output_adapter@D@__crt_stdio_output@@@2@@1@AAE_NXZ@@Z 1004b986 f i libucrt:output.obj
 0001:0004a9a0       ??$extract_argument_from_va_list@PAUansi_string@?1??type_case_Z@?$output_processor@DV?$string_output_adapter@D@__crt_stdio_output@@V?$standard_base@DV?$string_output_adapter@D@__crt_stdio_output@@@2@@__crt_stdio_output@@AAE_NXZ@PAU1?1??234@AAE_NXZ@@?$standard_base@DV?$string_output_adapter@D@__crt_stdio_output@@@__crt_stdio_output@@IAE_NAAPAUansi_string@?1??type_case_Z@?$output_processor@DV?$string_output_adapter@D@__crt_stdio_output@@V?$standard_base@DV?$string_output_adapter@D@__crt_stdio_output@@@2@@1@AAE_NXZ@@Z 1004b9a0 f i libucrt:output.obj
 0001:0004a9ba       ??$extract_argument_from_va_list@PAUansi_string@?1??type_case_Z@?$output_processor@_WV?$stream_output_adapter@_W@__crt_stdio_output@@V?$format_validation_base@_WV?$stream_output_adapter@_W@__crt_stdio_output@@@2@@__crt_stdio_output@@AAE_NXZ@PAU1?1??234@AAE_NXZ@@?$standard_base@_WV?$stream_output_adapter@_W@__crt_stdio_output@@@__crt_stdio_output@@IAE_NAAPAUansi_string@?1??type_case_Z@?$output_processor@_WV?$stream_output_adapter@_W@__crt_stdio_output@@V?$format_validation_base@_WV?$stream_output_adapter@_W@__crt_stdio_output@@@2@@1@AAE_NXZ@@Z 1004b9ba f i libucrt:output.obj
 0001:0004a9d4       ??$extract_argument_from_va_list@PAUansi_string@?1??type_case_Z@?$output_processor@_WV?$stream_output_adapter@_W@__crt_stdio_output@@V?$positional_parameter_base@_WV?$stream_output_adapter@_W@__crt_stdio_output@@@2@@__crt_stdio_output@@AAE_NXZ@PAU1?1??234@AAE_NXZ@@?$positional_parameter_base@_WV?$stream_output_adapter@_W@__crt_stdio_output@@@__crt_stdio_output@@IAE_NAAPAUansi_string@?1??type_case_Z@?$output_processor@_WV?$stream_output_adapter@_W@__crt_stdio_output@@V?$positional_parameter_base@_WV?$stream_output_adapter@_W@__crt_stdio_output@@@2@@1@AAE_NXZ@@Z 1004b9d4 f i libucrt:output.obj
 0001:0004aa4c       ??$extract_argument_from_va_list@PAUansi_string@?1??type_case_Z@?$output_processor@_WV?$stream_output_adapter@_W@__crt_stdio_output@@V?$positional_parameter_base@_WV?$stream_output_adapter@_W@__crt_stdio_output@@@2@@__crt_stdio_output@@AAE_NXZ@PAU1?1??234@AAE_NXZ@@?$standard_base@_WV?$stream_output_adapter@_W@__crt_stdio_output@@@__crt_stdio_output@@IAE_NAAPAUansi_string@?1??type_case_Z@?$output_processor@_WV?$stream_output_adapter@_W@__crt_stdio_output@@V?$positional_parameter_base@_WV?$stream_output_adapter@_W@__crt_stdio_output@@@2@@1@AAE_NXZ@@Z 1004ba4c f i libucrt:output.obj
 0001:0004aa66       ??$extract_argument_from_va_list@PAUansi_string@?1??type_case_Z@?$output_processor@_WV?$stream_output_adapter@_W@__crt_stdio_output@@V?$standard_base@_WV?$stream_output_adapter@_W@__crt_stdio_output@@@2@@__crt_stdio_output@@AAE_NXZ@PAU1?1??234@AAE_NXZ@@?$standard_base@_WV?$stream_output_adapter@_W@__crt_stdio_output@@@__crt_stdio_output@@IAE_NAAPAUansi_string@?1??type_case_Z@?$output_processor@_WV?$stream_output_adapter@_W@__crt_stdio_output@@V?$standard_base@_WV?$stream_output_adapter@_W@__crt_stdio_output@@@2@@1@AAE_NXZ@@Z 1004ba66 f i libucrt:output.obj
 0001:0004aa80       ??$extract_argument_from_va_list@PAUansi_string@?1??type_case_Z@?$output_processor@_WV?$string_output_adapter@_W@__crt_stdio_output@@V?$format_validation_base@_WV?$string_output_adapter@_W@__crt_stdio_output@@@2@@__crt_stdio_output@@AAE_NXZ@PAU1?1??234@AAE_NXZ@@?$standard_base@_WV?$string_output_adapter@_W@__crt_stdio_output@@@__crt_stdio_output@@IAE_NAAPAUansi_string@?1??type_case_Z@?$output_processor@_WV?$string_output_adapter@_W@__crt_stdio_output@@V?$format_validation_base@_WV?$string_output_adapter@_W@__crt_stdio_output@@@2@@1@AAE_NXZ@@Z 1004ba80 f i libucrt:output.obj
 0001:0004aa9a       ??$extract_argument_from_va_list@PAUansi_string@?1??type_case_Z@?$output_processor@_WV?$string_output_adapter@_W@__crt_stdio_output@@V?$positional_parameter_base@_WV?$string_output_adapter@_W@__crt_stdio_output@@@2@@__crt_stdio_output@@AAE_NXZ@PAU1?1??234@AAE_NXZ@@?$positional_parameter_base@_WV?$string_output_adapter@_W@__crt_stdio_output@@@__crt_stdio_output@@IAE_NAAPAUansi_string@?1??type_case_Z@?$output_processor@_WV?$string_output_adapter@_W@__crt_stdio_output@@V?$positional_parameter_base@_WV?$string_output_adapter@_W@__crt_stdio_output@@@2@@1@AAE_NXZ@@Z 1004ba9a f i libucrt:output.obj
 0001:0004ab12       ??$extract_argument_from_va_list@PAUansi_string@?1??type_case_Z@?$output_processor@_WV?$string_output_adapter@_W@__crt_stdio_output@@V?$positional_parameter_base@_WV?$string_output_adapter@_W@__crt_stdio_output@@@2@@__crt_stdio_output@@AAE_NXZ@PAU1?1??234@AAE_NXZ@@?$standard_base@_WV?$string_output_adapter@_W@__crt_stdio_output@@@__crt_stdio_output@@IAE_NAAPAUansi_string@?1??type_case_Z@?$output_processor@_WV?$string_output_adapter@_W@__crt_stdio_output@@V?$positional_parameter_base@_WV?$string_output_adapter@_W@__crt_stdio_output@@@2@@1@AAE_NXZ@@Z 1004bb12 f i libucrt:output.obj
 0001:0004ab2c       ??$extract_argument_from_va_list@PAUansi_string@?1??type_case_Z@?$output_processor@_WV?$string_output_adapter@_W@__crt_stdio_output@@V?$standard_base@_WV?$string_output_adapter@_W@__crt_stdio_output@@@2@@__crt_stdio_output@@AAE_NXZ@PAU1?1??234@AAE_NXZ@@?$standard_base@_WV?$string_output_adapter@_W@__crt_stdio_output@@@__crt_stdio_output@@IAE_NAAPAUansi_string@?1??type_case_Z@?$output_processor@_WV?$string_output_adapter@_W@__crt_stdio_output@@V?$standard_base@_WV?$string_output_adapter@_W@__crt_stdio_output@@@2@@1@AAE_NXZ@@Z 1004bb2c f i libucrt:output.obj
 0001:0004ab46       ??$extract_argument_from_va_list@PAXPAX@?$positional_parameter_base@DV?$stream_output_adapter@D@__crt_stdio_output@@@__crt_stdio_output@@IAE_NAAPAX@Z 1004bb46 f i libucrt:output.obj
 0001:0004abbe       ??$extract_argument_from_va_list@PAXPAX@?$positional_parameter_base@DV?$string_output_adapter@D@__crt_stdio_output@@@__crt_stdio_output@@IAE_NAAPAX@Z 1004bbbe f i libucrt:output.obj
 0001:0004ac36       ??$extract_argument_from_va_list@PAXPAX@?$positional_parameter_base@_WV?$stream_output_adapter@_W@__crt_stdio_output@@@__crt_stdio_output@@IAE_NAAPAX@Z 1004bc36 f i libucrt:output.obj
 0001:0004acae       ??$extract_argument_from_va_list@PAXPAX@?$positional_parameter_base@_WV?$string_output_adapter@_W@__crt_stdio_output@@@__crt_stdio_output@@IAE_NAAPAX@Z 1004bcae f i libucrt:output.obj
 0001:0004ad26       ??$extract_argument_from_va_list@PAXPAX@?$standard_base@DV?$stream_output_adapter@D@__crt_stdio_output@@@__crt_stdio_output@@IAE_NAAPAX@Z 1004bd26 f i libucrt:output.obj
 0001:0004ad40       ??$extract_argument_from_va_list@PAXPAX@?$standard_base@DV?$string_output_adapter@D@__crt_stdio_output@@@__crt_stdio_output@@IAE_NAAPAX@Z 1004bd40 f i libucrt:output.obj
 0001:0004ad5a       ??$extract_argument_from_va_list@PAXPAX@?$standard_base@_WV?$stream_output_adapter@_W@__crt_stdio_output@@@__crt_stdio_output@@IAE_NAAPAX@Z 1004bd5a f i libucrt:output.obj
 0001:0004ad74       ??$extract_argument_from_va_list@PAXPAX@?$standard_base@_WV?$string_output_adapter@_W@__crt_stdio_output@@@__crt_stdio_output@@IAE_NAAPAX@Z 1004bd74 f i libucrt:output.obj
 0001:0004ad8e       ??$extract_argument_from_va_list@U_CRT_DOUBLE@@U1@@?$positional_parameter_base@DV?$stream_output_adapter@D@__crt_stdio_output@@@__crt_stdio_output@@IAE_NAAU_CRT_DOUBLE@@@Z 1004bd8e f i libucrt:output.obj
 0001:0004ae14       ??$extract_argument_from_va_list@U_CRT_DOUBLE@@U1@@?$positional_parameter_base@DV?$string_output_adapter@D@__crt_stdio_output@@@__crt_stdio_output@@IAE_NAAU_CRT_DOUBLE@@@Z 1004be14 f i libucrt:output.obj
 0001:0004ae9a       ??$extract_argument_from_va_list@U_CRT_DOUBLE@@U1@@?$positional_parameter_base@_WV?$stream_output_adapter@_W@__crt_stdio_output@@@__crt_stdio_output@@IAE_NAAU_CRT_DOUBLE@@@Z 1004be9a f i libucrt:output.obj
 0001:0004af20       ??$extract_argument_from_va_list@U_CRT_DOUBLE@@U1@@?$positional_parameter_base@_WV?$string_output_adapter@_W@__crt_stdio_output@@@__crt_stdio_output@@IAE_NAAU_CRT_DOUBLE@@@Z 1004bf20 f i libucrt:output.obj
 0001:0004afa6       ??$extract_argument_from_va_list@U_CRT_DOUBLE@@U1@@?$standard_base@DV?$stream_output_adapter@D@__crt_stdio_output@@@__crt_stdio_output@@IAE_NAAU_CRT_DOUBLE@@@Z 1004bfa6 f i libucrt:output.obj
 0001:0004afc6       ??$extract_argument_from_va_list@U_CRT_DOUBLE@@U1@@?$standard_base@DV?$string_output_adapter@D@__crt_stdio_output@@@__crt_stdio_output@@IAE_NAAU_CRT_DOUBLE@@@Z 1004bfc6 f i libucrt:output.obj
 0001:0004afe6       ??$extract_argument_from_va_list@U_CRT_DOUBLE@@U1@@?$standard_base@_WV?$stream_output_adapter@_W@__crt_stdio_output@@@__crt_stdio_output@@IAE_NAAU_CRT_DOUBLE@@@Z 1004bfe6 f i libucrt:output.obj
 0001:0004b006       ??$extract_argument_from_va_list@U_CRT_DOUBLE@@U1@@?$standard_base@_WV?$string_output_adapter@_W@__crt_stdio_output@@@__crt_stdio_output@@IAE_NAAU_CRT_DOUBLE@@@Z 1004c006 f i libucrt:output.obj
 0001:0004b026       ??$extract_argument_from_va_list@_J_J@?$positional_parameter_base@DV?$stream_output_adapter@D@__crt_stdio_output@@@__crt_stdio_output@@IAE_NAA_J@Z 1004c026 f i libucrt:output.obj
 0001:0004b0ac       ??$extract_argument_from_va_list@_J_J@?$positional_parameter_base@DV?$string_output_adapter@D@__crt_stdio_output@@@__crt_stdio_output@@IAE_NAA_J@Z 1004c0ac f i libucrt:output.obj
 0001:0004b132       ??$extract_argument_from_va_list@_J_J@?$positional_parameter_base@_WV?$stream_output_adapter@_W@__crt_stdio_output@@@__crt_stdio_output@@IAE_NAA_J@Z 1004c132 f i libucrt:output.obj
 0001:0004b1b8       ??$extract_argument_from_va_list@_J_J@?$positional_parameter_base@_WV?$string_output_adapter@_W@__crt_stdio_output@@@__crt_stdio_output@@IAE_NAA_J@Z 1004c1b8 f i libucrt:output.obj
 0001:0004b23e       ??$extract_argument_from_va_list@_J_J@?$standard_base@DV?$stream_output_adapter@D@__crt_stdio_output@@@__crt_stdio_output@@IAE_NAA_J@Z 1004c23e f i libucrt:output.obj
 0001:0004b25e       ??$extract_argument_from_va_list@_J_J@?$standard_base@DV?$string_output_adapter@D@__crt_stdio_output@@@__crt_stdio_output@@IAE_NAA_J@Z 1004c25e f i libucrt:output.obj
 0001:0004b27e       ??$extract_argument_from_va_list@_J_J@?$standard_base@_WV?$stream_output_adapter@_W@__crt_stdio_output@@@__crt_stdio_output@@IAE_NAA_J@Z 1004c27e f i libucrt:output.obj
 0001:0004b29e       ??$extract_argument_from_va_list@_J_J@?$standard_base@_WV?$string_output_adapter@_W@__crt_stdio_output@@@__crt_stdio_output@@IAE_NAA_J@Z 1004c29e f i libucrt:output.obj
 0001:0004b2be       ??$extract_argument_from_va_list@_K_J@?$positional_parameter_base@DV?$stream_output_adapter@D@__crt_stdio_output@@@__crt_stdio_output@@IAE_NAA_J@Z 1004c2be f i libucrt:output.obj
 0001:0004b344       ??$extract_argument_from_va_list@_K_J@?$positional_parameter_base@DV?$string_output_adapter@D@__crt_stdio_output@@@__crt_stdio_output@@IAE_NAA_J@Z 1004c344 f i libucrt:output.obj
 0001:0004b3ca       ??$extract_argument_from_va_list@_K_J@?$positional_parameter_base@_WV?$stream_output_adapter@_W@__crt_stdio_output@@@__crt_stdio_output@@IAE_NAA_J@Z 1004c3ca f i libucrt:output.obj
 0001:0004b450       ??$extract_argument_from_va_list@_K_J@?$positional_parameter_base@_WV?$string_output_adapter@_W@__crt_stdio_output@@@__crt_stdio_output@@IAE_NAA_J@Z 1004c450 f i libucrt:output.obj
 0001:0004b4d6       ??$extract_argument_from_va_list@_K_J@?$standard_base@DV?$stream_output_adapter@D@__crt_stdio_output@@@__crt_stdio_output@@IAE_NAA_J@Z 1004c4d6 f i libucrt:output.obj
 0001:0004b4f6       ??$extract_argument_from_va_list@_K_J@?$standard_base@DV?$string_output_adapter@D@__crt_stdio_output@@@__crt_stdio_output@@IAE_NAA_J@Z 1004c4f6 f i libucrt:output.obj
 0001:0004b516       ??$extract_argument_from_va_list@_K_J@?$standard_base@_WV?$stream_output_adapter@_W@__crt_stdio_output@@@__crt_stdio_output@@IAE_NAA_J@Z 1004c516 f i libucrt:output.obj
 0001:0004b536       ??$extract_argument_from_va_list@_K_J@?$standard_base@_WV?$string_output_adapter@_W@__crt_stdio_output@@@__crt_stdio_output@@IAE_NAA_J@Z 1004c536 f i libucrt:output.obj
 0001:0004b556       ??$extract_argument_from_va_list@_W_W@?$positional_parameter_base@DV?$stream_output_adapter@D@__crt_stdio_output@@@__crt_stdio_output@@IAE_NAA_W@Z 1004c556 f i libucrt:output.obj
 0001:0004b5d2       ??$extract_argument_from_va_list@_W_W@?$positional_parameter_base@DV?$string_output_adapter@D@__crt_stdio_output@@@__crt_stdio_output@@IAE_NAA_W@Z 1004c5d2 f i libucrt:output.obj
 0001:0004b64e       ??$extract_argument_from_va_list@_W_W@?$positional_parameter_base@_WV?$stream_output_adapter@_W@__crt_stdio_output@@@__crt_stdio_output@@IAE_NAA_W@Z 1004c64e f i libucrt:output.obj
 0001:0004b6ca       ??$extract_argument_from_va_list@_W_W@?$positional_parameter_base@_WV?$string_output_adapter@_W@__crt_stdio_output@@@__crt_stdio_output@@IAE_NAA_W@Z 1004c6ca f i libucrt:output.obj
 0001:0004b746       ??$extract_argument_from_va_list@_W_W@?$standard_base@DV?$stream_output_adapter@D@__crt_stdio_output@@@__crt_stdio_output@@IAE_NAA_W@Z 1004c746 f i libucrt:output.obj
 0001:0004b762       ??$extract_argument_from_va_list@_W_W@?$standard_base@DV?$string_output_adapter@D@__crt_stdio_output@@@__crt_stdio_output@@IAE_NAA_W@Z 1004c762 f i libucrt:output.obj
 0001:0004b77e       ??$extract_argument_from_va_list@_W_W@?$standard_base@_WV?$stream_output_adapter@_W@__crt_stdio_output@@@__crt_stdio_output@@IAE_NAA_W@Z 1004c77e f i libucrt:output.obj
 0001:0004b79a       ??$extract_argument_from_va_list@_W_W@?$standard_base@_WV?$string_output_adapter@_W@__crt_stdio_output@@@__crt_stdio_output@@IAE_NAA_W@Z 1004c79a f i libucrt:output.obj
 0001:0004b7b6       ??$get_parameter_type@D@?$positional_parameter_base@DV?$stream_output_adapter@D@__crt_stdio_output@@@__crt_stdio_output@@CA?AW4parameter_type@01@PAD@Z 1004c7b6 f i libucrt:output.obj
 0001:0004b7ba       ??$get_parameter_type@D@?$positional_parameter_base@DV?$string_output_adapter@D@__crt_stdio_output@@@__crt_stdio_output@@CA?AW4parameter_type@01@PAD@Z 1004c7ba f i libucrt:output.obj
 0001:0004b7be       ??$get_parameter_type@D@?$positional_parameter_base@_WV?$stream_output_adapter@_W@__crt_stdio_output@@@__crt_stdio_output@@CA?AW4parameter_type@01@PAD@Z 1004c7be f i libucrt:output.obj
 0001:0004b7c2       ??$get_parameter_type@D@?$positional_parameter_base@_WV?$string_output_adapter@_W@__crt_stdio_output@@@__crt_stdio_output@@CA?AW4parameter_type@01@PAD@Z 1004c7c2 f i libucrt:output.obj
 0001:0004b7c6       ??$get_parameter_type@Uansi_string@?1??type_case_Z@?$output_processor@DV?$stream_output_adapter@D@__crt_stdio_output@@V?$positional_parameter_base@DV?$stream_output_adapter@D@__crt_stdio_output@@@2@@__crt_stdio_output@@AAE_NXZ@@?$positional_parameter_base@DV?$stream_output_adapter@D@__crt_stdio_output@@@__crt_stdio_output@@CA?AW4parameter_type@01@PAUansi_string@?1??type_case_Z@?$output_processor@DV?$stream_output_adapter@D@__crt_stdio_output@@V?$positional_parameter_base@DV?$stream_output_adapter@D@__crt_stdio_output@@@2@@1@AAE_NXZ@@Z 1004c7c6 f i libucrt:output.obj
 0001:0004b7ca       ??$get_parameter_type@Uansi_string@?1??type_case_Z@?$output_processor@DV?$string_output_adapter@D@__crt_stdio_output@@V?$positional_parameter_base@DV?$string_output_adapter@D@__crt_stdio_output@@@2@@__crt_stdio_output@@AAE_NXZ@@?$positional_parameter_base@DV?$string_output_adapter@D@__crt_stdio_output@@@__crt_stdio_output@@CA?AW4parameter_type@01@PAUansi_string@?1??type_case_Z@?$output_processor@DV?$string_output_adapter@D@__crt_stdio_output@@V?$positional_parameter_base@DV?$string_output_adapter@D@__crt_stdio_output@@@2@@1@AAE_NXZ@@Z 1004c7ca f i libucrt:output.obj
 0001:0004b7ce       ??$get_parameter_type@Uansi_string@?1??type_case_Z@?$output_processor@_WV?$stream_output_adapter@_W@__crt_stdio_output@@V?$positional_parameter_base@_WV?$stream_output_adapter@_W@__crt_stdio_output@@@2@@__crt_stdio_output@@AAE_NXZ@@?$positional_parameter_base@_WV?$stream_output_adapter@_W@__crt_stdio_output@@@__crt_stdio_output@@CA?AW4parameter_type@01@PAUansi_string@?1??type_case_Z@?$output_processor@_WV?$stream_output_adapter@_W@__crt_stdio_output@@V?$positional_parameter_base@_WV?$stream_output_adapter@_W@__crt_stdio_output@@@2@@1@AAE_NXZ@@Z 1004c7ce f i libucrt:output.obj
 0001:0004b7d2       ??$get_parameter_type@Uansi_string@?1??type_case_Z@?$output_processor@_WV?$string_output_adapter@_W@__crt_stdio_output@@V?$positional_parameter_base@_WV?$string_output_adapter@_W@__crt_stdio_output@@@2@@__crt_stdio_output@@AAE_NXZ@@?$positional_parameter_base@_WV?$string_output_adapter@_W@__crt_stdio_output@@@__crt_stdio_output@@CA?AW4parameter_type@01@PAUansi_string@?1??type_case_Z@?$output_processor@_WV?$string_output_adapter@_W@__crt_stdio_output@@V?$positional_parameter_base@_WV?$string_output_adapter@_W@__crt_stdio_output@@@2@@1@AAE_NXZ@@Z 1004c7d2 f i libucrt:output.obj
 0001:0004b7d6       ??$get_parameter_type@X@?$positional_parameter_base@DV?$stream_output_adapter@D@__crt_stdio_output@@@__crt_stdio_output@@CA?AW4parameter_type@01@PAX@Z 1004c7d6 f i libucrt:output.obj
 0001:0004b7da       ??$get_parameter_type@X@?$positional_parameter_base@DV?$string_output_adapter@D@__crt_stdio_output@@@__crt_stdio_output@@CA?AW4parameter_type@01@PAX@Z 1004c7da f i libucrt:output.obj
 0001:0004b7de       ??$get_parameter_type@X@?$positional_parameter_base@_WV?$stream_output_adapter@_W@__crt_stdio_output@@@__crt_stdio_output@@CA?AW4parameter_type@01@PAX@Z 1004c7de f i libucrt:output.obj
 0001:0004b7e2       ??$get_parameter_type@X@?$positional_parameter_base@_WV?$string_output_adapter@_W@__crt_stdio_output@@@__crt_stdio_output@@CA?AW4parameter_type@01@PAX@Z 1004c7e2 f i libucrt:output.obj
 0001:0004b7e6       ??$is_character_specifier@D@?$positional_parameter_base@DV?$stream_output_adapter@D@__crt_stdio_output@@@__crt_stdio_output@@CA_ND@Z 1004c7e6 f i libucrt:output.obj
 0001:0004b7fe       ??$is_character_specifier@D@?$positional_parameter_base@DV?$string_output_adapter@D@__crt_stdio_output@@@__crt_stdio_output@@CA_ND@Z 1004c7fe f i libucrt:output.obj
 0001:0004b816       ??$is_character_specifier@_W@?$positional_parameter_base@_WV?$stream_output_adapter@_W@__crt_stdio_output@@@__crt_stdio_output@@CA_N_W@Z 1004c816 f i libucrt:output.obj
 0001:0004b831       ??$is_character_specifier@_W@?$positional_parameter_base@_WV?$string_output_adapter@_W@__crt_stdio_output@@@__crt_stdio_output@@CA_N_W@Z 1004c831 f i libucrt:output.obj
 0001:0004b84c       ??$is_integral_specifier@D@?$positional_parameter_base@DV?$stream_output_adapter@D@__crt_stdio_output@@@__crt_stdio_output@@CA_ND@Z 1004c84c f i libucrt:output.obj
 0001:0004b878       ??$is_integral_specifier@D@?$positional_parameter_base@DV?$string_output_adapter@D@__crt_stdio_output@@@__crt_stdio_output@@CA_ND@Z 1004c878 f i libucrt:output.obj
 0001:0004b8a4       ??$is_integral_specifier@_W@?$positional_parameter_base@_WV?$stream_output_adapter@_W@__crt_stdio_output@@@__crt_stdio_output@@CA_N_W@Z 1004c8a4 f i libucrt:output.obj
 0001:0004b8df       ??$is_integral_specifier@_W@?$positional_parameter_base@_WV?$string_output_adapter@_W@__crt_stdio_output@@@__crt_stdio_output@@CA_N_W@Z 1004c8df f i libucrt:output.obj
 0001:0004b91a       ??$is_pointer_specifier@D@?$positional_parameter_base@DV?$stream_output_adapter@D@__crt_stdio_output@@@__crt_stdio_output@@CA_ND@Z 1004c91a f i libucrt:output.obj
 0001:0004b928       ??$is_pointer_specifier@D@?$positional_parameter_base@DV?$string_output_adapter@D@__crt_stdio_output@@@__crt_stdio_output@@CA_ND@Z 1004c928 f i libucrt:output.obj
 0001:0004b936       ??$is_pointer_specifier@_W@?$positional_parameter_base@_WV?$stream_output_adapter@_W@__crt_stdio_output@@@__crt_stdio_output@@CA_N_W@Z 1004c936 f i libucrt:output.obj
 0001:0004b945       ??$is_pointer_specifier@_W@?$positional_parameter_base@_WV?$string_output_adapter@_W@__crt_stdio_output@@@__crt_stdio_output@@CA_N_W@Z 1004c945 f i libucrt:output.obj
 0001:0004b954       ??$is_string_specifier@D@?$positional_parameter_base@DV?$stream_output_adapter@D@__crt_stdio_output@@@__crt_stdio_output@@CA_ND@Z 1004c954 f i libucrt:output.obj
 0001:0004b96c       ??$is_string_specifier@D@?$positional_parameter_base@DV?$string_output_adapter@D@__crt_stdio_output@@@__crt_stdio_output@@CA_ND@Z 1004c96c f i libucrt:output.obj
 0001:0004b984       ??$is_string_specifier@_W@?$positional_parameter_base@_WV?$stream_output_adapter@_W@__crt_stdio_output@@@__crt_stdio_output@@CA_N_W@Z 1004c984 f i libucrt:output.obj
 0001:0004b99f       ??$is_string_specifier@_W@?$positional_parameter_base@_WV?$string_output_adapter@_W@__crt_stdio_output@@@__crt_stdio_output@@CA_N_W@Z 1004c99f f i libucrt:output.obj
 0001:0004b9ba       ??$is_wide_character_specifier@D@__crt_stdio_output@@YA_N_KDW4length_modifier@0@@Z 1004c9ba f i libucrt:output.obj
 0001:0004b9eb       ??$is_wide_character_specifier@_W@__crt_stdio_output@@YA_N_K_WW4length_modifier@0@@Z 1004c9eb f i libucrt:output.obj
 0001:0004ba39       ??$peek_va_arg@C@__crt_stdio_output@@YACPAD@Z 1004ca39 f i libucrt:output.obj
 0001:0004ba45       ??$peek_va_arg@E@__crt_stdio_output@@YAEPAD@Z 1004ca45 f i libucrt:output.obj
 0001:0004ba51       ??$peek_va_arg@F@__crt_stdio_output@@YAFPAD@Z 1004ca51 f i libucrt:output.obj
 0001:0004ba5e       ??$peek_va_arg@G@__crt_stdio_output@@YAGPAD@Z 1004ca5e f i libucrt:output.obj
 0001:0004ba6b       ??$peek_va_arg@H@__crt_stdio_output@@YAHPAD@Z 1004ca6b f i libucrt:output.obj
 0001:0004ba77       ??$peek_va_arg@I@__crt_stdio_output@@YAIPAD@Z 1004ca77 f i libucrt:output.obj
 0001:0004ba83       ??$peek_va_arg@PAD@__crt_stdio_output@@YAPADPAD@Z 1004ca83 f i libucrt:output.obj
 0001:0004ba8f       ??$peek_va_arg@PAUansi_string@?1??type_case_Z@?$output_processor@DV?$stream_output_adapter@D@__crt_stdio_output@@V?$positional_parameter_base@DV?$stream_output_adapter@D@__crt_stdio_output@@@2@@__crt_stdio_output@@AAE_NXZ@@__crt_stdio_output@@YAPAUansi_string@?1??type_case_Z@?$output_processor@DV?$stream_output_adapter@D@__crt_stdio_output@@V?$positional_parameter_base@DV?$stream_output_adapter@D@__crt_stdio_output@@@2@@0@AAE_NXZ@PAD@Z 1004ca8f f i libucrt:output.obj
 0001:0004ba9b       ??$peek_va_arg@PAUansi_string@?1??type_case_Z@?$output_processor@DV?$string_output_adapter@D@__crt_stdio_output@@V?$positional_parameter_base@DV?$string_output_adapter@D@__crt_stdio_output@@@2@@__crt_stdio_output@@AAE_NXZ@@__crt_stdio_output@@YAPAUansi_string@?1??type_case_Z@?$output_processor@DV?$string_output_adapter@D@__crt_stdio_output@@V?$positional_parameter_base@DV?$string_output_adapter@D@__crt_stdio_output@@@2@@0@AAE_NXZ@PAD@Z 1004ca9b f i libucrt:output.obj
 0001:0004baa7       ??$peek_va_arg@PAUansi_string@?1??type_case_Z@?$output_processor@_WV?$stream_output_adapter@_W@__crt_stdio_output@@V?$positional_parameter_base@_WV?$stream_output_adapter@_W@__crt_stdio_output@@@2@@__crt_stdio_output@@AAE_NXZ@@__crt_stdio_output@@YAPAUansi_string@?1??type_case_Z@?$output_processor@_WV?$stream_output_adapter@_W@__crt_stdio_output@@V?$positional_parameter_base@_WV?$stream_output_adapter@_W@__crt_stdio_output@@@2@@0@AAE_NXZ@PAD@Z 1004caa7 f i libucrt:output.obj
 0001:0004bab3       ??$peek_va_arg@PAUansi_string@?1??type_case_Z@?$output_processor@_WV?$string_output_adapter@_W@__crt_stdio_output@@V?$positional_parameter_base@_WV?$string_output_adapter@_W@__crt_stdio_output@@@2@@__crt_stdio_output@@AAE_NXZ@@__crt_stdio_output@@YAPAUansi_string@?1??type_case_Z@?$output_processor@_WV?$string_output_adapter@_W@__crt_stdio_output@@V?$positional_parameter_base@_WV?$string_output_adapter@_W@__crt_stdio_output@@@2@@0@AAE_NXZ@PAD@Z 1004cab3 f i libucrt:output.obj
 0001:0004babf       ??$peek_va_arg@PAX@__crt_stdio_output@@YAPAXPAD@Z 1004cabf f i libucrt:output.obj
 0001:0004bacb       ??$peek_va_arg@U_CRT_DOUBLE@@@__crt_stdio_output@@YA?AU_CRT_DOUBLE@@PAD@Z 1004cacb f i libucrt:output.obj
 0001:0004bada       ??$peek_va_arg@_J@__crt_stdio_output@@YA_JPAD@Z 1004cada f i libucrt:output.obj
 0001:0004bae9       ??$peek_va_arg@_K@__crt_stdio_output@@YA_KPAD@Z 1004cae9 f i libucrt:output.obj
 0001:0004baf8       ??$peek_va_arg@_W@__crt_stdio_output@@YA_WPAD@Z 1004caf8 f i libucrt:output.obj
 0001:0004bb05       ??$puttc_nolock@ABDPAU_iobuf@@@?$__crt_char_traits@D@@SAHABD$$QAPAU_iobuf@@@Z 1004cb05 f i libucrt:output.obj
 0001:0004bb1f       ??$puttc_nolock@AB_WPAU_iobuf@@@?$__crt_char_traits@_W@@SAGAB_W$$QAPAU_iobuf@@@Z 1004cb1f f i libucrt:output.obj
 0001:0004bb39       ??$read_va_arg@C@__crt_stdio_output@@YACAAPAD@Z 1004cb39 f i libucrt:output.obj
 0001:0004bb4b       ??$read_va_arg@E@__crt_stdio_output@@YAEAAPAD@Z 1004cb4b f i libucrt:output.obj
 0001:0004bb5d       ??$read_va_arg@F@__crt_stdio_output@@YAFAAPAD@Z 1004cb5d f i libucrt:output.obj
 0001:0004bb70       ??$read_va_arg@G@__crt_stdio_output@@YAGAAPAD@Z 1004cb70 f i libucrt:output.obj
 0001:0004bb83       ??$read_va_arg@H@__crt_stdio_output@@YAHAAPAD@Z 1004cb83 f i libucrt:output.obj
 0001:0004bb95       ??$read_va_arg@I@__crt_stdio_output@@YAIAAPAD@Z 1004cb95 f i libucrt:output.obj
 0001:0004bba7       ??$read_va_arg@PAD@__crt_stdio_output@@YAPADAAPAD@Z 1004cba7 f i libucrt:output.obj
 0001:0004bbb9       ??$read_va_arg@PAUansi_string@?1??type_case_Z@?$output_processor@DV?$stream_output_adapter@D@__crt_stdio_output@@V?$format_validation_base@DV?$stream_output_adapter@D@__crt_stdio_output@@@2@@__crt_stdio_output@@AAE_NXZ@@__crt_stdio_output@@YAPAUansi_string@?1??type_case_Z@?$output_processor@DV?$stream_output_adapter@D@__crt_stdio_output@@V?$format_validation_base@DV?$stream_output_adapter@D@__crt_stdio_output@@@2@@0@AAE_NXZ@AAPAD@Z 1004cbb9 f i libucrt:output.obj
 0001:0004bbcb       ??$read_va_arg@PAUansi_string@?1??type_case_Z@?$output_processor@DV?$stream_output_adapter@D@__crt_stdio_output@@V?$positional_parameter_base@DV?$stream_output_adapter@D@__crt_stdio_output@@@2@@__crt_stdio_output@@AAE_NXZ@@__crt_stdio_output@@YAPAUansi_string@?1??type_case_Z@?$output_processor@DV?$stream_output_adapter@D@__crt_stdio_output@@V?$positional_parameter_base@DV?$stream_output_adapter@D@__crt_stdio_output@@@2@@0@AAE_NXZ@AAPAD@Z 1004cbcb f i libucrt:output.obj
 0001:0004bbdd       ??$read_va_arg@PAUansi_string@?1??type_case_Z@?$output_processor@DV?$stream_output_adapter@D@__crt_stdio_output@@V?$standard_base@DV?$stream_output_adapter@D@__crt_stdio_output@@@2@@__crt_stdio_output@@AAE_NXZ@@__crt_stdio_output@@YAPAUansi_string@?1??type_case_Z@?$output_processor@DV?$stream_output_adapter@D@__crt_stdio_output@@V?$standard_base@DV?$stream_output_adapter@D@__crt_stdio_output@@@2@@0@AAE_NXZ@AAPAD@Z 1004cbdd f i libucrt:output.obj
 0001:0004bbef       ??$read_va_arg@PAUansi_string@?1??type_case_Z@?$output_processor@DV?$string_output_adapter@D@__crt_stdio_output@@V?$format_validation_base@DV?$string_output_adapter@D@__crt_stdio_output@@@2@@__crt_stdio_output@@AAE_NXZ@@__crt_stdio_output@@YAPAUansi_string@?1??type_case_Z@?$output_processor@DV?$string_output_adapter@D@__crt_stdio_output@@V?$format_validation_base@DV?$string_output_adapter@D@__crt_stdio_output@@@2@@0@AAE_NXZ@AAPAD@Z 1004cbef f i libucrt:output.obj
 0001:0004bc01       ??$read_va_arg@PAUansi_string@?1??type_case_Z@?$output_processor@DV?$string_output_adapter@D@__crt_stdio_output@@V?$positional_parameter_base@DV?$string_output_adapter@D@__crt_stdio_output@@@2@@__crt_stdio_output@@AAE_NXZ@@__crt_stdio_output@@YAPAUansi_string@?1??type_case_Z@?$output_processor@DV?$string_output_adapter@D@__crt_stdio_output@@V?$positional_parameter_base@DV?$string_output_adapter@D@__crt_stdio_output@@@2@@0@AAE_NXZ@AAPAD@Z 1004cc01 f i libucrt:output.obj
 0001:0004bc13       ??$read_va_arg@PAUansi_string@?1??type_case_Z@?$output_processor@DV?$string_output_adapter@D@__crt_stdio_output@@V?$standard_base@DV?$string_output_adapter@D@__crt_stdio_output@@@2@@__crt_stdio_output@@AAE_NXZ@@__crt_stdio_output@@YAPAUansi_string@?1??type_case_Z@?$output_processor@DV?$string_output_adapter@D@__crt_stdio_output@@V?$standard_base@DV?$string_output_adapter@D@__crt_stdio_output@@@2@@0@AAE_NXZ@AAPAD@Z 1004cc13 f i libucrt:output.obj
 0001:0004bc25       ??$read_va_arg@PAUansi_string@?1??type_case_Z@?$output_processor@_WV?$stream_output_adapter@_W@__crt_stdio_output@@V?$format_validation_base@_WV?$stream_output_adapter@_W@__crt_stdio_output@@@2@@__crt_stdio_output@@AAE_NXZ@@__crt_stdio_output@@YAPAUansi_string@?1??type_case_Z@?$output_processor@_WV?$stream_output_adapter@_W@__crt_stdio_output@@V?$format_validation_base@_WV?$stream_output_adapter@_W@__crt_stdio_output@@@2@@0@AAE_NXZ@AAPAD@Z 1004cc25 f i libucrt:output.obj
 0001:0004bc37       ??$read_va_arg@PAUansi_string@?1??type_case_Z@?$output_processor@_WV?$stream_output_adapter@_W@__crt_stdio_output@@V?$positional_parameter_base@_WV?$stream_output_adapter@_W@__crt_stdio_output@@@2@@__crt_stdio_output@@AAE_NXZ@@__crt_stdio_output@@YAPAUansi_string@?1??type_case_Z@?$output_processor@_WV?$stream_output_adapter@_W@__crt_stdio_output@@V?$positional_parameter_base@_WV?$stream_output_adapter@_W@__crt_stdio_output@@@2@@0@AAE_NXZ@AAPAD@Z 1004cc37 f i libucrt:output.obj
 0001:0004bc49       ??$read_va_arg@PAUansi_string@?1??type_case_Z@?$output_processor@_WV?$stream_output_adapter@_W@__crt_stdio_output@@V?$standard_base@_WV?$stream_output_adapter@_W@__crt_stdio_output@@@2@@__crt_stdio_output@@AAE_NXZ@@__crt_stdio_output@@YAPAUansi_string@?1??type_case_Z@?$output_processor@_WV?$stream_output_adapter@_W@__crt_stdio_output@@V?$standard_base@_WV?$stream_output_adapter@_W@__crt_stdio_output@@@2@@0@AAE_NXZ@AAPAD@Z 1004cc49 f i libucrt:output.obj
 0001:0004bc5b       ??$read_va_arg@PAUansi_string@?1??type_case_Z@?$output_processor@_WV?$string_output_adapter@_W@__crt_stdio_output@@V?$format_validation_base@_WV?$string_output_adapter@_W@__crt_stdio_output@@@2@@__crt_stdio_output@@AAE_NXZ@@__crt_stdio_output@@YAPAUansi_string@?1??type_case_Z@?$output_processor@_WV?$string_output_adapter@_W@__crt_stdio_output@@V?$format_validation_base@_WV?$string_output_adapter@_W@__crt_stdio_output@@@2@@0@AAE_NXZ@AAPAD@Z 1004cc5b f i libucrt:output.obj
 0001:0004bc6d       ??$read_va_arg@PAUansi_string@?1??type_case_Z@?$output_processor@_WV?$string_output_adapter@_W@__crt_stdio_output@@V?$positional_parameter_base@_WV?$string_output_adapter@_W@__crt_stdio_output@@@2@@__crt_stdio_output@@AAE_NXZ@@__crt_stdio_output@@YAPAUansi_string@?1??type_case_Z@?$output_processor@_WV?$string_output_adapter@_W@__crt_stdio_output@@V?$positional_parameter_base@_WV?$string_output_adapter@_W@__crt_stdio_output@@@2@@0@AAE_NXZ@AAPAD@Z 1004cc6d f i libucrt:output.obj
 0001:0004bc7f       ??$read_va_arg@PAUansi_string@?1??type_case_Z@?$output_processor@_WV?$string_output_adapter@_W@__crt_stdio_output@@V?$standard_base@_WV?$string_output_adapter@_W@__crt_stdio_output@@@2@@__crt_stdio_output@@AAE_NXZ@@__crt_stdio_output@@YAPAUansi_string@?1??type_case_Z@?$output_processor@_WV?$string_output_adapter@_W@__crt_stdio_output@@V?$standard_base@_WV?$string_output_adapter@_W@__crt_stdio_output@@@2@@0@AAE_NXZ@AAPAD@Z 1004cc7f f i libucrt:output.obj
 0001:0004bc91       ??$read_va_arg@PAX@__crt_stdio_output@@YAPAXAAPAD@Z 1004cc91 f i libucrt:output.obj
 0001:0004bca3       ??$read_va_arg@U_CRT_DOUBLE@@@__crt_stdio_output@@YA?AU_CRT_DOUBLE@@AAPAD@Z 1004cca3 f i libucrt:output.obj
 0001:0004bcb9       ??$read_va_arg@_J@__crt_stdio_output@@YA_JAAPAD@Z 1004ccb9 f i libucrt:output.obj
 0001:0004bcce       ??$read_va_arg@_K@__crt_stdio_output@@YA_KAAPAD@Z 1004ccce f i libucrt:output.obj
 0001:0004bce3       ??$read_va_arg@_W@__crt_stdio_output@@YA_WAAPAD@Z 1004cce3 f i libucrt:output.obj
 0001:0004bcf6       ??$scratch_count@D@formatting_buffer@__crt_stdio_output@@QBEIXZ 1004ccf6 f i libucrt:output.obj
 0001:0004bcfb       ??$scratch_data@D@formatting_buffer@__crt_stdio_output@@QAEPADXZ 1004ccfb f i libucrt:output.obj
 0001:0004bd19       ??$tcstol@AAPBDPAPADH@?$__crt_char_traits@D@@SAJAAPBD$$QAPAPAD$$QAH@Z 1004cd19 f i libucrt:output.obj
 0001:0004bd37       ??$tcstol@AAPB_WPAPA_WH@?$__crt_char_traits@_W@@SAJAAPB_W$$QAPAPA_W$$QAH@Z 1004cd37 f i libucrt:output.obj
 0001:0004bd55       ??$tcstol@PBDPAPADH@?$__crt_char_traits@D@@SAJ$$QAPBD$$QAPAPAD$$QAH@Z 1004cd55 f i libucrt:output.obj
 0001:0004bd73       ??$tcstol@PB_WPAPA_WH@?$__crt_char_traits@_W@@SAJ$$QAPB_W$$QAPAPA_W$$QAH@Z 1004cd73 f i libucrt:output.obj
 0001:0004bd91       ??$type_case_integer_parse_into_buffer@I@?$output_processor@DV?$stream_output_adapter@D@__crt_stdio_output@@V?$format_validation_base@DV?$stream_output_adapter@D@__crt_stdio_output@@@2@@__crt_stdio_output@@AAEXII_N@Z 1004cd91 f i libucrt:output.obj
 0001:0004be04       ??$type_case_integer_parse_into_buffer@I@?$output_processor@DV?$stream_output_adapter@D@__crt_stdio_output@@V?$positional_parameter_base@DV?$stream_output_adapter@D@__crt_stdio_output@@@2@@__crt_stdio_output@@AAEXII_N@Z 1004ce04 f i libucrt:output.obj
 0001:0004be77       ??$type_case_integer_parse_into_buffer@I@?$output_processor@DV?$stream_output_adapter@D@__crt_stdio_output@@V?$standard_base@DV?$stream_output_adapter@D@__crt_stdio_output@@@2@@__crt_stdio_output@@AAEXII_N@Z 1004ce77 f i libucrt:output.obj
 0001:0004beea       ??$type_case_integer_parse_into_buffer@I@?$output_processor@DV?$string_output_adapter@D@__crt_stdio_output@@V?$format_validation_base@DV?$string_output_adapter@D@__crt_stdio_output@@@2@@__crt_stdio_output@@AAEXII_N@Z 1004ceea f i libucrt:output.obj
 0001:0004bf5d       ??$type_case_integer_parse_into_buffer@I@?$output_processor@DV?$string_output_adapter@D@__crt_stdio_output@@V?$positional_parameter_base@DV?$string_output_adapter@D@__crt_stdio_output@@@2@@__crt_stdio_output@@AAEXII_N@Z 1004cf5d f i libucrt:output.obj
 0001:0004bfd0       ??$type_case_integer_parse_into_buffer@I@?$output_processor@DV?$string_output_adapter@D@__crt_stdio_output@@V?$standard_base@DV?$string_output_adapter@D@__crt_stdio_output@@@2@@__crt_stdio_output@@AAEXII_N@Z 1004cfd0 f i libucrt:output.obj
 0001:0004c043       ??$type_case_integer_parse_into_buffer@I@?$output_processor@_WV?$stream_output_adapter@_W@__crt_stdio_output@@V?$format_validation_base@_WV?$stream_output_adapter@_W@__crt_stdio_output@@@2@@__crt_stdio_output@@AAEXII_N@Z 1004d043 f i libucrt:output.obj
 0001:0004c0ca       ??$type_case_integer_parse_into_buffer@I@?$output_processor@_WV?$stream_output_adapter@_W@__crt_stdio_output@@V?$positional_parameter_base@_WV?$stream_output_adapter@_W@__crt_stdio_output@@@2@@__crt_stdio_output@@AAEXII_N@Z 1004d0ca f i libucrt:output.obj
 0001:0004c151       ??$type_case_integer_parse_into_buffer@I@?$output_processor@_WV?$stream_output_adapter@_W@__crt_stdio_output@@V?$standard_base@_WV?$stream_output_adapter@_W@__crt_stdio_output@@@2@@__crt_stdio_output@@AAEXII_N@Z 1004d151 f i libucrt:output.obj
 0001:0004c1d8       ??$type_case_integer_parse_into_buffer@I@?$output_processor@_WV?$string_output_adapter@_W@__crt_stdio_output@@V?$format_validation_base@_WV?$string_output_adapter@_W@__crt_stdio_output@@@2@@__crt_stdio_output@@AAEXII_N@Z 1004d1d8 f i libucrt:output.obj
 0001:0004c25f       ??$type_case_integer_parse_into_buffer@I@?$output_processor@_WV?$string_output_adapter@_W@__crt_stdio_output@@V?$positional_parameter_base@_WV?$string_output_adapter@_W@__crt_stdio_output@@@2@@__crt_stdio_output@@AAEXII_N@Z 1004d25f f i libucrt:output.obj
 0001:0004c2e6       ??$type_case_integer_parse_into_buffer@I@?$output_processor@_WV?$string_output_adapter@_W@__crt_stdio_output@@V?$standard_base@_WV?$string_output_adapter@_W@__crt_stdio_output@@@2@@__crt_stdio_output@@AAEXII_N@Z 1004d2e6 f i libucrt:output.obj
 0001:0004c36d       ??$type_case_integer_parse_into_buffer@_K@?$output_processor@DV?$stream_output_adapter@D@__crt_stdio_output@@V?$format_validation_base@DV?$stream_output_adapter@D@__crt_stdio_output@@@2@@__crt_stdio_output@@AAEX_KI_N@Z 1004d36d f i libucrt:output.obj
 0001:0004c3fb       ??$type_case_integer_parse_into_buffer@_K@?$output_processor@DV?$stream_output_adapter@D@__crt_stdio_output@@V?$positional_parameter_base@DV?$stream_output_adapter@D@__crt_stdio_output@@@2@@__crt_stdio_output@@AAEX_KI_N@Z 1004d3fb f i libucrt:output.obj
 0001:0004c489       ??$type_case_integer_parse_into_buffer@_K@?$output_processor@DV?$stream_output_adapter@D@__crt_stdio_output@@V?$standard_base@DV?$stream_output_adapter@D@__crt_stdio_output@@@2@@__crt_stdio_output@@AAEX_KI_N@Z 1004d489 f i libucrt:output.obj
 0001:0004c517       ??$type_case_integer_parse_into_buffer@_K@?$output_processor@DV?$string_output_adapter@D@__crt_stdio_output@@V?$format_validation_base@DV?$string_output_adapter@D@__crt_stdio_output@@@2@@__crt_stdio_output@@AAEX_KI_N@Z 1004d517 f i libucrt:output.obj
 0001:0004c5a5       ??$type_case_integer_parse_into_buffer@_K@?$output_processor@DV?$string_output_adapter@D@__crt_stdio_output@@V?$positional_parameter_base@DV?$string_output_adapter@D@__crt_stdio_output@@@2@@__crt_stdio_output@@AAEX_KI_N@Z 1004d5a5 f i libucrt:output.obj
 0001:0004c633       ??$type_case_integer_parse_into_buffer@_K@?$output_processor@DV?$string_output_adapter@D@__crt_stdio_output@@V?$standard_base@DV?$string_output_adapter@D@__crt_stdio_output@@@2@@__crt_stdio_output@@AAEX_KI_N@Z 1004d633 f i libucrt:output.obj
 0001:0004c6c1       ??$type_case_integer_parse_into_buffer@_K@?$output_processor@_WV?$stream_output_adapter@_W@__crt_stdio_output@@V?$format_validation_base@_WV?$stream_output_adapter@_W@__crt_stdio_output@@@2@@__crt_stdio_output@@AAEX_KI_N@Z 1004d6c1 f i libucrt:output.obj
 0001:0004c763       ??$type_case_integer_parse_into_buffer@_K@?$output_processor@_WV?$stream_output_adapter@_W@__crt_stdio_output@@V?$positional_parameter_base@_WV?$stream_output_adapter@_W@__crt_stdio_output@@@2@@__crt_stdio_output@@AAEX_KI_N@Z 1004d763 f i libucrt:output.obj
 0001:0004c805       ??$type_case_integer_parse_into_buffer@_K@?$output_processor@_WV?$stream_output_adapter@_W@__crt_stdio_output@@V?$standard_base@_WV?$stream_output_adapter@_W@__crt_stdio_output@@@2@@__crt_stdio_output@@AAEX_KI_N@Z 1004d805 f i libucrt:output.obj
 0001:0004c8a7       ??$type_case_integer_parse_into_buffer@_K@?$output_processor@_WV?$string_output_adapter@_W@__crt_stdio_output@@V?$format_validation_base@_WV?$string_output_adapter@_W@__crt_stdio_output@@@2@@__crt_stdio_output@@AAEX_KI_N@Z 1004d8a7 f i libucrt:output.obj
 0001:0004c949       ??$type_case_integer_parse_into_buffer@_K@?$output_processor@_WV?$string_output_adapter@_W@__crt_stdio_output@@V?$positional_parameter_base@_WV?$string_output_adapter@_W@__crt_stdio_output@@@2@@__crt_stdio_output@@AAEX_KI_N@Z 1004d949 f i libucrt:output.obj
 0001:0004c9eb       ??$type_case_integer_parse_into_buffer@_K@?$output_processor@_WV?$string_output_adapter@_W@__crt_stdio_output@@V?$standard_base@_WV?$string_output_adapter@_W@__crt_stdio_output@@@2@@__crt_stdio_output@@AAEX_KI_N@Z 1004d9eb f i libucrt:output.obj
 0001:0004ca8d       ??$write_multiple_characters@V?$stream_output_adapter@D@__crt_stdio_output@@D@__crt_stdio_output@@YAXABV?$stream_output_adapter@D@0@DHQAH@Z 1004da8d f i libucrt:output.obj
 0001:0004cac8       ??$write_multiple_characters@V?$stream_output_adapter@_W@__crt_stdio_output@@D@__crt_stdio_output@@YAXABV?$stream_output_adapter@_W@0@DHQAH@Z 1004dac8 f i libucrt:output.obj
 0001:0004cb08       ??$write_multiple_characters@V?$string_output_adapter@D@__crt_stdio_output@@D@__crt_stdio_output@@YAXABV?$string_output_adapter@D@0@DHQAH@Z 1004db08 f i libucrt:output.obj
 0001:0004cb34       ??$write_multiple_characters@V?$string_output_adapter@_W@__crt_stdio_output@@D@__crt_stdio_output@@YAXABV?$string_output_adapter@_W@0@DHQAH@Z 1004db34 f i libucrt:output.obj
 0001:0004cd2d       ??0?$common_data@D@__crt_stdio_output@@IAE@XZ 1004dd2d f i libucrt:output.obj
 0001:0004cd72       ??0?$common_data@_W@__crt_stdio_output@@IAE@XZ 1004dd72 f i libucrt:output.obj
 0001:0004cdbc       ??0?$output_adapter_data@DV?$stream_output_adapter@D@__crt_stdio_output@@@__crt_stdio_output@@IAE@ABV?$stream_output_adapter@D@1@_KQBDQAU__crt_locale_pointers@@QAD@Z 1004ddbc f i libucrt:output.obj
 0001:0004cdf8       ??0?$output_adapter_data@DV?$string_output_adapter@D@__crt_stdio_output@@@__crt_stdio_output@@IAE@ABV?$string_output_adapter@D@1@_KQBDQAU__crt_locale_pointers@@QAD@Z 1004ddf8 f i libucrt:output.obj
 0001:0004ce34       ??0?$output_adapter_data@_WV?$stream_output_adapter@_W@__crt_stdio_output@@@__crt_stdio_output@@IAE@ABV?$stream_output_adapter@_W@1@_KQB_WQAU__crt_locale_pointers@@QAD@Z 1004de34 f i libucrt:output.obj
 0001:0004ce70       ??0?$output_adapter_data@_WV?$string_output_adapter@_W@__crt_stdio_output@@@__crt_stdio_output@@IAE@ABV?$string_output_adapter@_W@1@_KQB_WQAU__crt_locale_pointers@@QAD@Z 1004de70 f i libucrt:output.obj
 0001:0004ceac       ??0?$output_processor@DV?$stream_output_adapter@D@__crt_stdio_output@@V?$format_validation_base@DV?$stream_output_adapter@D@__crt_stdio_output@@@2@@__crt_stdio_output@@QAE@ABV?$stream_output_adapter@D@1@_KQBDQAU__crt_locale_pointers@@QAD@Z 1004deac f i libucrt:output.obj
 0001:0004ced9       ??0?$output_processor@DV?$stream_output_adapter@D@__crt_stdio_output@@V?$positional_parameter_base@DV?$stream_output_adapter@D@__crt_stdio_output@@@2@@__crt_stdio_output@@QAE@ABV?$stream_output_adapter@D@1@_KQBDQAU__crt_locale_pointers@@QAD@Z 1004ded9 f i libucrt:output.obj
 0001:0004cf00       ??0?$output_processor@DV?$stream_output_adapter@D@__crt_stdio_output@@V?$standard_base@DV?$stream_output_adapter@D@__crt_stdio_output@@@2@@__crt_stdio_output@@QAE@ABV?$stream_output_adapter@D@1@_KQBDQAU__crt_locale_pointers@@QAD@Z 1004df00 f i libucrt:output.obj
 0001:0004cf2d       ??0?$output_processor@DV?$string_output_adapter@D@__crt_stdio_output@@V?$format_validation_base@DV?$string_output_adapter@D@__crt_stdio_output@@@2@@__crt_stdio_output@@QAE@ABV?$string_output_adapter@D@1@_KQBDQAU__crt_locale_pointers@@QAD@Z 1004df2d f i libucrt:output.obj
 0001:0004cf5a       ??0?$output_processor@DV?$string_output_adapter@D@__crt_stdio_output@@V?$positional_parameter_base@DV?$string_output_adapter@D@__crt_stdio_output@@@2@@__crt_stdio_output@@QAE@ABV?$string_output_adapter@D@1@_KQBDQAU__crt_locale_pointers@@QAD@Z 1004df5a f i libucrt:output.obj
 0001:0004cf81       ??0?$output_processor@DV?$string_output_adapter@D@__crt_stdio_output@@V?$standard_base@DV?$string_output_adapter@D@__crt_stdio_output@@@2@@__crt_stdio_output@@QAE@ABV?$string_output_adapter@D@1@_KQBDQAU__crt_locale_pointers@@QAD@Z 1004df81 f i libucrt:output.obj
 0001:0004cfae       ??0?$output_processor@_WV?$stream_output_adapter@_W@__crt_stdio_output@@V?$format_validation_base@_WV?$stream_output_adapter@_W@__crt_stdio_output@@@2@@__crt_stdio_output@@QAE@ABV?$stream_output_adapter@_W@1@_KQB_WQAU__crt_locale_pointers@@QAD@Z 1004dfae f i libucrt:output.obj
 0001:0004cfdb       ??0?$output_processor@_WV?$stream_output_adapter@_W@__crt_stdio_output@@V?$positional_parameter_base@_WV?$stream_output_adapter@_W@__crt_stdio_output@@@2@@__crt_stdio_output@@QAE@ABV?$stream_output_adapter@_W@1@_KQB_WQAU__crt_locale_pointers@@QAD@Z 1004dfdb f i libucrt:output.obj
 0001:0004d002       ??0?$output_processor@_WV?$stream_output_adapter@_W@__crt_stdio_output@@V?$standard_base@_WV?$stream_output_adapter@_W@__crt_stdio_output@@@2@@__crt_stdio_output@@QAE@ABV?$stream_output_adapter@_W@1@_KQB_WQAU__crt_locale_pointers@@QAD@Z 1004e002 f i libucrt:output.obj
 0001:0004d02f       ??0?$output_processor@_WV?$string_output_adapter@_W@__crt_stdio_output@@V?$format_validation_base@_WV?$string_output_adapter@_W@__crt_stdio_output@@@2@@__crt_stdio_output@@QAE@ABV?$string_output_adapter@_W@1@_KQB_WQAU__crt_locale_pointers@@QAD@Z 1004e02f f i libucrt:output.obj
 0001:0004d05c       ??0?$output_processor@_WV?$string_output_adapter@_W@__crt_stdio_output@@V?$positional_parameter_base@_WV?$string_output_adapter@_W@__crt_stdio_output@@@2@@__crt_stdio_output@@QAE@ABV?$string_output_adapter@_W@1@_KQB_WQAU__crt_locale_pointers@@QAD@Z 1004e05c f i libucrt:output.obj
 0001:0004d083       ??0?$output_processor@_WV?$string_output_adapter@_W@__crt_stdio_output@@V?$standard_base@_WV?$string_output_adapter@_W@__crt_stdio_output@@@2@@__crt_stdio_output@@QAE@ABV?$string_output_adapter@_W@1@_KQB_WQAU__crt_locale_pointers@@QAD@Z 1004e083 f i libucrt:output.obj
 0001:0004d0b0       ??0?$stream_output_adapter@D@__crt_stdio_output@@QAE@QAU_iobuf@@@Z 1004e0b0 f i libucrt:output.obj
 0001:0004d0c0       ??0?$stream_output_adapter@_W@__crt_stdio_output@@QAE@QAU_iobuf@@@Z 1004e0c0 f i libucrt:output.obj
 0001:0004d0d0       ??0?$string_output_adapter@D@__crt_stdio_output@@QAE@QAU?$string_output_adapter_context@D@1@@Z 1004e0d0 f i libucrt:output.obj
 0001:0004d0e0       ??0?$string_output_adapter@_W@__crt_stdio_output@@QAE@QAU?$string_output_adapter_context@_W@1@@Z 1004e0e0 f i libucrt:output.obj
 0001:0004d0f0       ??0_LocaleUpdate@@QAE@QAU__crt_locale_pointers@@@Z 1004e0f0 f i libucrt:output.obj
 0001:0004d173       ??0__acrt_stdio_temporary_buffering_guard@@QAE@QAU_iobuf@@@Z 1004e173 f i libucrt:output.obj
 0001:0004d191       ??0__crt_deferred_errno_cache@@QAE@XZ 1004e191 f i libucrt:output.obj
 0001:0004d197       ??0__crt_errno_guard@@QAE@QAH@Z 1004e197 f i libucrt:output.obj
 0001:0004d1af       ??0__crt_stdio_stream@@QAE@QAU_iobuf@@@Z 1004e1af f i libucrt:output.obj
 0001:0004d1c0       ??0formatting_buffer@__crt_stdio_output@@QAE@XZ 1004e1c0 f i libucrt:output.obj
 0001:0004d1d7       ??1?$common_data@D@__crt_stdio_output@@QAE@XZ 1004e1d7 f i libucrt:output.obj
 0001:0004d1df       ??1?$common_data@_W@__crt_stdio_output@@QAE@XZ 1004e1df f i libucrt:output.obj
 0001:0004d1e7       ??1?$format_validation_base@DV?$stream_output_adapter@D@__crt_stdio_output@@@__crt_stdio_output@@QAE@XZ 1004e1e7 f i libucrt:output.obj
 0001:0004d1ef       ??1?$format_validation_base@DV?$string_output_adapter@D@__crt_stdio_output@@@__crt_stdio_output@@QAE@XZ 1004e1ef f i libucrt:output.obj
 0001:0004d1f7       ??1?$format_validation_base@_WV?$stream_output_adapter@_W@__crt_stdio_output@@@__crt_stdio_output@@QAE@XZ 1004e1f7 f i libucrt:output.obj
 0001:0004d1ff       ??1?$format_validation_base@_WV?$string_output_adapter@_W@__crt_stdio_output@@@__crt_stdio_output@@QAE@XZ 1004e1ff f i libucrt:output.obj
 0001:0004d207       ??1?$output_adapter_data@DV?$stream_output_adapter@D@__crt_stdio_output@@@__crt_stdio_output@@QAE@XZ 1004e207 f i libucrt:output.obj
 0001:0004d20f       ??1?$output_adapter_data@DV?$string_output_adapter@D@__crt_stdio_output@@@__crt_stdio_output@@QAE@XZ 1004e20f f i libucrt:output.obj
 0001:0004d217       ??1?$output_adapter_data@_WV?$stream_output_adapter@_W@__crt_stdio_output@@@__crt_stdio_output@@QAE@XZ 1004e217 f i libucrt:output.obj
 0001:0004d21f       ??1?$output_adapter_data@_WV?$string_output_adapter@_W@__crt_stdio_output@@@__crt_stdio_output@@QAE@XZ 1004e21f f i libucrt:output.obj
 0001:0004d227       ??1?$output_processor@DV?$stream_output_adapter@D@__crt_stdio_output@@V?$format_validation_base@DV?$stream_output_adapter@D@__crt_stdio_output@@@2@@__crt_stdio_output@@QAE@XZ 1004e227 f i libucrt:output.obj
 0001:0004d22f       ??1?$output_processor@DV?$stream_output_adapter@D@__crt_stdio_output@@V?$positional_parameter_base@DV?$stream_output_adapter@D@__crt_stdio_output@@@2@@__crt_stdio_output@@QAE@XZ 1004e22f f i libucrt:output.obj
 0001:0004d237       ??1?$output_processor@DV?$stream_output_adapter@D@__crt_stdio_output@@V?$standard_base@DV?$stream_output_adapter@D@__crt_stdio_output@@@2@@__crt_stdio_output@@QAE@XZ 1004e237 f i libucrt:output.obj
 0001:0004d23f       ??1?$output_processor@DV?$string_output_adapter@D@__crt_stdio_output@@V?$format_validation_base@DV?$string_output_adapter@D@__crt_stdio_output@@@2@@__crt_stdio_output@@QAE@XZ 1004e23f f i libucrt:output.obj
 0001:0004d247       ??1?$output_processor@DV?$string_output_adapter@D@__crt_stdio_output@@V?$positional_parameter_base@DV?$string_output_adapter@D@__crt_stdio_output@@@2@@__crt_stdio_output@@QAE@XZ 1004e247 f i libucrt:output.obj
 0001:0004d24f       ??1?$output_processor@DV?$string_output_adapter@D@__crt_stdio_output@@V?$standard_base@DV?$string_output_adapter@D@__crt_stdio_output@@@2@@__crt_stdio_output@@QAE@XZ 1004e24f f i libucrt:output.obj
 0001:0004d257       ??1?$output_processor@_WV?$stream_output_adapter@_W@__crt_stdio_output@@V?$format_validation_base@_WV?$stream_output_adapter@_W@__crt_stdio_output@@@2@@__crt_stdio_output@@QAE@XZ 1004e257 f i libucrt:output.obj
 0001:0004d25f       ??1?$output_processor@_WV?$stream_output_adapter@_W@__crt_stdio_output@@V?$positional_parameter_base@_WV?$stream_output_adapter@_W@__crt_stdio_output@@@2@@__crt_stdio_output@@QAE@XZ 1004e25f f i libucrt:output.obj
 0001:0004d267       ??1?$output_processor@_WV?$stream_output_adapter@_W@__crt_stdio_output@@V?$standard_base@_WV?$stream_output_adapter@_W@__crt_stdio_output@@@2@@__crt_stdio_output@@QAE@XZ 1004e267 f i libucrt:output.obj
 0001:0004d26f       ??1?$output_processor@_WV?$string_output_adapter@_W@__crt_stdio_output@@V?$format_validation_base@_WV?$string_output_adapter@_W@__crt_stdio_output@@@2@@__crt_stdio_output@@QAE@XZ 1004e26f f i libucrt:output.obj
 0001:0004d277       ??1?$output_processor@_WV?$string_output_adapter@_W@__crt_stdio_output@@V?$positional_parameter_base@_WV?$string_output_adapter@_W@__crt_stdio_output@@@2@@__crt_stdio_output@@QAE@XZ 1004e277 f i libucrt:output.obj
 0001:0004d27f       ??1?$output_processor@_WV?$string_output_adapter@_W@__crt_stdio_output@@V?$standard_base@_WV?$string_output_adapter@_W@__crt_stdio_output@@@2@@__crt_stdio_output@@QAE@XZ 1004e27f f i libucrt:output.obj
 0001:0004d287       ??1?$positional_parameter_base@DV?$stream_output_adapter@D@__crt_stdio_output@@@__crt_stdio_output@@QAE@XZ 1004e287 f i libucrt:output.obj
 0001:0004d28f       ??1?$positional_parameter_base@DV?$string_output_adapter@D@__crt_stdio_output@@@__crt_stdio_output@@QAE@XZ 1004e28f f i libucrt:output.obj
 0001:0004d297       ??1?$positional_parameter_base@_WV?$stream_output_adapter@_W@__crt_stdio_output@@@__crt_stdio_output@@QAE@XZ 1004e297 f i libucrt:output.obj
 0001:0004d29f       ??1?$positional_parameter_base@_WV?$string_output_adapter@_W@__crt_stdio_output@@@__crt_stdio_output@@QAE@XZ 1004e29f f i libucrt:output.obj
 0001:0004d2a7       ??1?$standard_base@DV?$stream_output_adapter@D@__crt_stdio_output@@@__crt_stdio_output@@QAE@XZ 1004e2a7 f i libucrt:output.obj
 0001:0004d2af       ??1?$standard_base@DV?$string_output_adapter@D@__crt_stdio_output@@@__crt_stdio_output@@QAE@XZ 1004e2af f i libucrt:output.obj
 0001:0004d2b7       ??1?$standard_base@_WV?$stream_output_adapter@_W@__crt_stdio_output@@@__crt_stdio_output@@QAE@XZ 1004e2b7 f i libucrt:output.obj
 0001:0004d2bf       ??1?$standard_base@_WV?$string_output_adapter@_W@__crt_stdio_output@@@__crt_stdio_output@@QAE@XZ 1004e2bf f i libucrt:output.obj
 0001:0004d2c7       ??1_LocaleUpdate@@QAE@XZ   1004e2c7 f i libucrt:output.obj
 0001:0004d2d7       ??1__acrt_stdio_temporary_buffering_guard@@QAE@XZ 1004e2d7 f i libucrt:output.obj
 0001:0004d2e6       ??1__crt_errno_guard@@QAE@XZ 1004e2e6 f i libucrt:output.obj
 0001:0004d2f7       ??1formatting_buffer@__crt_stdio_output@@QAE@XZ 1004e2f7 f i libucrt:output.obj
 0001:0004d311       ??4?$__crt_unique_heap_ptr@DU__crt_internal_free_policy@@@@QAEAAV0@$$QAV0@@Z 1004e311 f i libucrt:output.obj
 0001:0004d335       ??A?$spectre_mitigated_lookup_table@Ustate_transition_pair@__crt_stdio_output@@$0IA@@__crt_stdio_output@@QBEABUstate_transition_pair@1@I@Z 1004e335 f i libucrt:output.obj
 0001:0004d347       ??C__crt_stdio_stream@@QBEPAU__crt_stdio_stream_data@@XZ 1004e347 f i libucrt:output.obj
 0001:0004d89a       ?GetLocaleT@_LocaleUpdate@@QAEPAU__crt_locale_pointers@@XZ 1004e89a f i libucrt:output.obj
 0001:0004d89e       ?adjust_hexit@?$output_processor@DV?$stream_output_adapter@D@__crt_stdio_output@@V?$format_validation_base@DV?$stream_output_adapter@D@__crt_stdio_output@@@2@@__crt_stdio_output@@CADH_N@Z 1004e89e f i libucrt:output.obj
 0001:0004d8b2       ?adjust_hexit@?$output_processor@DV?$stream_output_adapter@D@__crt_stdio_output@@V?$positional_parameter_base@DV?$stream_output_adapter@D@__crt_stdio_output@@@2@@__crt_stdio_output@@CADH_N@Z 1004e8b2 f i libucrt:output.obj
 0001:0004d8c6       ?adjust_hexit@?$output_processor@DV?$stream_output_adapter@D@__crt_stdio_output@@V?$standard_base@DV?$stream_output_adapter@D@__crt_stdio_output@@@2@@__crt_stdio_output@@CADH_N@Z 1004e8c6 f i libucrt:output.obj
 0001:0004d8da       ?adjust_hexit@?$output_processor@DV?$string_output_adapter@D@__crt_stdio_output@@V?$format_validation_base@DV?$string_output_adapter@D@__crt_stdio_output@@@2@@__crt_stdio_output@@CADH_N@Z 1004e8da f i libucrt:output.obj
 0001:0004d8ee       ?adjust_hexit@?$output_processor@DV?$string_output_adapter@D@__crt_stdio_output@@V?$positional_parameter_base@DV?$string_output_adapter@D@__crt_stdio_output@@@2@@__crt_stdio_output@@CADH_N@Z 1004e8ee f i libucrt:output.obj
 0001:0004d902       ?adjust_hexit@?$output_processor@DV?$string_output_adapter@D@__crt_stdio_output@@V?$standard_base@DV?$string_output_adapter@D@__crt_stdio_output@@@2@@__crt_stdio_output@@CADH_N@Z 1004e902 f i libucrt:output.obj
 0001:0004d916       ?adjust_hexit@?$output_processor@_WV?$stream_output_adapter@_W@__crt_stdio_output@@V?$format_validation_base@_WV?$stream_output_adapter@_W@__crt_stdio_output@@@2@@__crt_stdio_output@@CADH_N@Z 1004e916 f i libucrt:output.obj
 0001:0004d92a       ?adjust_hexit@?$output_processor@_WV?$stream_output_adapter@_W@__crt_stdio_output@@V?$positional_parameter_base@_WV?$stream_output_adapter@_W@__crt_stdio_output@@@2@@__crt_stdio_output@@CADH_N@Z 1004e92a f i libucrt:output.obj
 0001:0004d93e       ?adjust_hexit@?$output_processor@_WV?$stream_output_adapter@_W@__crt_stdio_output@@V?$standard_base@_WV?$stream_output_adapter@_W@__crt_stdio_output@@@2@@__crt_stdio_output@@CADH_N@Z 1004e93e f i libucrt:output.obj
 0001:0004d952       ?adjust_hexit@?$output_processor@_WV?$string_output_adapter@_W@__crt_stdio_output@@V?$format_validation_base@_WV?$string_output_adapter@_W@__crt_stdio_output@@@2@@__crt_stdio_output@@CADH_N@Z 1004e952 f i libucrt:output.obj
 0001:0004d966       ?adjust_hexit@?$output_processor@_WV?$string_output_adapter@_W@__crt_stdio_output@@V?$positional_parameter_base@_WV?$string_output_adapter@_W@__crt_stdio_output@@@2@@__crt_stdio_output@@CADH_N@Z 1004e966 f i libucrt:output.obj
 0001:0004d97a       ?adjust_hexit@?$output_processor@_WV?$string_output_adapter@_W@__crt_stdio_output@@V?$standard_base@_WV?$string_output_adapter@_W@__crt_stdio_output@@@2@@__crt_stdio_output@@CADH_N@Z 1004e97a f i libucrt:output.obj
 0001:0004d98e       ?advance_to_next_pass@?$positional_parameter_base@DV?$stream_output_adapter@D@__crt_stdio_output@@@__crt_stdio_output@@IAE_NXZ 1004e98e f i libucrt:output.obj
 0001:0004d9da       ?advance_to_next_pass@?$positional_parameter_base@DV?$string_output_adapter@D@__crt_stdio_output@@@__crt_stdio_output@@IAE_NXZ 1004e9da f i libucrt:output.obj
 0001:0004da26       ?advance_to_next_pass@?$positional_parameter_base@_WV?$stream_output_adapter@_W@__crt_stdio_output@@@__crt_stdio_output@@IAE_NXZ 1004ea26 f i libucrt:output.obj
 0001:0004da72       ?advance_to_next_pass@?$positional_parameter_base@_WV?$string_output_adapter@_W@__crt_stdio_output@@@__crt_stdio_output@@IAE_NXZ 1004ea72 f i libucrt:output.obj
 0001:0004dabe       ?advance_to_next_pass@?$standard_base@DV?$stream_output_adapter@D@__crt_stdio_output@@@__crt_stdio_output@@IAE_NXZ 1004eabe f i libucrt:output.obj
 0001:0004dacf       ?advance_to_next_pass@?$standard_base@DV?$string_output_adapter@D@__crt_stdio_output@@@__crt_stdio_output@@IAE_NXZ 1004eacf f i libucrt:output.obj
 0001:0004dae0       ?advance_to_next_pass@?$standard_base@_WV?$stream_output_adapter@_W@__crt_stdio_output@@@__crt_stdio_output@@IAE_NXZ 1004eae0 f i libucrt:output.obj
 0001:0004daf1       ?advance_to_next_pass@?$standard_base@_WV?$string_output_adapter@_W@__crt_stdio_output@@@__crt_stdio_output@@IAE_NXZ 1004eaf1 f i libucrt:output.obj
 0001:0004db10       ?crop_zeroes@__crt_stdio_output@@YAXPADQAU__crt_locale_pointers@@@Z 1004eb10 f i libucrt:output.obj
 0001:0004db91       ?find_next_state@?$output_processor@DV?$stream_output_adapter@D@__crt_stdio_output@@V?$format_validation_base@DV?$stream_output_adapter@D@__crt_stdio_output@@@2@@__crt_stdio_output@@ABE?AW4state@2@DW432@@Z 1004eb91 f i libucrt:output.obj
 0001:0004dbc8       ?find_next_state@?$output_processor@DV?$stream_output_adapter@D@__crt_stdio_output@@V?$positional_parameter_base@DV?$stream_output_adapter@D@__crt_stdio_output@@@2@@__crt_stdio_output@@ABE?AW4state@2@DW432@@Z 1004ebc8 f i libucrt:output.obj
 0001:0004dbff       ?find_next_state@?$output_processor@DV?$stream_output_adapter@D@__crt_stdio_output@@V?$standard_base@DV?$stream_output_adapter@D@__crt_stdio_output@@@2@@__crt_stdio_output@@ABE?AW4state@2@DW432@@Z 1004ebff f i libucrt:output.obj
 0001:0004dc36       ?find_next_state@?$output_processor@DV?$string_output_adapter@D@__crt_stdio_output@@V?$format_validation_base@DV?$string_output_adapter@D@__crt_stdio_output@@@2@@__crt_stdio_output@@ABE?AW4state@2@DW432@@Z 1004ec36 f i libucrt:output.obj
 0001:0004dc6d       ?find_next_state@?$output_processor@DV?$string_output_adapter@D@__crt_stdio_output@@V?$positional_parameter_base@DV?$string_output_adapter@D@__crt_stdio_output@@@2@@__crt_stdio_output@@ABE?AW4state@2@DW432@@Z 1004ec6d f i libucrt:output.obj
 0001:0004dca4       ?find_next_state@?$output_processor@DV?$string_output_adapter@D@__crt_stdio_output@@V?$standard_base@DV?$string_output_adapter@D@__crt_stdio_output@@@2@@__crt_stdio_output@@ABE?AW4state@2@DW432@@Z 1004eca4 f i libucrt:output.obj
 0001:0004dcdb       ?find_next_state@?$output_processor@_WV?$stream_output_adapter@_W@__crt_stdio_output@@V?$format_validation_base@_WV?$stream_output_adapter@_W@__crt_stdio_output@@@2@@__crt_stdio_output@@ABE?AW4state@2@_WW432@@Z 1004ecdb f i libucrt:output.obj
 0001:0004dd11       ?find_next_state@?$output_processor@_WV?$stream_output_adapter@_W@__crt_stdio_output@@V?$positional_parameter_base@_WV?$stream_output_adapter@_W@__crt_stdio_output@@@2@@__crt_stdio_output@@ABE?AW4state@2@_WW432@@Z 1004ed11 f i libucrt:output.obj
 0001:0004dd47       ?find_next_state@?$output_processor@_WV?$stream_output_adapter@_W@__crt_stdio_output@@V?$standard_base@_WV?$stream_output_adapter@_W@__crt_stdio_output@@@2@@__crt_stdio_output@@ABE?AW4state@2@_WW432@@Z 1004ed47 f i libucrt:output.obj
 0001:0004dd7d       ?find_next_state@?$output_processor@_WV?$string_output_adapter@_W@__crt_stdio_output@@V?$format_validation_base@_WV?$string_output_adapter@_W@__crt_stdio_output@@@2@@__crt_stdio_output@@ABE?AW4state@2@_WW432@@Z 1004ed7d f i libucrt:output.obj
 0001:0004ddb3       ?find_next_state@?$output_processor@_WV?$string_output_adapter@_W@__crt_stdio_output@@V?$positional_parameter_base@_WV?$string_output_adapter@_W@__crt_stdio_output@@@2@@__crt_stdio_output@@ABE?AW4state@2@_WW432@@Z 1004edb3 f i libucrt:output.obj
 0001:0004dde9       ?find_next_state@?$output_processor@_WV?$string_output_adapter@_W@__crt_stdio_output@@V?$standard_base@_WV?$string_output_adapter@_W@__crt_stdio_output@@@2@@__crt_stdio_output@@ABE?AW4state@2@_WW432@@Z 1004ede9 f i libucrt:output.obj
 0001:0004de20       ?force_decimal_point@__crt_stdio_output@@YAXPADQAU__crt_locale_pointers@@@Z 1004ee20 f i libucrt:output.obj
 0001:0004de85       ?get@__crt_deferred_errno_cache@@QAEAAHXZ 1004ee85 f i libucrt:output.obj
 0001:0004de99       ?get_flags@__crt_stdio_stream@@QBEJXZ 1004ee99 f i libucrt:output.obj
 0001:0004dea0       ?get_parameter_type@?$positional_parameter_base@DV?$stream_output_adapter@D@__crt_stdio_output@@@__crt_stdio_output@@CA?AW4parameter_type@12@F@Z 1004eea0 f i libucrt:output.obj
 0001:0004dea4       ?get_parameter_type@?$positional_parameter_base@DV?$stream_output_adapter@D@__crt_stdio_output@@@__crt_stdio_output@@CA?AW4parameter_type@12@G@Z 1004eea4 f i libucrt:output.obj
 0001:0004dea8       ?get_parameter_type@?$positional_parameter_base@DV?$stream_output_adapter@D@__crt_stdio_output@@@__crt_stdio_output@@CA?AW4parameter_type@12@H@Z 1004eea8 f i libucrt:output.obj
 0001:0004deac       ?get_parameter_type@?$positional_parameter_base@DV?$stream_output_adapter@D@__crt_stdio_output@@@__crt_stdio_output@@CA?AW4parameter_type@12@I@Z 1004eeac f i libucrt:output.obj
 0001:0004deb0       ?get_parameter_type@?$positional_parameter_base@DV?$stream_output_adapter@D@__crt_stdio_output@@@__crt_stdio_output@@CA?AW4parameter_type@12@U_CRT_DOUBLE@@@Z 1004eeb0 f i libucrt:output.obj
 0001:0004deb4       ?get_parameter_type@?$positional_parameter_base@DV?$stream_output_adapter@D@__crt_stdio_output@@@__crt_stdio_output@@CA?AW4parameter_type@12@_J@Z 1004eeb4 f i libucrt:output.obj
 0001:0004deb8       ?get_parameter_type@?$positional_parameter_base@DV?$stream_output_adapter@D@__crt_stdio_output@@@__crt_stdio_output@@CA?AW4parameter_type@12@_K@Z 1004eeb8 f i libucrt:output.obj
 0001:0004debc       ?get_parameter_type@?$positional_parameter_base@DV?$stream_output_adapter@D@__crt_stdio_output@@@__crt_stdio_output@@CA?AW4parameter_type@12@_W@Z 1004eebc f i libucrt:output.obj
 0001:0004dec0       ?get_parameter_type@?$positional_parameter_base@DV?$string_output_adapter@D@__crt_stdio_output@@@__crt_stdio_output@@CA?AW4parameter_type@12@F@Z 1004eec0 f i libucrt:output.obj
 0001:0004dec4       ?get_parameter_type@?$positional_parameter_base@DV?$string_output_adapter@D@__crt_stdio_output@@@__crt_stdio_output@@CA?AW4parameter_type@12@G@Z 1004eec4 f i libucrt:output.obj
 0001:0004dec8       ?get_parameter_type@?$positional_parameter_base@DV?$string_output_adapter@D@__crt_stdio_output@@@__crt_stdio_output@@CA?AW4parameter_type@12@H@Z 1004eec8 f i libucrt:output.obj
 0001:0004decc       ?get_parameter_type@?$positional_parameter_base@DV?$string_output_adapter@D@__crt_stdio_output@@@__crt_stdio_output@@CA?AW4parameter_type@12@I@Z 1004eecc f i libucrt:output.obj
 0001:0004ded0       ?get_parameter_type@?$positional_parameter_base@DV?$string_output_adapter@D@__crt_stdio_output@@@__crt_stdio_output@@CA?AW4parameter_type@12@U_CRT_DOUBLE@@@Z 1004eed0 f i libucrt:output.obj
 0001:0004ded4       ?get_parameter_type@?$positional_parameter_base@DV?$string_output_adapter@D@__crt_stdio_output@@@__crt_stdio_output@@CA?AW4parameter_type@12@_J@Z 1004eed4 f i libucrt:output.obj
 0001:0004ded8       ?get_parameter_type@?$positional_parameter_base@DV?$string_output_adapter@D@__crt_stdio_output@@@__crt_stdio_output@@CA?AW4parameter_type@12@_K@Z 1004eed8 f i libucrt:output.obj
 0001:0004dedc       ?get_parameter_type@?$positional_parameter_base@DV?$string_output_adapter@D@__crt_stdio_output@@@__crt_stdio_output@@CA?AW4parameter_type@12@_W@Z 1004eedc f i libucrt:output.obj
 0001:0004dee0       ?get_parameter_type@?$positional_parameter_base@_WV?$stream_output_adapter@_W@__crt_stdio_output@@@__crt_stdio_output@@CA?AW4parameter_type@12@F@Z 1004eee0 f i libucrt:output.obj
 0001:0004dee4       ?get_parameter_type@?$positional_parameter_base@_WV?$stream_output_adapter@_W@__crt_stdio_output@@@__crt_stdio_output@@CA?AW4parameter_type@12@G@Z 1004eee4 f i libucrt:output.obj
 0001:0004dee8       ?get_parameter_type@?$positional_parameter_base@_WV?$stream_output_adapter@_W@__crt_stdio_output@@@__crt_stdio_output@@CA?AW4parameter_type@12@H@Z 1004eee8 f i libucrt:output.obj
 0001:0004deec       ?get_parameter_type@?$positional_parameter_base@_WV?$stream_output_adapter@_W@__crt_stdio_output@@@__crt_stdio_output@@CA?AW4parameter_type@12@I@Z 1004eeec f i libucrt:output.obj
 0001:0004def0       ?get_parameter_type@?$positional_parameter_base@_WV?$stream_output_adapter@_W@__crt_stdio_output@@@__crt_stdio_output@@CA?AW4parameter_type@12@U_CRT_DOUBLE@@@Z 1004eef0 f i libucrt:output.obj
 0001:0004def4       ?get_parameter_type@?$positional_parameter_base@_WV?$stream_output_adapter@_W@__crt_stdio_output@@@__crt_stdio_output@@CA?AW4parameter_type@12@_J@Z 1004eef4 f i libucrt:output.obj
 0001:0004def8       ?get_parameter_type@?$positional_parameter_base@_WV?$stream_output_adapter@_W@__crt_stdio_output@@@__crt_stdio_output@@CA?AW4parameter_type@12@_K@Z 1004eef8 f i libucrt:output.obj
 0001:0004defc       ?get_parameter_type@?$positional_parameter_base@_WV?$stream_output_adapter@_W@__crt_stdio_output@@@__crt_stdio_output@@CA?AW4parameter_type@12@_W@Z 1004eefc f i libucrt:output.obj
 0001:0004df00       ?get_parameter_type@?$positional_parameter_base@_WV?$string_output_adapter@_W@__crt_stdio_output@@@__crt_stdio_output@@CA?AW4parameter_type@12@F@Z 1004ef00 f i libucrt:output.obj
 0001:0004df04       ?get_parameter_type@?$positional_parameter_base@_WV?$string_output_adapter@_W@__crt_stdio_output@@@__crt_stdio_output@@CA?AW4parameter_type@12@G@Z 1004ef04 f i libucrt:output.obj
 0001:0004df08       ?get_parameter_type@?$positional_parameter_base@_WV?$string_output_adapter@_W@__crt_stdio_output@@@__crt_stdio_output@@CA?AW4parameter_type@12@H@Z 1004ef08 f i libucrt:output.obj
 0001:0004df0c       ?get_parameter_type@?$positional_parameter_base@_WV?$string_output_adapter@_W@__crt_stdio_output@@@__crt_stdio_output@@CA?AW4parameter_type@12@I@Z 1004ef0c f i libucrt:output.obj
 0001:0004df10       ?get_parameter_type@?$positional_parameter_base@_WV?$string_output_adapter@_W@__crt_stdio_output@@@__crt_stdio_output@@CA?AW4parameter_type@12@U_CRT_DOUBLE@@@Z 1004ef10 f i libucrt:output.obj
 0001:0004df14       ?get_parameter_type@?$positional_parameter_base@_WV?$string_output_adapter@_W@__crt_stdio_output@@@__crt_stdio_output@@CA?AW4parameter_type@12@_J@Z 1004ef14 f i libucrt:output.obj
 0001:0004df18       ?get_parameter_type@?$positional_parameter_base@_WV?$string_output_adapter@_W@__crt_stdio_output@@@__crt_stdio_output@@CA?AW4parameter_type@12@_K@Z 1004ef18 f i libucrt:output.obj
 0001:0004df1c       ?get_parameter_type@?$positional_parameter_base@_WV?$string_output_adapter@_W@__crt_stdio_output@@@__crt_stdio_output@@CA?AW4parameter_type@12@_W@Z 1004ef1c f i libucrt:output.obj
 0001:0004df20       ?has_flag@?$output_processor@DV?$stream_output_adapter@D@__crt_stdio_output@@V?$format_validation_base@DV?$stream_output_adapter@D@__crt_stdio_output@@@2@@__crt_stdio_output@@ABE_NI@Z 1004ef20 f i libucrt:output.obj
 0001:0004df32       ?has_flag@?$output_processor@DV?$stream_output_adapter@D@__crt_stdio_output@@V?$positional_parameter_base@DV?$stream_output_adapter@D@__crt_stdio_output@@@2@@__crt_stdio_output@@ABE_NI@Z 1004ef32 f i libucrt:output.obj
 0001:0004df44       ?has_flag@?$output_processor@DV?$stream_output_adapter@D@__crt_stdio_output@@V?$standard_base@DV?$stream_output_adapter@D@__crt_stdio_output@@@2@@__crt_stdio_output@@ABE_NI@Z 1004ef44 f i libucrt:output.obj
 0001:0004df56       ?has_flag@?$output_processor@DV?$string_output_adapter@D@__crt_stdio_output@@V?$format_validation_base@DV?$string_output_adapter@D@__crt_stdio_output@@@2@@__crt_stdio_output@@ABE_NI@Z 1004ef56 f i libucrt:output.obj
 0001:0004df68       ?has_flag@?$output_processor@DV?$string_output_adapter@D@__crt_stdio_output@@V?$positional_parameter_base@DV?$string_output_adapter@D@__crt_stdio_output@@@2@@__crt_stdio_output@@ABE_NI@Z 1004ef68 f i libucrt:output.obj
 0001:0004df7a       ?has_flag@?$output_processor@DV?$string_output_adapter@D@__crt_stdio_output@@V?$standard_base@DV?$string_output_adapter@D@__crt_stdio_output@@@2@@__crt_stdio_output@@ABE_NI@Z 1004ef7a f i libucrt:output.obj
 0001:0004df8c       ?has_flag@?$output_processor@_WV?$stream_output_adapter@_W@__crt_stdio_output@@V?$format_validation_base@_WV?$stream_output_adapter@_W@__crt_stdio_output@@@2@@__crt_stdio_output@@ABE_NI@Z 1004ef8c f i libucrt:output.obj
 0001:0004df9e       ?has_flag@?$output_processor@_WV?$stream_output_adapter@_W@__crt_stdio_output@@V?$positional_parameter_base@_WV?$stream_output_adapter@_W@__crt_stdio_output@@@2@@__crt_stdio_output@@ABE_NI@Z 1004ef9e f i libucrt:output.obj
 0001:0004dfb0       ?has_flag@?$output_processor@_WV?$stream_output_adapter@_W@__crt_stdio_output@@V?$standard_base@_WV?$stream_output_adapter@_W@__crt_stdio_output@@@2@@__crt_stdio_output@@ABE_NI@Z 1004efb0 f i libucrt:output.obj
 0001:0004dfc2       ?has_flag@?$output_processor@_WV?$string_output_adapter@_W@__crt_stdio_output@@V?$format_validation_base@_WV?$string_output_adapter@_W@__crt_stdio_output@@@2@@__crt_stdio_output@@ABE_NI@Z 1004efc2 f i libucrt:output.obj
 0001:0004dfd4       ?has_flag@?$output_processor@_WV?$string_output_adapter@_W@__crt_stdio_output@@V?$positional_parameter_base@_WV?$string_output_adapter@_W@__crt_stdio_output@@@2@@__crt_stdio_output@@ABE_NI@Z 1004efd4 f i libucrt:output.obj
 0001:0004dfe6       ?has_flag@?$output_processor@_WV?$string_output_adapter@_W@__crt_stdio_output@@V?$standard_base@_WV?$string_output_adapter@_W@__crt_stdio_output@@@2@@__crt_stdio_output@@ABE_NI@Z 1004efe6 f i libucrt:output.obj
 0001:0004dff8       ?is_positional_parameter_reappearance_consistent@?$positional_parameter_base@DV?$stream_output_adapter@D@__crt_stdio_output@@@__crt_stdio_output@@AAE_NABUparameter_data@12@W4parameter_type@12@DW4length_modifier@2@@Z 1004eff8 f i libucrt:output.obj
 0001:0004e112       ?is_positional_parameter_reappearance_consistent@?$positional_parameter_base@DV?$string_output_adapter@D@__crt_stdio_output@@@__crt_stdio_output@@AAE_NABUparameter_data@12@W4parameter_type@12@DW4length_modifier@2@@Z 1004f112 f i libucrt:output.obj
 0001:0004e22c       ?is_positional_parameter_reappearance_consistent@?$positional_parameter_base@_WV?$stream_output_adapter@_W@__crt_stdio_output@@@__crt_stdio_output@@AAE_NABUparameter_data@12@W4parameter_type@12@_WW4length_modifier@2@@Z 1004f22c f i libucrt:output.obj
 0001:0004e347       ?is_positional_parameter_reappearance_consistent@?$positional_parameter_base@_WV?$string_output_adapter@_W@__crt_stdio_output@@@__crt_stdio_output@@AAE_NABUparameter_data@12@W4parameter_type@12@_WW4length_modifier@2@@Z 1004f347 f i libucrt:output.obj
 0001:0004e462       ?is_string_backed@__crt_stdio_stream@@QBE_NXZ 1004f462 f i libucrt:output.obj
 0001:0004e46e       ?narrow_null_string@?$output_processor@DV?$stream_output_adapter@D@__crt_stdio_output@@V?$format_validation_base@DV?$stream_output_adapter@D@__crt_stdio_output@@@2@@__crt_stdio_output@@CAPADXZ 1004f46e f i libucrt:output.obj
 0001:0004e474       ?narrow_null_string@?$output_processor@DV?$stream_output_adapter@D@__crt_stdio_output@@V?$positional_parameter_base@DV?$stream_output_adapter@D@__crt_stdio_output@@@2@@__crt_stdio_output@@CAPADXZ 1004f474 f i libucrt:output.obj
 0001:0004e47a       ?narrow_null_string@?$output_processor@DV?$stream_output_adapter@D@__crt_stdio_output@@V?$standard_base@DV?$stream_output_adapter@D@__crt_stdio_output@@@2@@__crt_stdio_output@@CAPADXZ 1004f47a f i libucrt:output.obj
 0001:0004e480       ?narrow_null_string@?$output_processor@DV?$string_output_adapter@D@__crt_stdio_output@@V?$format_validation_base@DV?$string_output_adapter@D@__crt_stdio_output@@@2@@__crt_stdio_output@@CAPADXZ 1004f480 f i libucrt:output.obj
 0001:0004e486       ?narrow_null_string@?$output_processor@DV?$string_output_adapter@D@__crt_stdio_output@@V?$positional_parameter_base@DV?$string_output_adapter@D@__crt_stdio_output@@@2@@__crt_stdio_output@@CAPADXZ 1004f486 f i libucrt:output.obj
 0001:0004e48c       ?narrow_null_string@?$output_processor@DV?$string_output_adapter@D@__crt_stdio_output@@V?$standard_base@DV?$string_output_adapter@D@__crt_stdio_output@@@2@@__crt_stdio_output@@CAPADXZ 1004f48c f i libucrt:output.obj
 0001:0004e492       ?narrow_null_string@?$output_processor@_WV?$stream_output_adapter@_W@__crt_stdio_output@@V?$format_validation_base@_WV?$stream_output_adapter@_W@__crt_stdio_output@@@2@@__crt_stdio_output@@CAPADXZ 1004f492 f i libucrt:output.obj
 0001:0004e498       ?narrow_null_string@?$output_processor@_WV?$stream_output_adapter@_W@__crt_stdio_output@@V?$positional_parameter_base@_WV?$stream_output_adapter@_W@__crt_stdio_output@@@2@@__crt_stdio_output@@CAPADXZ 1004f498 f i libucrt:output.obj
 0001:0004e49e       ?narrow_null_string@?$output_processor@_WV?$stream_output_adapter@_W@__crt_stdio_output@@V?$standard_base@_WV?$stream_output_adapter@_W@__crt_stdio_output@@@2@@__crt_stdio_output@@CAPADXZ 1004f49e f i libucrt:output.obj
 0001:0004e4a4       ?narrow_null_string@?$output_processor@_WV?$string_output_adapter@_W@__crt_stdio_output@@V?$format_validation_base@_WV?$string_output_adapter@_W@__crt_stdio_output@@@2@@__crt_stdio_output@@CAPADXZ 1004f4a4 f i libucrt:output.obj
 0001:0004e4aa       ?narrow_null_string@?$output_processor@_WV?$string_output_adapter@_W@__crt_stdio_output@@V?$positional_parameter_base@_WV?$string_output_adapter@_W@__crt_stdio_output@@@2@@__crt_stdio_output@@CAPADXZ 1004f4aa f i libucrt:output.obj
 0001:0004e4b0       ?narrow_null_string@?$output_processor@_WV?$string_output_adapter@_W@__crt_stdio_output@@V?$standard_base@_WV?$string_output_adapter@_W@__crt_stdio_output@@@2@@__crt_stdio_output@@CAPADXZ 1004f4b0 f i libucrt:output.obj
 0001:0004e4b6       ?parse_int_from_format_string@?$output_processor@DV?$stream_output_adapter@D@__crt_stdio_output@@V?$format_validation_base@DV?$stream_output_adapter@D@__crt_stdio_output@@@2@@__crt_stdio_output@@AAE_NQAH@Z 1004f4b6 f i libucrt:output.obj
 0001:0004e52a       ?parse_int_from_format_string@?$output_processor@DV?$stream_output_adapter@D@__crt_stdio_output@@V?$positional_parameter_base@DV?$stream_output_adapter@D@__crt_stdio_output@@@2@@__crt_stdio_output@@AAE_NQAH@Z 1004f52a f i libucrt:output.obj
 0001:0004e59e       ?parse_int_from_format_string@?$output_processor@DV?$stream_output_adapter@D@__crt_stdio_output@@V?$standard_base@DV?$stream_output_adapter@D@__crt_stdio_output@@@2@@__crt_stdio_output@@AAE_NQAH@Z 1004f59e f i libucrt:output.obj
 0001:0004e612       ?parse_int_from_format_string@?$output_processor@DV?$string_output_adapter@D@__crt_stdio_output@@V?$format_validation_base@DV?$string_output_adapter@D@__crt_stdio_output@@@2@@__crt_stdio_output@@AAE_NQAH@Z 1004f612 f i libucrt:output.obj
 0001:0004e686       ?parse_int_from_format_string@?$output_processor@DV?$string_output_adapter@D@__crt_stdio_output@@V?$positional_parameter_base@DV?$string_output_adapter@D@__crt_stdio_output@@@2@@__crt_stdio_output@@AAE_NQAH@Z 1004f686 f i libucrt:output.obj
 0001:0004e6fa       ?parse_int_from_format_string@?$output_processor@DV?$string_output_adapter@D@__crt_stdio_output@@V?$standard_base@DV?$string_output_adapter@D@__crt_stdio_output@@@2@@__crt_stdio_output@@AAE_NQAH@Z 1004f6fa f i libucrt:output.obj
 0001:0004e76e       ?parse_int_from_format_string@?$output_processor@_WV?$stream_output_adapter@_W@__crt_stdio_output@@V?$format_validation_base@_WV?$stream_output_adapter@_W@__crt_stdio_output@@@2@@__crt_stdio_output@@AAE_NQAH@Z 1004f76e f i libucrt:output.obj
 0001:0004e7e4       ?parse_int_from_format_string@?$output_processor@_WV?$stream_output_adapter@_W@__crt_stdio_output@@V?$positional_parameter_base@_WV?$stream_output_adapter@_W@__crt_stdio_output@@@2@@__crt_stdio_output@@AAE_NQAH@Z 1004f7e4 f i libucrt:output.obj
 0001:0004e85a       ?parse_int_from_format_string@?$output_processor@_WV?$stream_output_adapter@_W@__crt_stdio_output@@V?$standard_base@_WV?$stream_output_adapter@_W@__crt_stdio_output@@@2@@__crt_stdio_output@@AAE_NQAH@Z 1004f85a f i libucrt:output.obj
 0001:0004e8d0       ?parse_int_from_format_string@?$output_processor@_WV?$string_output_adapter@_W@__crt_stdio_output@@V?$format_validation_base@_WV?$string_output_adapter@_W@__crt_stdio_output@@@2@@__crt_stdio_output@@AAE_NQAH@Z 1004f8d0 f i libucrt:output.obj
 0001:0004e946       ?parse_int_from_format_string@?$output_processor@_WV?$string_output_adapter@_W@__crt_stdio_output@@V?$positional_parameter_base@_WV?$string_output_adapter@_W@__crt_stdio_output@@@2@@__crt_stdio_output@@AAE_NQAH@Z 1004f946 f i libucrt:output.obj
 0001:0004e9bc       ?parse_int_from_format_string@?$output_processor@_WV?$string_output_adapter@_W@__crt_stdio_output@@V?$standard_base@_WV?$string_output_adapter@_W@__crt_stdio_output@@@2@@__crt_stdio_output@@AAE_NQAH@Z 1004f9bc f i libucrt:output.obj
 0001:0004ea32       ?process@?$output_processor@DV?$stream_output_adapter@D@__crt_stdio_output@@V?$format_validation_base@DV?$stream_output_adapter@D@__crt_stdio_output@@@2@@__crt_stdio_output@@QAEHXZ 1004fa32 f i libucrt:output.obj
 0001:0004eb56       ?process@?$output_processor@DV?$stream_output_adapter@D@__crt_stdio_output@@V?$positional_parameter_base@DV?$stream_output_adapter@D@__crt_stdio_output@@@2@@__crt_stdio_output@@QAEHXZ 1004fb56 f i libucrt:output.obj
 0001:0004ec86       ?process@?$output_processor@DV?$stream_output_adapter@D@__crt_stdio_output@@V?$standard_base@DV?$stream_output_adapter@D@__crt_stdio_output@@@2@@__crt_stdio_output@@QAEHXZ 1004fc86 f i libucrt:output.obj
 0001:0004ed9a       ?process@?$output_processor@DV?$string_output_adapter@D@__crt_stdio_output@@V?$format_validation_base@DV?$string_output_adapter@D@__crt_stdio_output@@@2@@__crt_stdio_output@@QAEHXZ 1004fd9a f i libucrt:output.obj
 0001:0004eebe       ?process@?$output_processor@DV?$string_output_adapter@D@__crt_stdio_output@@V?$positional_parameter_base@DV?$string_output_adapter@D@__crt_stdio_output@@@2@@__crt_stdio_output@@QAEHXZ 1004febe f i libucrt:output.obj
 0001:0004efee       ?process@?$output_processor@DV?$string_output_adapter@D@__crt_stdio_output@@V?$standard_base@DV?$string_output_adapter@D@__crt_stdio_output@@@2@@__crt_stdio_output@@QAEHXZ 1004ffee f i libucrt:output.obj
 0001:0004f102       ?process@?$output_processor@_WV?$stream_output_adapter@_W@__crt_stdio_output@@V?$format_validation_base@_WV?$stream_output_adapter@_W@__crt_stdio_output@@@2@@__crt_stdio_output@@QAEHXZ 10050102 f i libucrt:output.obj
 0001:0004f22a       ?process@?$output_processor@_WV?$stream_output_adapter@_W@__crt_stdio_output@@V?$positional_parameter_base@_WV?$stream_output_adapter@_W@__crt_stdio_output@@@2@@__crt_stdio_output@@QAEHXZ 1005022a f i libucrt:output.obj
 0001:0004f35e       ?process@?$output_processor@_WV?$stream_output_adapter@_W@__crt_stdio_output@@V?$standard_base@_WV?$stream_output_adapter@_W@__crt_stdio_output@@@2@@__crt_stdio_output@@QAEHXZ 1005035e f i libucrt:output.obj
 0001:0004f47a       ?process@?$output_processor@_WV?$string_output_adapter@_W@__crt_stdio_output@@V?$format_validation_base@_WV?$string_output_adapter@_W@__crt_stdio_output@@@2@@__crt_stdio_output@@QAEHXZ 1005047a f i libucrt:output.obj
 0001:0004f5a2       ?process@?$output_processor@_WV?$string_output_adapter@_W@__crt_stdio_output@@V?$positional_parameter_base@_WV?$string_output_adapter@_W@__crt_stdio_output@@@2@@__crt_stdio_output@@QAEHXZ 100505a2 f i libucrt:output.obj
 0001:0004f6d6       ?process@?$output_processor@_WV?$string_output_adapter@_W@__crt_stdio_output@@V?$standard_base@_WV?$string_output_adapter@_W@__crt_stdio_output@@@2@@__crt_stdio_output@@QAEHXZ 100506d6 f i libucrt:output.obj
 0001:0004f7f2       ?public_stream@__crt_stdio_stream@@QBEPAU_iobuf@@XZ 100507f2 f i libucrt:output.obj
 0001:0004f7f5       ?set_flag@?$output_processor@DV?$stream_output_adapter@D@__crt_stdio_output@@V?$format_validation_base@DV?$stream_output_adapter@D@__crt_stdio_output@@@2@@__crt_stdio_output@@AAEXI@Z 100507f5 f i libucrt:output.obj
 0001:0004f804       ?set_flag@?$output_processor@DV?$stream_output_adapter@D@__crt_stdio_output@@V?$positional_parameter_base@DV?$stream_output_adapter@D@__crt_stdio_output@@@2@@__crt_stdio_output@@AAEXI@Z 10050804 f i libucrt:output.obj
 0001:0004f813       ?set_flag@?$output_processor@DV?$stream_output_adapter@D@__crt_stdio_output@@V?$standard_base@DV?$stream_output_adapter@D@__crt_stdio_output@@@2@@__crt_stdio_output@@AAEXI@Z 10050813 f i libucrt:output.obj
 0001:0004f822       ?set_flag@?$output_processor@DV?$string_output_adapter@D@__crt_stdio_output@@V?$format_validation_base@DV?$string_output_adapter@D@__crt_stdio_output@@@2@@__crt_stdio_output@@AAEXI@Z 10050822 f i libucrt:output.obj
 0001:0004f831       ?set_flag@?$output_processor@DV?$string_output_adapter@D@__crt_stdio_output@@V?$positional_parameter_base@DV?$string_output_adapter@D@__crt_stdio_output@@@2@@__crt_stdio_output@@AAEXI@Z 10050831 f i libucrt:output.obj
 0001:0004f840       ?set_flag@?$output_processor@DV?$string_output_adapter@D@__crt_stdio_output@@V?$standard_base@DV?$string_output_adapter@D@__crt_stdio_output@@@2@@__crt_stdio_output@@AAEXI@Z 10050840 f i libucrt:output.obj
 0001:0004f84f       ?set_flag@?$output_processor@_WV?$stream_output_adapter@_W@__crt_stdio_output@@V?$format_validation_base@_WV?$stream_output_adapter@_W@__crt_stdio_output@@@2@@__crt_stdio_output@@AAEXI@Z 1005084f f i libucrt:output.obj
 0001:0004f85e       ?set_flag@?$output_processor@_WV?$stream_output_adapter@_W@__crt_stdio_output@@V?$positional_parameter_base@_WV?$stream_output_adapter@_W@__crt_stdio_output@@@2@@__crt_stdio_output@@AAEXI@Z 1005085e f i libucrt:output.obj
 0001:0004f86d       ?set_flag@?$output_processor@_WV?$stream_output_adapter@_W@__crt_stdio_output@@V?$standard_base@_WV?$stream_output_adapter@_W@__crt_stdio_output@@@2@@__crt_stdio_output@@AAEXI@Z 1005086d f i libucrt:output.obj
 0001:0004f87c       ?set_flag@?$output_processor@_WV?$string_output_adapter@_W@__crt_stdio_output@@V?$format_validation_base@_WV?$string_output_adapter@_W@__crt_stdio_output@@@2@@__crt_stdio_output@@AAEXI@Z 1005087c f i libucrt:output.obj
 0001:0004f88b       ?set_flag@?$output_processor@_WV?$string_output_adapter@_W@__crt_stdio_output@@V?$positional_parameter_base@_WV?$string_output_adapter@_W@__crt_stdio_output@@@2@@__crt_stdio_output@@AAEXI@Z 1005088b f i libucrt:output.obj
 0001:0004f89a       ?set_flag@?$output_processor@_WV?$string_output_adapter@_W@__crt_stdio_output@@V?$standard_base@_WV?$string_output_adapter@_W@__crt_stdio_output@@@2@@__crt_stdio_output@@AAEXI@Z 1005089a f i libucrt:output.obj
 0001:0004f8a9       ?should_format@?$positional_parameter_base@DV?$stream_output_adapter@D@__crt_stdio_output@@@__crt_stdio_output@@IAE_NXZ 100508a9 f i libucrt:output.obj
 0001:0004f8bf       ?should_format@?$positional_parameter_base@DV?$string_output_adapter@D@__crt_stdio_output@@@__crt_stdio_output@@IAE_NXZ 100508bf f i libucrt:output.obj
 0001:0004f8d5       ?should_format@?$positional_parameter_base@_WV?$stream_output_adapter@_W@__crt_stdio_output@@@__crt_stdio_output@@IAE_NXZ 100508d5 f i libucrt:output.obj
 0001:0004f8eb       ?should_format@?$positional_parameter_base@_WV?$string_output_adapter@_W@__crt_stdio_output@@@__crt_stdio_output@@IAE_NXZ 100508eb f i libucrt:output.obj
 0001:0004f901       ?should_format@?$standard_base@DV?$stream_output_adapter@D@__crt_stdio_output@@@__crt_stdio_output@@IAE_NXZ 10050901 f i libucrt:output.obj
 0001:0004f904       ?should_format@?$standard_base@DV?$string_output_adapter@D@__crt_stdio_output@@@__crt_stdio_output@@IAE_NXZ 10050904 f i libucrt:output.obj
 0001:0004f907       ?should_format@?$standard_base@_WV?$stream_output_adapter@_W@__crt_stdio_output@@@__crt_stdio_output@@IAE_NXZ 10050907 f i libucrt:output.obj
 0001:0004f90a       ?should_format@?$standard_base@_WV?$string_output_adapter@_W@__crt_stdio_output@@@__crt_stdio_output@@IAE_NXZ 1005090a f i libucrt:output.obj
 0001:0004f90d       ?should_skip_normal_state_processing@?$positional_parameter_base@DV?$stream_output_adapter@D@__crt_stdio_output@@@__crt_stdio_output@@IAE_NXZ 1005090d f i libucrt:output.obj
 0001:0004f935       ?should_skip_normal_state_processing@?$positional_parameter_base@DV?$string_output_adapter@D@__crt_stdio_output@@@__crt_stdio_output@@IAE_NXZ 10050935 f i libucrt:output.obj
 0001:0004f95d       ?should_skip_normal_state_processing@?$positional_parameter_base@_WV?$stream_output_adapter@_W@__crt_stdio_output@@@__crt_stdio_output@@IAE_NXZ 1005095d f i libucrt:output.obj
 0001:0004f985       ?should_skip_normal_state_processing@?$positional_parameter_base@_WV?$string_output_adapter@_W@__crt_stdio_output@@@__crt_stdio_output@@IAE_NXZ 10050985 f i libucrt:output.obj
 0001:0004f9ad       ?should_skip_normal_state_processing@?$standard_base@DV?$stream_output_adapter@D@__crt_stdio_output@@@__crt_stdio_output@@IAE_NXZ 100509ad f i libucrt:output.obj
 0001:0004f9b0       ?should_skip_normal_state_processing@?$standard_base@DV?$string_output_adapter@D@__crt_stdio_output@@@__crt_stdio_output@@IAE_NXZ 100509b0 f i libucrt:output.obj
 0001:0004f9b3       ?should_skip_normal_state_processing@?$standard_base@_WV?$stream_output_adapter@_W@__crt_stdio_output@@@__crt_stdio_output@@IAE_NXZ 100509b3 f i libucrt:output.obj
 0001:0004f9b6       ?should_skip_normal_state_processing@?$standard_base@_WV?$string_output_adapter@_W@__crt_stdio_output@@@__crt_stdio_output@@IAE_NXZ 100509b6 f i libucrt:output.obj
 0001:0004f9b9       ?should_skip_type_state_output@?$positional_parameter_base@DV?$stream_output_adapter@D@__crt_stdio_output@@@__crt_stdio_output@@IBE_NXZ 100509b9 f i libucrt:output.obj
 0001:0004f9d0       ?should_skip_type_state_output@?$positional_parameter_base@DV?$string_output_adapter@D@__crt_stdio_output@@@__crt_stdio_output@@IBE_NXZ 100509d0 f i libucrt:output.obj
 0001:0004f9e7       ?should_skip_type_state_output@?$positional_parameter_base@_WV?$stream_output_adapter@_W@__crt_stdio_output@@@__crt_stdio_output@@IBE_NXZ 100509e7 f i libucrt:output.obj
 0001:0004f9fe       ?should_skip_type_state_output@?$positional_parameter_base@_WV?$string_output_adapter@_W@__crt_stdio_output@@@__crt_stdio_output@@IBE_NXZ 100509fe f i libucrt:output.obj
 0001:0004fa15       ?should_skip_type_state_output@?$standard_base@DV?$stream_output_adapter@D@__crt_stdio_output@@@__crt_stdio_output@@IBE_NXZ 10050a15 f i libucrt:output.obj
 0001:0004fa18       ?should_skip_type_state_output@?$standard_base@DV?$string_output_adapter@D@__crt_stdio_output@@@__crt_stdio_output@@IBE_NXZ 10050a18 f i libucrt:output.obj
 0001:0004fa1b       ?should_skip_type_state_output@?$standard_base@_WV?$stream_output_adapter@_W@__crt_stdio_output@@@__crt_stdio_output@@IBE_NXZ 10050a1b f i libucrt:output.obj
 0001:0004fa1e       ?should_skip_type_state_output@?$standard_base@_WV?$string_output_adapter@_W@__crt_stdio_output@@@__crt_stdio_output@@IBE_NXZ 10050a1e f i libucrt:output.obj
 0001:0004fa21       ?state_case_dot@?$output_processor@DV?$stream_output_adapter@D@__crt_stdio_output@@V?$format_validation_base@DV?$stream_output_adapter@D@__crt_stdio_output@@@2@@__crt_stdio_output@@AAE_NXZ 10050a21 f i libucrt:output.obj
 0001:0004fa28       ?state_case_dot@?$output_processor@DV?$stream_output_adapter@D@__crt_stdio_output@@V?$positional_parameter_base@DV?$stream_output_adapter@D@__crt_stdio_output@@@2@@__crt_stdio_output@@AAE_NXZ 10050a28 f i libucrt:output.obj
 0001:0004fa2f       ?state_case_dot@?$output_processor@DV?$stream_output_adapter@D@__crt_stdio_output@@V?$standard_base@DV?$stream_output_adapter@D@__crt_stdio_output@@@2@@__crt_stdio_output@@AAE_NXZ 10050a2f f i libucrt:output.obj
 0001:0004fa36       ?state_case_dot@?$output_processor@DV?$string_output_adapter@D@__crt_stdio_output@@V?$format_validation_base@DV?$string_output_adapter@D@__crt_stdio_output@@@2@@__crt_stdio_output@@AAE_NXZ 10050a36 f i libucrt:output.obj
 0001:0004fa3d       ?state_case_dot@?$output_processor@DV?$string_output_adapter@D@__crt_stdio_output@@V?$positional_parameter_base@DV?$string_output_adapter@D@__crt_stdio_output@@@2@@__crt_stdio_output@@AAE_NXZ 10050a3d f i libucrt:output.obj
 0001:0004fa44       ?state_case_dot@?$output_processor@DV?$string_output_adapter@D@__crt_stdio_output@@V?$standard_base@DV?$string_output_adapter@D@__crt_stdio_output@@@2@@__crt_stdio_output@@AAE_NXZ 10050a44 f i libucrt:output.obj
 0001:0004fa4b       ?state_case_dot@?$output_processor@_WV?$stream_output_adapter@_W@__crt_stdio_output@@V?$format_validation_base@_WV?$stream_output_adapter@_W@__crt_stdio_output@@@2@@__crt_stdio_output@@AAE_NXZ 10050a4b f i libucrt:output.obj
 0001:0004fa52       ?state_case_dot@?$output_processor@_WV?$stream_output_adapter@_W@__crt_stdio_output@@V?$positional_parameter_base@_WV?$stream_output_adapter@_W@__crt_stdio_output@@@2@@__crt_stdio_output@@AAE_NXZ 10050a52 f i libucrt:output.obj
 0001:0004fa59       ?state_case_dot@?$output_processor@_WV?$stream_output_adapter@_W@__crt_stdio_output@@V?$standard_base@_WV?$stream_output_adapter@_W@__crt_stdio_output@@@2@@__crt_stdio_output@@AAE_NXZ 10050a59 f i libucrt:output.obj
 0001:0004fa60       ?state_case_dot@?$output_processor@_WV?$string_output_adapter@_W@__crt_stdio_output@@V?$format_validation_base@_WV?$string_output_adapter@_W@__crt_stdio_output@@@2@@__crt_stdio_output@@AAE_NXZ 10050a60 f i libucrt:output.obj
 0001:0004fa67       ?state_case_dot@?$output_processor@_WV?$string_output_adapter@_W@__crt_stdio_output@@V?$positional_parameter_base@_WV?$string_output_adapter@_W@__crt_stdio_output@@@2@@__crt_stdio_output@@AAE_NXZ 10050a67 f i libucrt:output.obj
 0001:0004fa6e       ?state_case_dot@?$output_processor@_WV?$string_output_adapter@_W@__crt_stdio_output@@V?$standard_base@_WV?$string_output_adapter@_W@__crt_stdio_output@@@2@@__crt_stdio_output@@AAE_NXZ 10050a6e f i libucrt:output.obj
 0001:0004fa75       ?state_case_flag@?$output_processor@DV?$stream_output_adapter@D@__crt_stdio_output@@V?$format_validation_base@DV?$stream_output_adapter@D@__crt_stdio_output@@@2@@__crt_stdio_output@@AAE_NXZ 10050a75 f i libucrt:output.obj
 0001:0004fab2       ?state_case_flag@?$output_processor@DV?$stream_output_adapter@D@__crt_stdio_output@@V?$positional_parameter_base@DV?$stream_output_adapter@D@__crt_stdio_output@@@2@@__crt_stdio_output@@AAE_NXZ 10050ab2 f i libucrt:output.obj
 0001:0004faef       ?state_case_flag@?$output_processor@DV?$stream_output_adapter@D@__crt_stdio_output@@V?$standard_base@DV?$stream_output_adapter@D@__crt_stdio_output@@@2@@__crt_stdio_output@@AAE_NXZ 10050aef f i libucrt:output.obj
 0001:0004fb2c       ?state_case_flag@?$output_processor@DV?$string_output_adapter@D@__crt_stdio_output@@V?$format_validation_base@DV?$string_output_adapter@D@__crt_stdio_output@@@2@@__crt_stdio_output@@AAE_NXZ 10050b2c f i libucrt:output.obj
 0001:0004fb69       ?state_case_flag@?$output_processor@DV?$string_output_adapter@D@__crt_stdio_output@@V?$positional_parameter_base@DV?$string_output_adapter@D@__crt_stdio_output@@@2@@__crt_stdio_output@@AAE_NXZ 10050b69 f i libucrt:output.obj
 0001:0004fba6       ?state_case_flag@?$output_processor@DV?$string_output_adapter@D@__crt_stdio_output@@V?$standard_base@DV?$string_output_adapter@D@__crt_stdio_output@@@2@@__crt_stdio_output@@AAE_NXZ 10050ba6 f i libucrt:output.obj
 0001:0004fbe3       ?state_case_flag@?$output_processor@_WV?$stream_output_adapter@_W@__crt_stdio_output@@V?$format_validation_base@_WV?$stream_output_adapter@_W@__crt_stdio_output@@@2@@__crt_stdio_output@@AAE_NXZ 10050be3 f i libucrt:output.obj
 0001:0004fc20       ?state_case_flag@?$output_processor@_WV?$stream_output_adapter@_W@__crt_stdio_output@@V?$positional_parameter_base@_WV?$stream_output_adapter@_W@__crt_stdio_output@@@2@@__crt_stdio_output@@AAE_NXZ 10050c20 f i libucrt:output.obj
 0001:0004fc5d       ?state_case_flag@?$output_processor@_WV?$stream_output_adapter@_W@__crt_stdio_output@@V?$standard_base@_WV?$stream_output_adapter@_W@__crt_stdio_output@@@2@@__crt_stdio_output@@AAE_NXZ 10050c5d f i libucrt:output.obj
 0001:0004fc9a       ?state_case_flag@?$output_processor@_WV?$string_output_adapter@_W@__crt_stdio_output@@V?$format_validation_base@_WV?$string_output_adapter@_W@__crt_stdio_output@@@2@@__crt_stdio_output@@AAE_NXZ 10050c9a f i libucrt:output.obj
 0001:0004fcd7       ?state_case_flag@?$output_processor@_WV?$string_output_adapter@_W@__crt_stdio_output@@V?$positional_parameter_base@_WV?$string_output_adapter@_W@__crt_stdio_output@@@2@@__crt_stdio_output@@AAE_NXZ 10050cd7 f i libucrt:output.obj
 0001:0004fd14       ?state_case_flag@?$output_processor@_WV?$string_output_adapter@_W@__crt_stdio_output@@V?$standard_base@_WV?$string_output_adapter@_W@__crt_stdio_output@@@2@@__crt_stdio_output@@AAE_NXZ 10050d14 f i libucrt:output.obj
 0001:0004fd51       ?state_case_normal@?$output_processor@DV?$stream_output_adapter@D@__crt_stdio_output@@V?$format_validation_base@DV?$stream_output_adapter@D@__crt_stdio_output@@@2@@__crt_stdio_output@@AAE_NXZ 10050d51 f i libucrt:output.obj
 0001:0004fd70       ?state_case_normal@?$output_processor@DV?$stream_output_adapter@D@__crt_stdio_output@@V?$positional_parameter_base@DV?$stream_output_adapter@D@__crt_stdio_output@@@2@@__crt_stdio_output@@AAE_NXZ 10050d70 f i libucrt:output.obj
 0001:0004fda1       ?state_case_normal@?$output_processor@DV?$stream_output_adapter@D@__crt_stdio_output@@V?$standard_base@DV?$stream_output_adapter@D@__crt_stdio_output@@@2@@__crt_stdio_output@@AAE_NXZ 10050da1 f i libucrt:output.obj
 0001:0004fdc0       ?state_case_normal@?$output_processor@DV?$string_output_adapter@D@__crt_stdio_output@@V?$format_validation_base@DV?$string_output_adapter@D@__crt_stdio_output@@@2@@__crt_stdio_output@@AAE_NXZ 10050dc0 f i libucrt:output.obj
 0001:0004fddf       ?state_case_normal@?$output_processor@DV?$string_output_adapter@D@__crt_stdio_output@@V?$positional_parameter_base@DV?$string_output_adapter@D@__crt_stdio_output@@@2@@__crt_stdio_output@@AAE_NXZ 10050ddf f i libucrt:output.obj
 0001:0004fe10       ?state_case_normal@?$output_processor@DV?$string_output_adapter@D@__crt_stdio_output@@V?$standard_base@DV?$string_output_adapter@D@__crt_stdio_output@@@2@@__crt_stdio_output@@AAE_NXZ 10050e10 f i libucrt:output.obj
 0001:0004fe2f       ?state_case_normal@?$output_processor@_WV?$stream_output_adapter@_W@__crt_stdio_output@@V?$format_validation_base@_WV?$stream_output_adapter@_W@__crt_stdio_output@@@2@@__crt_stdio_output@@AAE_NXZ 10050e2f f i libucrt:output.obj
 0001:0004fe4e       ?state_case_normal@?$output_processor@_WV?$stream_output_adapter@_W@__crt_stdio_output@@V?$positional_parameter_base@_WV?$stream_output_adapter@_W@__crt_stdio_output@@@2@@__crt_stdio_output@@AAE_NXZ 10050e4e f i libucrt:output.obj
 0001:0004fe7f       ?state_case_normal@?$output_processor@_WV?$stream_output_adapter@_W@__crt_stdio_output@@V?$standard_base@_WV?$stream_output_adapter@_W@__crt_stdio_output@@@2@@__crt_stdio_output@@AAE_NXZ 10050e7f f i libucrt:output.obj
 0001:0004fe9e       ?state_case_normal@?$output_processor@_WV?$string_output_adapter@_W@__crt_stdio_output@@V?$format_validation_base@_WV?$string_output_adapter@_W@__crt_stdio_output@@@2@@__crt_stdio_output@@AAE_NXZ 10050e9e f i libucrt:output.obj
 0001:0004febd       ?state_case_normal@?$output_processor@_WV?$string_output_adapter@_W@__crt_stdio_output@@V?$positional_parameter_base@_WV?$string_output_adapter@_W@__crt_stdio_output@@@2@@__crt_stdio_output@@AAE_NXZ 10050ebd f i libucrt:output.obj
 0001:0004feee       ?state_case_normal@?$output_processor@_WV?$string_output_adapter@_W@__crt_stdio_output@@V?$standard_base@_WV?$string_output_adapter@_W@__crt_stdio_output@@@2@@__crt_stdio_output@@AAE_NXZ 10050eee f i libucrt:output.obj
 0001:0004ff0d       ?state_case_normal_common@?$output_processor@DV?$stream_output_adapter@D@__crt_stdio_output@@V?$format_validation_base@DV?$stream_output_adapter@D@__crt_stdio_output@@@2@@__crt_stdio_output@@AAE_NXZ 10050f0d f i libucrt:output.obj
 0001:0004ff47       ?state_case_normal_common@?$output_processor@DV?$stream_output_adapter@D@__crt_stdio_output@@V?$positional_parameter_base@DV?$stream_output_adapter@D@__crt_stdio_output@@@2@@__crt_stdio_output@@AAE_NXZ 10050f47 f i libucrt:output.obj
 0001:0004ff81       ?state_case_normal_common@?$output_processor@DV?$stream_output_adapter@D@__crt_stdio_output@@V?$standard_base@DV?$stream_output_adapter@D@__crt_stdio_output@@@2@@__crt_stdio_output@@AAE_NXZ 10050f81 f i libucrt:output.obj
 0001:0004ffbb       ?state_case_normal_common@?$output_processor@DV?$string_output_adapter@D@__crt_stdio_output@@V?$format_validation_base@DV?$string_output_adapter@D@__crt_stdio_output@@@2@@__crt_stdio_output@@AAE_NXZ 10050fbb f i libucrt:output.obj
 0001:0004ffe5       ?state_case_normal_common@?$output_processor@DV?$string_output_adapter@D@__crt_stdio_output@@V?$positional_parameter_base@DV?$string_output_adapter@D@__crt_stdio_output@@@2@@__crt_stdio_output@@AAE_NXZ 10050fe5 f i libucrt:output.obj
 0001:0005000f       ?state_case_normal_common@?$output_processor@DV?$string_output_adapter@D@__crt_stdio_output@@V?$standard_base@DV?$string_output_adapter@D@__crt_stdio_output@@@2@@__crt_stdio_output@@AAE_NXZ 1005100f f i libucrt:output.obj
 0001:00050039       ?state_case_normal_common@?$output_processor@_WV?$stream_output_adapter@_W@__crt_stdio_output@@V?$format_validation_base@_WV?$stream_output_adapter@_W@__crt_stdio_output@@@2@@__crt_stdio_output@@AAE_NXZ 10051039 f i libucrt:output.obj
 0001:00050063       ?state_case_normal_common@?$output_processor@_WV?$stream_output_adapter@_W@__crt_stdio_output@@V?$positional_parameter_base@_WV?$stream_output_adapter@_W@__crt_stdio_output@@@2@@__crt_stdio_output@@AAE_NXZ 10051063 f i libucrt:output.obj
 0001:0005008d       ?state_case_normal_common@?$output_processor@_WV?$stream_output_adapter@_W@__crt_stdio_output@@V?$standard_base@_WV?$stream_output_adapter@_W@__crt_stdio_output@@@2@@__crt_stdio_output@@AAE_NXZ 1005108d f i libucrt:output.obj
 0001:000500b7       ?state_case_normal_common@?$output_processor@_WV?$string_output_adapter@_W@__crt_stdio_output@@V?$format_validation_base@_WV?$string_output_adapter@_W@__crt_stdio_output@@@2@@__crt_stdio_output@@AAE_NXZ 100510b7 f i libucrt:output.obj
 0001:000500d2       ?state_case_normal_common@?$output_processor@_WV?$string_output_adapter@_W@__crt_stdio_output@@V?$positional_parameter_base@_WV?$string_output_adapter@_W@__crt_stdio_output@@@2@@__crt_stdio_output@@AAE_NXZ 100510d2 f i libucrt:output.obj
 0001:000500ed       ?state_case_normal_common@?$output_processor@_WV?$string_output_adapter@_W@__crt_stdio_output@@V?$standard_base@_WV?$string_output_adapter@_W@__crt_stdio_output@@@2@@__crt_stdio_output@@AAE_NXZ 100510ed f i libucrt:output.obj
 0001:00050108       ?state_case_normal_tchar@?$output_processor@DV?$stream_output_adapter@D@__crt_stdio_output@@V?$format_validation_base@DV?$stream_output_adapter@D@__crt_stdio_output@@@2@@__crt_stdio_output@@AAE_ND@Z 10051108 f i libucrt:output.obj
 0001:00050175       ?state_case_normal_tchar@?$output_processor@DV?$stream_output_adapter@D@__crt_stdio_output@@V?$positional_parameter_base@DV?$stream_output_adapter@D@__crt_stdio_output@@@2@@__crt_stdio_output@@AAE_ND@Z 10051175 f i libucrt:output.obj
 0001:000501e2       ?state_case_normal_tchar@?$output_processor@DV?$stream_output_adapter@D@__crt_stdio_output@@V?$standard_base@DV?$stream_output_adapter@D@__crt_stdio_output@@@2@@__crt_stdio_output@@AAE_ND@Z 100511e2 f i libucrt:output.obj
 0001:0005024f       ?state_case_normal_tchar@?$output_processor@DV?$string_output_adapter@D@__crt_stdio_output@@V?$format_validation_base@DV?$string_output_adapter@D@__crt_stdio_output@@@2@@__crt_stdio_output@@AAE_ND@Z 1005124f f i libucrt:output.obj
 0001:000502b3       ?state_case_normal_tchar@?$output_processor@DV?$string_output_adapter@D@__crt_stdio_output@@V?$positional_parameter_base@DV?$string_output_adapter@D@__crt_stdio_output@@@2@@__crt_stdio_output@@AAE_ND@Z 100512b3 f i libucrt:output.obj
 0001:00050317       ?state_case_normal_tchar@?$output_processor@DV?$string_output_adapter@D@__crt_stdio_output@@V?$standard_base@DV?$string_output_adapter@D@__crt_stdio_output@@@2@@__crt_stdio_output@@AAE_ND@Z 10051317 f i libucrt:output.obj
 0001:0005037b       ?state_case_normal_tchar@?$output_processor@_WV?$stream_output_adapter@_W@__crt_stdio_output@@V?$format_validation_base@_WV?$stream_output_adapter@_W@__crt_stdio_output@@@2@@__crt_stdio_output@@AAE_N_W@Z 1005137b f i libucrt:output.obj
 0001:00050384       ?state_case_normal_tchar@?$output_processor@_WV?$stream_output_adapter@_W@__crt_stdio_output@@V?$positional_parameter_base@_WV?$stream_output_adapter@_W@__crt_stdio_output@@@2@@__crt_stdio_output@@AAE_N_W@Z 10051384 f i libucrt:output.obj
 0001:0005038d       ?state_case_normal_tchar@?$output_processor@_WV?$stream_output_adapter@_W@__crt_stdio_output@@V?$standard_base@_WV?$stream_output_adapter@_W@__crt_stdio_output@@@2@@__crt_stdio_output@@AAE_N_W@Z 1005138d f i libucrt:output.obj
 0001:00050396       ?state_case_normal_tchar@?$output_processor@_WV?$string_output_adapter@_W@__crt_stdio_output@@V?$format_validation_base@_WV?$string_output_adapter@_W@__crt_stdio_output@@@2@@__crt_stdio_output@@AAE_N_W@Z 10051396 f i libucrt:output.obj
 0001:0005039f       ?state_case_normal_tchar@?$output_processor@_WV?$string_output_adapter@_W@__crt_stdio_output@@V?$positional_parameter_base@_WV?$string_output_adapter@_W@__crt_stdio_output@@@2@@__crt_stdio_output@@AAE_N_W@Z 1005139f f i libucrt:output.obj
 0001:000503a8       ?state_case_normal_tchar@?$output_processor@_WV?$string_output_adapter@_W@__crt_stdio_output@@V?$standard_base@_WV?$string_output_adapter@_W@__crt_stdio_output@@@2@@__crt_stdio_output@@AAE_N_W@Z 100513a8 f i libucrt:output.obj
 0001:000503b1       ?state_case_percent@?$output_processor@DV?$stream_output_adapter@D@__crt_stdio_output@@V?$format_validation_base@DV?$stream_output_adapter@D@__crt_stdio_output@@@2@@__crt_stdio_output@@AAE_NXZ 100513b1 f i libucrt:output.obj
 0001:000503c9       ?state_case_percent@?$output_processor@DV?$stream_output_adapter@D@__crt_stdio_output@@V?$positional_parameter_base@DV?$stream_output_adapter@D@__crt_stdio_output@@@2@@__crt_stdio_output@@AAE_NXZ 100513c9 f i libucrt:output.obj
 0001:000503e1       ?state_case_percent@?$output_processor@DV?$stream_output_adapter@D@__crt_stdio_output@@V?$standard_base@DV?$stream_output_adapter@D@__crt_stdio_output@@@2@@__crt_stdio_output@@AAE_NXZ 100513e1 f i libucrt:output.obj
 0001:000503f9       ?state_case_percent@?$output_processor@DV?$string_output_adapter@D@__crt_stdio_output@@V?$format_validation_base@DV?$string_output_adapter@D@__crt_stdio_output@@@2@@__crt_stdio_output@@AAE_NXZ 100513f9 f i libucrt:output.obj
 0001:00050411       ?state_case_percent@?$output_processor@DV?$string_output_adapter@D@__crt_stdio_output@@V?$positional_parameter_base@DV?$string_output_adapter@D@__crt_stdio_output@@@2@@__crt_stdio_output@@AAE_NXZ 10051411 f i libucrt:output.obj
 0001:00050429       ?state_case_percent@?$output_processor@DV?$string_output_adapter@D@__crt_stdio_output@@V?$standard_base@DV?$string_output_adapter@D@__crt_stdio_output@@@2@@__crt_stdio_output@@AAE_NXZ 10051429 f i libucrt:output.obj
 0001:00050441       ?state_case_percent@?$output_processor@_WV?$stream_output_adapter@_W@__crt_stdio_output@@V?$format_validation_base@_WV?$stream_output_adapter@_W@__crt_stdio_output@@@2@@__crt_stdio_output@@AAE_NXZ 10051441 f i libucrt:output.obj
 0001:00050459       ?state_case_percent@?$output_processor@_WV?$stream_output_adapter@_W@__crt_stdio_output@@V?$positional_parameter_base@_WV?$stream_output_adapter@_W@__crt_stdio_output@@@2@@__crt_stdio_output@@AAE_NXZ 10051459 f i libucrt:output.obj
 0001:00050471       ?state_case_percent@?$output_processor@_WV?$stream_output_adapter@_W@__crt_stdio_output@@V?$standard_base@_WV?$stream_output_adapter@_W@__crt_stdio_output@@@2@@__crt_stdio_output@@AAE_NXZ 10051471 f i libucrt:output.obj
 0001:00050489       ?state_case_percent@?$output_processor@_WV?$string_output_adapter@_W@__crt_stdio_output@@V?$format_validation_base@_WV?$string_output_adapter@_W@__crt_stdio_output@@@2@@__crt_stdio_output@@AAE_NXZ 10051489 f i libucrt:output.obj
 0001:000504a1       ?state_case_percent@?$output_processor@_WV?$string_output_adapter@_W@__crt_stdio_output@@V?$positional_parameter_base@_WV?$string_output_adapter@_W@__crt_stdio_output@@@2@@__crt_stdio_output@@AAE_NXZ 100514a1 f i libucrt:output.obj
 0001:000504b9       ?state_case_percent@?$output_processor@_WV?$string_output_adapter@_W@__crt_stdio_output@@V?$standard_base@_WV?$string_output_adapter@_W@__crt_stdio_output@@@2@@__crt_stdio_output@@AAE_NXZ 100514b9 f i libucrt:output.obj
 0001:000504d1       ?state_case_precision@?$output_processor@DV?$stream_output_adapter@D@__crt_stdio_output@@V?$format_validation_base@DV?$stream_output_adapter@D@__crt_stdio_output@@@2@@__crt_stdio_output@@AAE_NXZ 100514d1 f i libucrt:output.obj
 0001:000504f7       ?state_case_precision@?$output_processor@DV?$stream_output_adapter@D@__crt_stdio_output@@V?$positional_parameter_base@DV?$stream_output_adapter@D@__crt_stdio_output@@@2@@__crt_stdio_output@@AAE_NXZ 100514f7 f i libucrt:output.obj
 0001:00050531       ?state_case_precision@?$output_processor@DV?$stream_output_adapter@D@__crt_stdio_output@@V?$standard_base@DV?$stream_output_adapter@D@__crt_stdio_output@@@2@@__crt_stdio_output@@AAE_NXZ 10051531 f i libucrt:output.obj
 0001:00050557       ?state_case_precision@?$output_processor@DV?$string_output_adapter@D@__crt_stdio_output@@V?$format_validation_base@DV?$string_output_adapter@D@__crt_stdio_output@@@2@@__crt_stdio_output@@AAE_NXZ 10051557 f i libucrt:output.obj
 0001:0005057d       ?state_case_precision@?$output_processor@DV?$string_output_adapter@D@__crt_stdio_output@@V?$positional_parameter_base@DV?$string_output_adapter@D@__crt_stdio_output@@@2@@__crt_stdio_output@@AAE_NXZ 1005157d f i libucrt:output.obj
 0001:000505b7       ?state_case_precision@?$output_processor@DV?$string_output_adapter@D@__crt_stdio_output@@V?$standard_base@DV?$string_output_adapter@D@__crt_stdio_output@@@2@@__crt_stdio_output@@AAE_NXZ 100515b7 f i libucrt:output.obj
 0001:000505dd       ?state_case_precision@?$output_processor@_WV?$stream_output_adapter@_W@__crt_stdio_output@@V?$format_validation_base@_WV?$stream_output_adapter@_W@__crt_stdio_output@@@2@@__crt_stdio_output@@AAE_NXZ 100515dd f i libucrt:output.obj
 0001:00050604       ?state_case_precision@?$output_processor@_WV?$stream_output_adapter@_W@__crt_stdio_output@@V?$positional_parameter_base@_WV?$stream_output_adapter@_W@__crt_stdio_output@@@2@@__crt_stdio_output@@AAE_NXZ 10051604 f i libucrt:output.obj
 0001:0005063f       ?state_case_precision@?$output_processor@_WV?$stream_output_adapter@_W@__crt_stdio_output@@V?$standard_base@_WV?$stream_output_adapter@_W@__crt_stdio_output@@@2@@__crt_stdio_output@@AAE_NXZ 1005163f f i libucrt:output.obj
 0001:00050666       ?state_case_precision@?$output_processor@_WV?$string_output_adapter@_W@__crt_stdio_output@@V?$format_validation_base@_WV?$string_output_adapter@_W@__crt_stdio_output@@@2@@__crt_stdio_output@@AAE_NXZ 10051666 f i libucrt:output.obj
 0001:0005068d       ?state_case_precision@?$output_processor@_WV?$string_output_adapter@_W@__crt_stdio_output@@V?$positional_parameter_base@_WV?$string_output_adapter@_W@__crt_stdio_output@@@2@@__crt_stdio_output@@AAE_NXZ 1005168d f i libucrt:output.obj
 0001:000506c8       ?state_case_precision@?$output_processor@_WV?$string_output_adapter@_W@__crt_stdio_output@@V?$standard_base@_WV?$string_output_adapter@_W@__crt_stdio_output@@@2@@__crt_stdio_output@@AAE_NXZ 100516c8 f i libucrt:output.obj
 0001:000506ef       ?state_case_size@?$output_processor@DV?$stream_output_adapter@D@__crt_stdio_output@@V?$format_validation_base@DV?$stream_output_adapter@D@__crt_stdio_output@@@2@@__crt_stdio_output@@AAE_NXZ 100516ef f i libucrt:output.obj
 0001:0005083d       ?state_case_size@?$output_processor@DV?$stream_output_adapter@D@__crt_stdio_output@@V?$positional_parameter_base@DV?$stream_output_adapter@D@__crt_stdio_output@@@2@@__crt_stdio_output@@AAE_NXZ 1005183d f i libucrt:output.obj
 0001:0005098b       ?state_case_size@?$output_processor@DV?$stream_output_adapter@D@__crt_stdio_output@@V?$standard_base@DV?$stream_output_adapter@D@__crt_stdio_output@@@2@@__crt_stdio_output@@AAE_NXZ 1005198b f i libucrt:output.obj
 0001:00050ad9       ?state_case_size@?$output_processor@DV?$string_output_adapter@D@__crt_stdio_output@@V?$format_validation_base@DV?$string_output_adapter@D@__crt_stdio_output@@@2@@__crt_stdio_output@@AAE_NXZ 10051ad9 f i libucrt:output.obj
 0001:00050c27       ?state_case_size@?$output_processor@DV?$string_output_adapter@D@__crt_stdio_output@@V?$positional_parameter_base@DV?$string_output_adapter@D@__crt_stdio_output@@@2@@__crt_stdio_output@@AAE_NXZ 10051c27 f i libucrt:output.obj
 0001:00050d75       ?state_case_size@?$output_processor@DV?$string_output_adapter@D@__crt_stdio_output@@V?$standard_base@DV?$string_output_adapter@D@__crt_stdio_output@@@2@@__crt_stdio_output@@AAE_NXZ 10051d75 f i libucrt:output.obj
 0001:00050ec3       ?state_case_size@?$output_processor@_WV?$stream_output_adapter@_W@__crt_stdio_output@@V?$format_validation_base@_WV?$stream_output_adapter@_W@__crt_stdio_output@@@2@@__crt_stdio_output@@AAE_NXZ 10051ec3 f i libucrt:output.obj
 0001:0005103b       ?state_case_size@?$output_processor@_WV?$stream_output_adapter@_W@__crt_stdio_output@@V?$positional_parameter_base@_WV?$stream_output_adapter@_W@__crt_stdio_output@@@2@@__crt_stdio_output@@AAE_NXZ 1005203b f i libucrt:output.obj
 0001:000511b3       ?state_case_size@?$output_processor@_WV?$stream_output_adapter@_W@__crt_stdio_output@@V?$standard_base@_WV?$stream_output_adapter@_W@__crt_stdio_output@@@2@@__crt_stdio_output@@AAE_NXZ 100521b3 f i libucrt:output.obj
 0001:0005132b       ?state_case_size@?$output_processor@_WV?$string_output_adapter@_W@__crt_stdio_output@@V?$format_validation_base@_WV?$string_output_adapter@_W@__crt_stdio_output@@@2@@__crt_stdio_output@@AAE_NXZ 1005232b f i libucrt:output.obj
 0001:000514a3       ?state_case_size@?$output_processor@_WV?$string_output_adapter@_W@__crt_stdio_output@@V?$positional_parameter_base@_WV?$string_output_adapter@_W@__crt_stdio_output@@@2@@__crt_stdio_output@@AAE_NXZ 100524a3 f i libucrt:output.obj
 0001:0005161b       ?state_case_size@?$output_processor@_WV?$string_output_adapter@_W@__crt_stdio_output@@V?$standard_base@_WV?$string_output_adapter@_W@__crt_stdio_output@@@2@@__crt_stdio_output@@AAE_NXZ 1005261b f i libucrt:output.obj
 0001:00051793       ?state_case_type@?$output_processor@DV?$stream_output_adapter@D@__crt_stdio_output@@V?$format_validation_base@DV?$stream_output_adapter@D@__crt_stdio_output@@@2@@__crt_stdio_output@@AAE_NXZ 10052793 f i libucrt:output.obj
 0001:000519c5       ?state_case_type@?$output_processor@DV?$stream_output_adapter@D@__crt_stdio_output@@V?$positional_parameter_base@DV?$stream_output_adapter@D@__crt_stdio_output@@@2@@__crt_stdio_output@@AAE_NXZ 100529c5 f i libucrt:output.obj
 0001:00051c06       ?state_case_type@?$output_processor@DV?$stream_output_adapter@D@__crt_stdio_output@@V?$standard_base@DV?$stream_output_adapter@D@__crt_stdio_output@@@2@@__crt_stdio_output@@AAE_NXZ 10052c06 f i libucrt:output.obj
 0001:00051e38       ?state_case_type@?$output_processor@DV?$string_output_adapter@D@__crt_stdio_output@@V?$format_validation_base@DV?$string_output_adapter@D@__crt_stdio_output@@@2@@__crt_stdio_output@@AAE_NXZ 10052e38 f i libucrt:output.obj
 0001:0005206a       ?state_case_type@?$output_processor@DV?$string_output_adapter@D@__crt_stdio_output@@V?$positional_parameter_base@DV?$string_output_adapter@D@__crt_stdio_output@@@2@@__crt_stdio_output@@AAE_NXZ 1005306a f i libucrt:output.obj
 0001:000522ab       ?state_case_type@?$output_processor@DV?$string_output_adapter@D@__crt_stdio_output@@V?$standard_base@DV?$string_output_adapter@D@__crt_stdio_output@@@2@@__crt_stdio_output@@AAE_NXZ 100532ab f i libucrt:output.obj
 0001:000524dd       ?state_case_type@?$output_processor@_WV?$stream_output_adapter@_W@__crt_stdio_output@@V?$format_validation_base@_WV?$stream_output_adapter@_W@__crt_stdio_output@@@2@@__crt_stdio_output@@AAE_NXZ 100534dd f i libucrt:output.obj
 0001:0005273a       ?state_case_type@?$output_processor@_WV?$stream_output_adapter@_W@__crt_stdio_output@@V?$positional_parameter_base@_WV?$stream_output_adapter@_W@__crt_stdio_output@@@2@@__crt_stdio_output@@AAE_NXZ 1005373a f i libucrt:output.obj
 0001:000529a6       ?state_case_type@?$output_processor@_WV?$stream_output_adapter@_W@__crt_stdio_output@@V?$standard_base@_WV?$stream_output_adapter@_W@__crt_stdio_output@@@2@@__crt_stdio_output@@AAE_NXZ 100539a6 f i libucrt:output.obj
 0001:00052c03       ?state_case_type@?$output_processor@_WV?$string_output_adapter@_W@__crt_stdio_output@@V?$format_validation_base@_WV?$string_output_adapter@_W@__crt_stdio_output@@@2@@__crt_stdio_output@@AAE_NXZ 10053c03 f i libucrt:output.obj
 0001:00052e60       ?state_case_type@?$output_processor@_WV?$string_output_adapter@_W@__crt_stdio_output@@V?$positional_parameter_base@_WV?$string_output_adapter@_W@__crt_stdio_output@@@2@@__crt_stdio_output@@AAE_NXZ 10053e60 f i libucrt:output.obj
 0001:000530cc       ?state_case_type@?$output_processor@_WV?$string_output_adapter@_W@__crt_stdio_output@@V?$standard_base@_WV?$string_output_adapter@_W@__crt_stdio_output@@@2@@__crt_stdio_output@@AAE_NXZ 100540cc f i libucrt:output.obj
 0001:00053329       ?state_case_width@?$output_processor@DV?$stream_output_adapter@D@__crt_stdio_output@@V?$format_validation_base@DV?$stream_output_adapter@D@__crt_stdio_output@@@2@@__crt_stdio_output@@AAE_NXZ 10054329 f i libucrt:output.obj
 0001:00053354       ?state_case_width@?$output_processor@DV?$stream_output_adapter@D@__crt_stdio_output@@V?$positional_parameter_base@DV?$stream_output_adapter@D@__crt_stdio_output@@@2@@__crt_stdio_output@@AAE_NXZ 10054354 f i libucrt:output.obj
 0001:00053394       ?state_case_width@?$output_processor@DV?$stream_output_adapter@D@__crt_stdio_output@@V?$standard_base@DV?$stream_output_adapter@D@__crt_stdio_output@@@2@@__crt_stdio_output@@AAE_NXZ 10054394 f i libucrt:output.obj
 0001:000533bf       ?state_case_width@?$output_processor@DV?$string_output_adapter@D@__crt_stdio_output@@V?$format_validation_base@DV?$string_output_adapter@D@__crt_stdio_output@@@2@@__crt_stdio_output@@AAE_NXZ 100543bf f i libucrt:output.obj
 0001:000533ea       ?state_case_width@?$output_processor@DV?$string_output_adapter@D@__crt_stdio_output@@V?$positional_parameter_base@DV?$string_output_adapter@D@__crt_stdio_output@@@2@@__crt_stdio_output@@AAE_NXZ 100543ea f i libucrt:output.obj
 0001:0005342a       ?state_case_width@?$output_processor@DV?$string_output_adapter@D@__crt_stdio_output@@V?$standard_base@DV?$string_output_adapter@D@__crt_stdio_output@@@2@@__crt_stdio_output@@AAE_NXZ 1005442a f i libucrt:output.obj
 0001:00053455       ?state_case_width@?$output_processor@_WV?$stream_output_adapter@_W@__crt_stdio_output@@V?$format_validation_base@_WV?$stream_output_adapter@_W@__crt_stdio_output@@@2@@__crt_stdio_output@@AAE_NXZ 10054455 f i libucrt:output.obj
 0001:00053481       ?state_case_width@?$output_processor@_WV?$stream_output_adapter@_W@__crt_stdio_output@@V?$positional_parameter_base@_WV?$stream_output_adapter@_W@__crt_stdio_output@@@2@@__crt_stdio_output@@AAE_NXZ 10054481 f i libucrt:output.obj
 0001:000534c2       ?state_case_width@?$output_processor@_WV?$stream_output_adapter@_W@__crt_stdio_output@@V?$standard_base@_WV?$stream_output_adapter@_W@__crt_stdio_output@@@2@@__crt_stdio_output@@AAE_NXZ 100544c2 f i libucrt:output.obj
 0001:000534ee       ?state_case_width@?$output_processor@_WV?$string_output_adapter@_W@__crt_stdio_output@@V?$format_validation_base@_WV?$string_output_adapter@_W@__crt_stdio_output@@@2@@__crt_stdio_output@@AAE_NXZ 100544ee f i libucrt:output.obj
 0001:0005351a       ?state_case_width@?$output_processor@_WV?$string_output_adapter@_W@__crt_stdio_output@@V?$positional_parameter_base@_WV?$string_output_adapter@_W@__crt_stdio_output@@@2@@__crt_stdio_output@@AAE_NXZ 1005451a f i libucrt:output.obj
 0001:0005355b       ?state_case_width@?$output_processor@_WV?$string_output_adapter@_W@__crt_stdio_output@@V?$standard_base@_WV?$string_output_adapter@_W@__crt_stdio_output@@@2@@__crt_stdio_output@@AAE_NXZ 1005455b f i libucrt:output.obj
 0001:00053587       ?state_count@?$format_validation_base@DV?$stream_output_adapter@D@__crt_stdio_output@@@__crt_stdio_output@@KAIXZ 10054587 f i libucrt:output.obj
 0001:0005358b       ?state_count@?$format_validation_base@DV?$string_output_adapter@D@__crt_stdio_output@@@__crt_stdio_output@@KAIXZ 1005458b f i libucrt:output.obj
 0001:0005358f       ?state_count@?$format_validation_base@_WV?$stream_output_adapter@_W@__crt_stdio_output@@@__crt_stdio_output@@KAIXZ 1005458f f i libucrt:output.obj
 0001:00053593       ?state_count@?$format_validation_base@_WV?$string_output_adapter@_W@__crt_stdio_output@@@__crt_stdio_output@@KAIXZ 10054593 f i libucrt:output.obj
 0001:00053597       ?state_count@?$standard_base@DV?$stream_output_adapter@D@__crt_stdio_output@@@__crt_stdio_output@@KAIXZ 10054597 f i libucrt:output.obj
 0001:0005359b       ?state_count@?$standard_base@DV?$string_output_adapter@D@__crt_stdio_output@@@__crt_stdio_output@@KAIXZ 1005459b f i libucrt:output.obj
 0001:0005359f       ?state_count@?$standard_base@_WV?$stream_output_adapter@_W@__crt_stdio_output@@@__crt_stdio_output@@KAIXZ 1005459f f i libucrt:output.obj
 0001:000535a3       ?state_count@?$standard_base@_WV?$string_output_adapter@_W@__crt_stdio_output@@@__crt_stdio_output@@KAIXZ 100545a3 f i libucrt:output.obj
 0001:000535a7       ?state_transition_table@?$format_validation_base@DV?$stream_output_adapter@D@__crt_stdio_output@@@__crt_stdio_output@@KAABV?$spectre_mitigated_lookup_table@Ustate_transition_pair@__crt_stdio_output@@$0IA@@2@XZ 100545a7 f i libucrt:output.obj
 0001:000535ad       ?state_transition_table@?$format_validation_base@DV?$string_output_adapter@D@__crt_stdio_output@@@__crt_stdio_output@@KAABV?$spectre_mitigated_lookup_table@Ustate_transition_pair@__crt_stdio_output@@$0IA@@2@XZ 100545ad f i libucrt:output.obj
 0001:000535b3       ?state_transition_table@?$format_validation_base@_WV?$stream_output_adapter@_W@__crt_stdio_output@@@__crt_stdio_output@@KAABV?$spectre_mitigated_lookup_table@Ustate_transition_pair@__crt_stdio_output@@$0IA@@2@XZ 100545b3 f i libucrt:output.obj
 0001:000535b9       ?state_transition_table@?$format_validation_base@_WV?$string_output_adapter@_W@__crt_stdio_output@@@__crt_stdio_output@@KAABV?$spectre_mitigated_lookup_table@Ustate_transition_pair@__crt_stdio_output@@$0IA@@2@XZ 100545b9 f i libucrt:output.obj
 0001:000535bf       ?state_transition_table@?$standard_base@DV?$stream_output_adapter@D@__crt_stdio_output@@@__crt_stdio_output@@KAABV?$spectre_mitigated_lookup_table@Ustate_transition_pair@__crt_stdio_output@@$0IA@@2@XZ 100545bf f i libucrt:output.obj
 0001:000535c5       ?state_transition_table@?$standard_base@DV?$string_output_adapter@D@__crt_stdio_output@@@__crt_stdio_output@@KAABV?$spectre_mitigated_lookup_table@Ustate_transition_pair@__crt_stdio_output@@$0IA@@2@XZ 100545c5 f i libucrt:output.obj
 0001:000535cb       ?state_transition_table@?$standard_base@_WV?$stream_output_adapter@_W@__crt_stdio_output@@@__crt_stdio_output@@KAABV?$spectre_mitigated_lookup_table@Ustate_transition_pair@__crt_stdio_output@@$0IA@@2@XZ 100545cb f i libucrt:output.obj
 0001:000535d1       ?state_transition_table@?$standard_base@_WV?$string_output_adapter@_W@__crt_stdio_output@@@__crt_stdio_output@@KAABV?$spectre_mitigated_lookup_table@Ustate_transition_pair@__crt_stdio_output@@$0IA@@2@XZ 100545d1 f i libucrt:output.obj
 0001:000535d7       ?tchar_string@?$common_data@D@__crt_stdio_output@@IAEAAPADD@Z 100545d7 f i libucrt:output.obj
 0001:000535dd       ?tchar_string@?$common_data@D@__crt_stdio_output@@IAEAAPADXZ 100545dd f i libucrt:output.obj
 0001:000535e1       ?tchar_string@?$common_data@_W@__crt_stdio_output@@IAEAAPA_WXZ 100545e1 f i libucrt:output.obj
 0001:000535e5       ?tchar_string@?$common_data@_W@__crt_stdio_output@@IAEAAPA_W_W@Z 100545e5 f i libucrt:output.obj
 0001:000535f0       ?to_integer_size@__crt_stdio_output@@YAIW4length_modifier@1@@Z 100545f0 f i libucrt:output.obj
 0001:0005364c       ?type_case_X@?$output_processor@DV?$stream_output_adapter@D@__crt_stdio_output@@V?$format_validation_base@DV?$stream_output_adapter@D@__crt_stdio_output@@@2@@__crt_stdio_output@@AAE_NXZ 1005464c f i libucrt:output.obj
 0001:00053656       ?type_case_X@?$output_processor@DV?$stream_output_adapter@D@__crt_stdio_output@@V?$positional_parameter_base@DV?$stream_output_adapter@D@__crt_stdio_output@@@2@@__crt_stdio_output@@AAE_NXZ 10054656 f i libucrt:output.obj
 0001:00053660       ?type_case_X@?$output_processor@DV?$stream_output_adapter@D@__crt_stdio_output@@V?$standard_base@DV?$stream_output_adapter@D@__crt_stdio_output@@@2@@__crt_stdio_output@@AAE_NXZ 10054660 f i libucrt:output.obj
 0001:0005366a       ?type_case_X@?$output_processor@DV?$string_output_adapter@D@__crt_stdio_output@@V?$format_validation_base@DV?$string_output_adapter@D@__crt_stdio_output@@@2@@__crt_stdio_output@@AAE_NXZ 1005466a f i libucrt:output.obj
 0001:00053674       ?type_case_X@?$output_processor@DV?$string_output_adapter@D@__crt_stdio_output@@V?$positional_parameter_base@DV?$string_output_adapter@D@__crt_stdio_output@@@2@@__crt_stdio_output@@AAE_NXZ 10054674 f i libucrt:output.obj
 0001:0005367e       ?type_case_X@?$output_processor@DV?$string_output_adapter@D@__crt_stdio_output@@V?$standard_base@DV?$string_output_adapter@D@__crt_stdio_output@@@2@@__crt_stdio_output@@AAE_NXZ 1005467e f i libucrt:output.obj
 0001:00053688       ?type_case_X@?$output_processor@_WV?$stream_output_adapter@_W@__crt_stdio_output@@V?$format_validation_base@_WV?$stream_output_adapter@_W@__crt_stdio_output@@@2@@__crt_stdio_output@@AAE_NXZ 10054688 f i libucrt:output.obj
 0001:00053692       ?type_case_X@?$output_processor@_WV?$stream_output_adapter@_W@__crt_stdio_output@@V?$positional_parameter_base@_WV?$stream_output_adapter@_W@__crt_stdio_output@@@2@@__crt_stdio_output@@AAE_NXZ 10054692 f i libucrt:output.obj
 0001:0005369c       ?type_case_X@?$output_processor@_WV?$stream_output_adapter@_W@__crt_stdio_output@@V?$standard_base@_WV?$stream_output_adapter@_W@__crt_stdio_output@@@2@@__crt_stdio_output@@AAE_NXZ 1005469c f i libucrt:output.obj
 0001:000536a6       ?type_case_X@?$output_processor@_WV?$string_output_adapter@_W@__crt_stdio_output@@V?$format_validation_base@_WV?$string_output_adapter@_W@__crt_stdio_output@@@2@@__crt_stdio_output@@AAE_NXZ 100546a6 f i libucrt:output.obj
 0001:000536b0       ?type_case_X@?$output_processor@_WV?$string_output_adapter@_W@__crt_stdio_output@@V?$positional_parameter_base@_WV?$string_output_adapter@_W@__crt_stdio_output@@@2@@__crt_stdio_output@@AAE_NXZ 100546b0 f i libucrt:output.obj
 0001:000536ba       ?type_case_X@?$output_processor@_WV?$string_output_adapter@_W@__crt_stdio_output@@V?$standard_base@_WV?$string_output_adapter@_W@__crt_stdio_output@@@2@@__crt_stdio_output@@AAE_NXZ 100546ba f i libucrt:output.obj
 0001:000536c4       ?type_case_Z@?$output_processor@DV?$stream_output_adapter@D@__crt_stdio_output@@V?$format_validation_base@DV?$stream_output_adapter@D@__crt_stdio_output@@@2@@__crt_stdio_output@@AAE_NXZ 100546c4 f i libucrt:output.obj
 0001:0005371e       ?type_case_Z@?$output_processor@DV?$stream_output_adapter@D@__crt_stdio_output@@V?$positional_parameter_base@DV?$stream_output_adapter@D@__crt_stdio_output@@@2@@__crt_stdio_output@@AAE_NXZ 1005471e f i libucrt:output.obj
 0001:00053792       ?type_case_Z@?$output_processor@DV?$stream_output_adapter@D@__crt_stdio_output@@V?$standard_base@DV?$stream_output_adapter@D@__crt_stdio_output@@@2@@__crt_stdio_output@@AAE_NXZ 10054792 f i libucrt:output.obj
 0001:000537ec       ?type_case_Z@?$output_processor@DV?$string_output_adapter@D@__crt_stdio_output@@V?$format_validation_base@DV?$string_output_adapter@D@__crt_stdio_output@@@2@@__crt_stdio_output@@AAE_NXZ 100547ec f i libucrt:output.obj
 0001:00053846       ?type_case_Z@?$output_processor@DV?$string_output_adapter@D@__crt_stdio_output@@V?$positional_parameter_base@DV?$string_output_adapter@D@__crt_stdio_output@@@2@@__crt_stdio_output@@AAE_NXZ 10054846 f i libucrt:output.obj
 0001:000538ba       ?type_case_Z@?$output_processor@DV?$string_output_adapter@D@__crt_stdio_output@@V?$standard_base@DV?$string_output_adapter@D@__crt_stdio_output@@@2@@__crt_stdio_output@@AAE_NXZ 100548ba f i libucrt:output.obj
 0001:00053914       ?type_case_Z@?$output_processor@_WV?$stream_output_adapter@_W@__crt_stdio_output@@V?$format_validation_base@_WV?$stream_output_adapter@_W@__crt_stdio_output@@@2@@__crt_stdio_output@@AAE_NXZ 10054914 f i libucrt:output.obj
 0001:0005396e       ?type_case_Z@?$output_processor@_WV?$stream_output_adapter@_W@__crt_stdio_output@@V?$positional_parameter_base@_WV?$stream_output_adapter@_W@__crt_stdio_output@@@2@@__crt_stdio_output@@AAE_NXZ 1005496e f i libucrt:output.obj
 0001:000539e2       ?type_case_Z@?$output_processor@_WV?$stream_output_adapter@_W@__crt_stdio_output@@V?$standard_base@_WV?$stream_output_adapter@_W@__crt_stdio_output@@@2@@__crt_stdio_output@@AAE_NXZ 100549e2 f i libucrt:output.obj
 0001:00053a3c       ?type_case_Z@?$output_processor@_WV?$string_output_adapter@_W@__crt_stdio_output@@V?$format_validation_base@_WV?$string_output_adapter@_W@__crt_stdio_output@@@2@@__crt_stdio_output@@AAE_NXZ 10054a3c f i libucrt:output.obj
 0001:00053a96       ?type_case_Z@?$output_processor@_WV?$string_output_adapter@_W@__crt_stdio_output@@V?$positional_parameter_base@_WV?$string_output_adapter@_W@__crt_stdio_output@@@2@@__crt_stdio_output@@AAE_NXZ 10054a96 f i libucrt:output.obj
 0001:00053b0a       ?type_case_Z@?$output_processor@_WV?$string_output_adapter@_W@__crt_stdio_output@@V?$standard_base@_WV?$string_output_adapter@_W@__crt_stdio_output@@@2@@__crt_stdio_output@@AAE_NXZ 10054b0a f i libucrt:output.obj
 0001:00053b64       ?type_case_a@?$output_processor@DV?$stream_output_adapter@D@__crt_stdio_output@@V?$format_validation_base@DV?$stream_output_adapter@D@__crt_stdio_output@@@2@@__crt_stdio_output@@AAE_NXZ 10054b64 f i libucrt:output.obj
 0001:00053cb5       ?type_case_a@?$output_processor@DV?$stream_output_adapter@D@__crt_stdio_output@@V?$positional_parameter_base@DV?$stream_output_adapter@D@__crt_stdio_output@@@2@@__crt_stdio_output@@AAE_NXZ 10054cb5 f i libucrt:output.obj
 0001:00053e32       ?type_case_a@?$output_processor@DV?$stream_output_adapter@D@__crt_stdio_output@@V?$standard_base@DV?$stream_output_adapter@D@__crt_stdio_output@@@2@@__crt_stdio_output@@AAE_NXZ 10054e32 f i libucrt:output.obj
 0001:00053f83       ?type_case_a@?$output_processor@DV?$string_output_adapter@D@__crt_stdio_output@@V?$format_validation_base@DV?$string_output_adapter@D@__crt_stdio_output@@@2@@__crt_stdio_output@@AAE_NXZ 10054f83 f i libucrt:output.obj
 0001:000540d4       ?type_case_a@?$output_processor@DV?$string_output_adapter@D@__crt_stdio_output@@V?$positional_parameter_base@DV?$string_output_adapter@D@__crt_stdio_output@@@2@@__crt_stdio_output@@AAE_NXZ 100550d4 f i libucrt:output.obj
 0001:00054251       ?type_case_a@?$output_processor@DV?$string_output_adapter@D@__crt_stdio_output@@V?$standard_base@DV?$string_output_adapter@D@__crt_stdio_output@@@2@@__crt_stdio_output@@AAE_NXZ 10055251 f i libucrt:output.obj
 0001:000543a2       ?type_case_a@?$output_processor@_WV?$stream_output_adapter@_W@__crt_stdio_output@@V?$format_validation_base@_WV?$stream_output_adapter@_W@__crt_stdio_output@@@2@@__crt_stdio_output@@AAE_NXZ 100553a2 f i libucrt:output.obj
 0001:00054509       ?type_case_a@?$output_processor@_WV?$stream_output_adapter@_W@__crt_stdio_output@@V?$positional_parameter_base@_WV?$stream_output_adapter@_W@__crt_stdio_output@@@2@@__crt_stdio_output@@AAE_NXZ 10055509 f i libucrt:output.obj
 0001:0005469c       ?type_case_a@?$output_processor@_WV?$stream_output_adapter@_W@__crt_stdio_output@@V?$standard_base@_WV?$stream_output_adapter@_W@__crt_stdio_output@@@2@@__crt_stdio_output@@AAE_NXZ 1005569c f i libucrt:output.obj
 0001:00054803       ?type_case_a@?$output_processor@_WV?$string_output_adapter@_W@__crt_stdio_output@@V?$format_validation_base@_WV?$string_output_adapter@_W@__crt_stdio_output@@@2@@__crt_stdio_output@@AAE_NXZ 10055803 f i libucrt:output.obj
 0001:0005496a       ?type_case_a@?$output_processor@_WV?$string_output_adapter@_W@__crt_stdio_output@@V?$positional_parameter_base@_WV?$string_output_adapter@_W@__crt_stdio_output@@@2@@__crt_stdio_output@@AAE_NXZ 1005596a f i libucrt:output.obj
 0001:00054afd       ?type_case_a@?$output_processor@_WV?$string_output_adapter@_W@__crt_stdio_output@@V?$standard_base@_WV?$string_output_adapter@_W@__crt_stdio_output@@@2@@__crt_stdio_output@@AAE_NXZ 10055afd f i libucrt:output.obj
 0001:00054c64       ?type_case_c@?$output_processor@DV?$stream_output_adapter@D@__crt_stdio_output@@V?$format_validation_base@DV?$stream_output_adapter@D@__crt_stdio_output@@@2@@__crt_stdio_output@@AAE_NXZ 10055c64 f i libucrt:output.obj
 0001:00054c6c       ?type_case_c@?$output_processor@DV?$stream_output_adapter@D@__crt_stdio_output@@V?$positional_parameter_base@DV?$stream_output_adapter@D@__crt_stdio_output@@@2@@__crt_stdio_output@@AAE_NXZ 10055c6c f i libucrt:output.obj
 0001:00054c74       ?type_case_c@?$output_processor@DV?$stream_output_adapter@D@__crt_stdio_output@@V?$standard_base@DV?$stream_output_adapter@D@__crt_stdio_output@@@2@@__crt_stdio_output@@AAE_NXZ 10055c74 f i libucrt:output.obj
 0001:00054c7c       ?type_case_c@?$output_processor@DV?$string_output_adapter@D@__crt_stdio_output@@V?$format_validation_base@DV?$string_output_adapter@D@__crt_stdio_output@@@2@@__crt_stdio_output@@AAE_NXZ 10055c7c f i libucrt:output.obj
 0001:00054c84       ?type_case_c@?$output_processor@DV?$string_output_adapter@D@__crt_stdio_output@@V?$positional_parameter_base@DV?$string_output_adapter@D@__crt_stdio_output@@@2@@__crt_stdio_output@@AAE_NXZ 10055c84 f i libucrt:output.obj
 0001:00054c8c       ?type_case_c@?$output_processor@DV?$string_output_adapter@D@__crt_stdio_output@@V?$standard_base@DV?$string_output_adapter@D@__crt_stdio_output@@@2@@__crt_stdio_output@@AAE_NXZ 10055c8c f i libucrt:output.obj
 0001:00054c94       ?type_case_c@?$output_processor@_WV?$stream_output_adapter@_W@__crt_stdio_output@@V?$format_validation_base@_WV?$stream_output_adapter@_W@__crt_stdio_output@@@2@@__crt_stdio_output@@AAE_NXZ 10055c94 f i libucrt:output.obj
 0001:00054c9c       ?type_case_c@?$output_processor@_WV?$stream_output_adapter@_W@__crt_stdio_output@@V?$positional_parameter_base@_WV?$stream_output_adapter@_W@__crt_stdio_output@@@2@@__crt_stdio_output@@AAE_NXZ 10055c9c f i libucrt:output.obj
 0001:00054ca4       ?type_case_c@?$output_processor@_WV?$stream_output_adapter@_W@__crt_stdio_output@@V?$standard_base@_WV?$stream_output_adapter@_W@__crt_stdio_output@@@2@@__crt_stdio_output@@AAE_NXZ 10055ca4 f i libucrt:output.obj
 0001:00054cac       ?type_case_c@?$output_processor@_WV?$string_output_adapter@_W@__crt_stdio_output@@V?$format_validation_base@_WV?$string_output_adapter@_W@__crt_stdio_output@@@2@@__crt_stdio_output@@AAE_NXZ 10055cac f i libucrt:output.obj
 0001:00054cb4       ?type_case_c@?$output_processor@_WV?$string_output_adapter@_W@__crt_stdio_output@@V?$positional_parameter_base@_WV?$string_output_adapter@_W@__crt_stdio_output@@@2@@__crt_stdio_output@@AAE_NXZ 10055cb4 f i libucrt:output.obj
 0001:00054cbc       ?type_case_c@?$output_processor@_WV?$string_output_adapter@_W@__crt_stdio_output@@V?$standard_base@_WV?$string_output_adapter@_W@__crt_stdio_output@@@2@@__crt_stdio_output@@AAE_NXZ 10055cbc f i libucrt:output.obj
 0001:00054cc4       ?type_case_c_tchar@?$output_processor@DV?$stream_output_adapter@D@__crt_stdio_output@@V?$format_validation_base@DV?$stream_output_adapter@D@__crt_stdio_output@@@2@@__crt_stdio_output@@AAE_ND@Z 10055cc4 f i libucrt:output.obj
 0001:00054d57       ?type_case_c_tchar@?$output_processor@DV?$stream_output_adapter@D@__crt_stdio_output@@V?$positional_parameter_base@DV?$stream_output_adapter@D@__crt_stdio_output@@@2@@__crt_stdio_output@@AAE_ND@Z 10055d57 f i libucrt:output.obj
 0001:00054e18       ?type_case_c_tchar@?$output_processor@DV?$stream_output_adapter@D@__crt_stdio_output@@V?$standard_base@DV?$stream_output_adapter@D@__crt_stdio_output@@@2@@__crt_stdio_output@@AAE_ND@Z 10055e18 f i libucrt:output.obj
 0001:00054eab       ?type_case_c_tchar@?$output_processor@DV?$string_output_adapter@D@__crt_stdio_output@@V?$format_validation_base@DV?$string_output_adapter@D@__crt_stdio_output@@@2@@__crt_stdio_output@@AAE_ND@Z 10055eab f i libucrt:output.obj
 0001:00054f3e       ?type_case_c_tchar@?$output_processor@DV?$string_output_adapter@D@__crt_stdio_output@@V?$positional_parameter_base@DV?$string_output_adapter@D@__crt_stdio_output@@@2@@__crt_stdio_output@@AAE_ND@Z 10055f3e f i libucrt:output.obj
 0001:00054fff       ?type_case_c_tchar@?$output_processor@DV?$string_output_adapter@D@__crt_stdio_output@@V?$standard_base@DV?$string_output_adapter@D@__crt_stdio_output@@@2@@__crt_stdio_output@@AAE_ND@Z 10055fff f i libucrt:output.obj
 0001:00055092       ?type_case_c_tchar@?$output_processor@_WV?$stream_output_adapter@_W@__crt_stdio_output@@V?$format_validation_base@_WV?$stream_output_adapter@_W@__crt_stdio_output@@@2@@__crt_stdio_output@@AAE_N_W@Z 10056092 f i libucrt:output.obj
 0001:00055128       ?type_case_c_tchar@?$output_processor@_WV?$stream_output_adapter@_W@__crt_stdio_output@@V?$positional_parameter_base@_WV?$stream_output_adapter@_W@__crt_stdio_output@@@2@@__crt_stdio_output@@AAE_N_W@Z 10056128 f i libucrt:output.obj
 0001:000551d5       ?type_case_c_tchar@?$output_processor@_WV?$stream_output_adapter@_W@__crt_stdio_output@@V?$standard_base@_WV?$stream_output_adapter@_W@__crt_stdio_output@@@2@@__crt_stdio_output@@AAE_N_W@Z 100561d5 f i libucrt:output.obj
 0001:0005526b       ?type_case_c_tchar@?$output_processor@_WV?$string_output_adapter@_W@__crt_stdio_output@@V?$format_validation_base@_WV?$string_output_adapter@_W@__crt_stdio_output@@@2@@__crt_stdio_output@@AAE_N_W@Z 1005626b f i libucrt:output.obj
 0001:00055301       ?type_case_c_tchar@?$output_processor@_WV?$string_output_adapter@_W@__crt_stdio_output@@V?$positional_parameter_base@_WV?$string_output_adapter@_W@__crt_stdio_output@@@2@@__crt_stdio_output@@AAE_N_W@Z 10056301 f i libucrt:output.obj
 0001:000553ae       ?type_case_c_tchar@?$output_processor@_WV?$string_output_adapter@_W@__crt_stdio_output@@V?$standard_base@_WV?$string_output_adapter@_W@__crt_stdio_output@@@2@@__crt_stdio_output@@AAE_N_W@Z 100563ae f i libucrt:output.obj
 0001:00055444       ?type_case_d@?$output_processor@DV?$stream_output_adapter@D@__crt_stdio_output@@V?$format_validation_base@DV?$stream_output_adapter@D@__crt_stdio_output@@@2@@__crt_stdio_output@@AAE_NXZ 10056444 f i libucrt:output.obj
 0001:00055452       ?type_case_d@?$output_processor@DV?$stream_output_adapter@D@__crt_stdio_output@@V?$positional_parameter_base@DV?$stream_output_adapter@D@__crt_stdio_output@@@2@@__crt_stdio_output@@AAE_NXZ 10056452 f i libucrt:output.obj
 0001:00055460       ?type_case_d@?$output_processor@DV?$stream_output_adapter@D@__crt_stdio_output@@V?$standard_base@DV?$stream_output_adapter@D@__crt_stdio_output@@@2@@__crt_stdio_output@@AAE_NXZ 10056460 f i libucrt:output.obj
 0001:0005546e       ?type_case_d@?$output_processor@DV?$string_output_adapter@D@__crt_stdio_output@@V?$format_validation_base@DV?$string_output_adapter@D@__crt_stdio_output@@@2@@__crt_stdio_output@@AAE_NXZ 1005646e f i libucrt:output.obj
 0001:0005547c       ?type_case_d@?$output_processor@DV?$string_output_adapter@D@__crt_stdio_output@@V?$positional_parameter_base@DV?$string_output_adapter@D@__crt_stdio_output@@@2@@__crt_stdio_output@@AAE_NXZ 1005647c f i libucrt:output.obj
 0001:0005548a       ?type_case_d@?$output_processor@DV?$string_output_adapter@D@__crt_stdio_output@@V?$standard_base@DV?$string_output_adapter@D@__crt_stdio_output@@@2@@__crt_stdio_output@@AAE_NXZ 1005648a f i libucrt:output.obj
 0001:00055498       ?type_case_d@?$output_processor@_WV?$stream_output_adapter@_W@__crt_stdio_output@@V?$format_validation_base@_WV?$stream_output_adapter@_W@__crt_stdio_output@@@2@@__crt_stdio_output@@AAE_NXZ 10056498 f i libucrt:output.obj
 0001:000554a6       ?type_case_d@?$output_processor@_WV?$stream_output_adapter@_W@__crt_stdio_output@@V?$positional_parameter_base@_WV?$stream_output_adapter@_W@__crt_stdio_output@@@2@@__crt_stdio_output@@AAE_NXZ 100564a6 f i libucrt:output.obj
 0001:000554b4       ?type_case_d@?$output_processor@_WV?$stream_output_adapter@_W@__crt_stdio_output@@V?$standard_base@_WV?$stream_output_adapter@_W@__crt_stdio_output@@@2@@__crt_stdio_output@@AAE_NXZ 100564b4 f i libucrt:output.obj
 0001:000554c2       ?type_case_d@?$output_processor@_WV?$string_output_adapter@_W@__crt_stdio_output@@V?$format_validation_base@_WV?$string_output_adapter@_W@__crt_stdio_output@@@2@@__crt_stdio_output@@AAE_NXZ 100564c2 f i libucrt:output.obj
 0001:000554d0       ?type_case_d@?$output_processor@_WV?$string_output_adapter@_W@__crt_stdio_output@@V?$positional_parameter_base@_WV?$string_output_adapter@_W@__crt_stdio_output@@@2@@__crt_stdio_output@@AAE_NXZ 100564d0 f i libucrt:output.obj
 0001:000554de       ?type_case_d@?$output_processor@_WV?$string_output_adapter@_W@__crt_stdio_output@@V?$standard_base@_WV?$string_output_adapter@_W@__crt_stdio_output@@@2@@__crt_stdio_output@@AAE_NXZ 100564de f i libucrt:output.obj
 0001:000554ec       ?type_case_integer@?$output_processor@DV?$stream_output_adapter@D@__crt_stdio_output@@V?$format_validation_base@DV?$stream_output_adapter@D@__crt_stdio_output@@@2@@__crt_stdio_output@@AAE_NI_N@Z 100564ec f i libucrt:output.obj
 0001:0005563d       ?type_case_integer@?$output_processor@DV?$stream_output_adapter@D@__crt_stdio_output@@V?$positional_parameter_base@DV?$stream_output_adapter@D@__crt_stdio_output@@@2@@__crt_stdio_output@@AAE_NI_N@Z 1005663d f i libucrt:output.obj
 0001:000557be       ?type_case_integer@?$output_processor@DV?$stream_output_adapter@D@__crt_stdio_output@@V?$standard_base@DV?$stream_output_adapter@D@__crt_stdio_output@@@2@@__crt_stdio_output@@AAE_NI_N@Z 100567be f i libucrt:output.obj
 0001:0005590f       ?type_case_integer@?$output_processor@DV?$string_output_adapter@D@__crt_stdio_output@@V?$format_validation_base@DV?$string_output_adapter@D@__crt_stdio_output@@@2@@__crt_stdio_output@@AAE_NI_N@Z 1005690f f i libucrt:output.obj
 0001:00055a60       ?type_case_integer@?$output_processor@DV?$string_output_adapter@D@__crt_stdio_output@@V?$positional_parameter_base@DV?$string_output_adapter@D@__crt_stdio_output@@@2@@__crt_stdio_output@@AAE_NI_N@Z 10056a60 f i libucrt:output.obj
 0001:00055be1       ?type_case_integer@?$output_processor@DV?$string_output_adapter@D@__crt_stdio_output@@V?$standard_base@DV?$string_output_adapter@D@__crt_stdio_output@@@2@@__crt_stdio_output@@AAE_NI_N@Z 10056be1 f i libucrt:output.obj
 0001:00055d32       ?type_case_integer@?$output_processor@_WV?$stream_output_adapter@_W@__crt_stdio_output@@V?$format_validation_base@_WV?$stream_output_adapter@_W@__crt_stdio_output@@@2@@__crt_stdio_output@@AAE_NI_N@Z 10056d32 f i libucrt:output.obj
 0001:00055e87       ?type_case_integer@?$output_processor@_WV?$stream_output_adapter@_W@__crt_stdio_output@@V?$positional_parameter_base@_WV?$stream_output_adapter@_W@__crt_stdio_output@@@2@@__crt_stdio_output@@AAE_NI_N@Z 10056e87 f i libucrt:output.obj
 0001:0005600c       ?type_case_integer@?$output_processor@_WV?$stream_output_adapter@_W@__crt_stdio_output@@V?$standard_base@_WV?$stream_output_adapter@_W@__crt_stdio_output@@@2@@__crt_stdio_output@@AAE_NI_N@Z 1005700c f i libucrt:output.obj
 0001:00056161       ?type_case_integer@?$output_processor@_WV?$string_output_adapter@_W@__crt_stdio_output@@V?$format_validation_base@_WV?$string_output_adapter@_W@__crt_stdio_output@@@2@@__crt_stdio_output@@AAE_NI_N@Z 10057161 f i libucrt:output.obj
 0001:000562b6       ?type_case_integer@?$output_processor@_WV?$string_output_adapter@_W@__crt_stdio_output@@V?$positional_parameter_base@_WV?$string_output_adapter@_W@__crt_stdio_output@@@2@@__crt_stdio_output@@AAE_NI_N@Z 100572b6 f i libucrt:output.obj
 0001:0005643b       ?type_case_integer@?$output_processor@_WV?$string_output_adapter@_W@__crt_stdio_output@@V?$standard_base@_WV?$string_output_adapter@_W@__crt_stdio_output@@@2@@__crt_stdio_output@@AAE_NI_N@Z 1005743b f i libucrt:output.obj
 0001:00056590       ?type_case_n@?$output_processor@DV?$stream_output_adapter@D@__crt_stdio_output@@V?$format_validation_base@DV?$stream_output_adapter@D@__crt_stdio_output@@@2@@__crt_stdio_output@@AAE_NXZ 10057590 f i libucrt:output.obj
 0001:00056604       ?type_case_n@?$output_processor@DV?$stream_output_adapter@D@__crt_stdio_output@@V?$positional_parameter_base@DV?$stream_output_adapter@D@__crt_stdio_output@@@2@@__crt_stdio_output@@AAE_NXZ 10057604 f i libucrt:output.obj
 0001:0005669b       ?type_case_n@?$output_processor@DV?$stream_output_adapter@D@__crt_stdio_output@@V?$standard_base@DV?$stream_output_adapter@D@__crt_stdio_output@@@2@@__crt_stdio_output@@AAE_NXZ 1005769b f i libucrt:output.obj
 0001:0005670f       ?type_case_n@?$output_processor@DV?$string_output_adapter@D@__crt_stdio_output@@V?$format_validation_base@DV?$string_output_adapter@D@__crt_stdio_output@@@2@@__crt_stdio_output@@AAE_NXZ 1005770f f i libucrt:output.obj
 0001:00056783       ?type_case_n@?$output_processor@DV?$string_output_adapter@D@__crt_stdio_output@@V?$positional_parameter_base@DV?$string_output_adapter@D@__crt_stdio_output@@@2@@__crt_stdio_output@@AAE_NXZ 10057783 f i libucrt:output.obj
 0001:0005681a       ?type_case_n@?$output_processor@DV?$string_output_adapter@D@__crt_stdio_output@@V?$standard_base@DV?$string_output_adapter@D@__crt_stdio_output@@@2@@__crt_stdio_output@@AAE_NXZ 1005781a f i libucrt:output.obj
 0001:0005688e       ?type_case_n@?$output_processor@_WV?$stream_output_adapter@_W@__crt_stdio_output@@V?$format_validation_base@_WV?$stream_output_adapter@_W@__crt_stdio_output@@@2@@__crt_stdio_output@@AAE_NXZ 1005788e f i libucrt:output.obj
 0001:00056902       ?type_case_n@?$output_processor@_WV?$stream_output_adapter@_W@__crt_stdio_output@@V?$positional_parameter_base@_WV?$stream_output_adapter@_W@__crt_stdio_output@@@2@@__crt_stdio_output@@AAE_NXZ 10057902 f i libucrt:output.obj
 0001:00056999       ?type_case_n@?$output_processor@_WV?$stream_output_adapter@_W@__crt_stdio_output@@V?$standard_base@_WV?$stream_output_adapter@_W@__crt_stdio_output@@@2@@__crt_stdio_output@@AAE_NXZ 10057999 f i libucrt:output.obj
 0001:00056a0d       ?type_case_n@?$output_processor@_WV?$string_output_adapter@_W@__crt_stdio_output@@V?$format_validation_base@_WV?$string_output_adapter@_W@__crt_stdio_output@@@2@@__crt_stdio_output@@AAE_NXZ 10057a0d f i libucrt:output.obj
 0001:00056a81       ?type_case_n@?$output_processor@_WV?$string_output_adapter@_W@__crt_stdio_output@@V?$positional_parameter_base@_WV?$string_output_adapter@_W@__crt_stdio_output@@@2@@__crt_stdio_output@@AAE_NXZ 10057a81 f i libucrt:output.obj
 0001:00056b18       ?type_case_n@?$output_processor@_WV?$string_output_adapter@_W@__crt_stdio_output@@V?$standard_base@_WV?$string_output_adapter@_W@__crt_stdio_output@@@2@@__crt_stdio_output@@AAE_NXZ 10057b18 f i libucrt:output.obj
 0001:00056b8c       ?type_case_o@?$output_processor@DV?$stream_output_adapter@D@__crt_stdio_output@@V?$format_validation_base@DV?$stream_output_adapter@D@__crt_stdio_output@@@2@@__crt_stdio_output@@AAE_NXZ 10057b8c f i libucrt:output.obj
 0001:00056bab       ?type_case_o@?$output_processor@DV?$stream_output_adapter@D@__crt_stdio_output@@V?$positional_parameter_base@DV?$stream_output_adapter@D@__crt_stdio_output@@@2@@__crt_stdio_output@@AAE_NXZ 10057bab f i libucrt:output.obj
 0001:00056bca       ?type_case_o@?$output_processor@DV?$stream_output_adapter@D@__crt_stdio_output@@V?$standard_base@DV?$stream_output_adapter@D@__crt_stdio_output@@@2@@__crt_stdio_output@@AAE_NXZ 10057bca f i libucrt:output.obj
 0001:00056be9       ?type_case_o@?$output_processor@DV?$string_output_adapter@D@__crt_stdio_output@@V?$format_validation_base@DV?$string_output_adapter@D@__crt_stdio_output@@@2@@__crt_stdio_output@@AAE_NXZ 10057be9 f i libucrt:output.obj
 0001:00056c08       ?type_case_o@?$output_processor@DV?$string_output_adapter@D@__crt_stdio_output@@V?$positional_parameter_base@DV?$string_output_adapter@D@__crt_stdio_output@@@2@@__crt_stdio_output@@AAE_NXZ 10057c08 f i libucrt:output.obj
 0001:00056c27       ?type_case_o@?$output_processor@DV?$string_output_adapter@D@__crt_stdio_output@@V?$standard_base@DV?$string_output_adapter@D@__crt_stdio_output@@@2@@__crt_stdio_output@@AAE_NXZ 10057c27 f i libucrt:output.obj
 0001:00056c46       ?type_case_o@?$output_processor@_WV?$stream_output_adapter@_W@__crt_stdio_output@@V?$format_validation_base@_WV?$stream_output_adapter@_W@__crt_stdio_output@@@2@@__crt_stdio_output@@AAE_NXZ 10057c46 f i libucrt:output.obj
 0001:00056c65       ?type_case_o@?$output_processor@_WV?$stream_output_adapter@_W@__crt_stdio_output@@V?$positional_parameter_base@_WV?$stream_output_adapter@_W@__crt_stdio_output@@@2@@__crt_stdio_output@@AAE_NXZ 10057c65 f i libucrt:output.obj
 0001:00056c84       ?type_case_o@?$output_processor@_WV?$stream_output_adapter@_W@__crt_stdio_output@@V?$standard_base@_WV?$stream_output_adapter@_W@__crt_stdio_output@@@2@@__crt_stdio_output@@AAE_NXZ 10057c84 f i libucrt:output.obj
 0001:00056ca3       ?type_case_o@?$output_processor@_WV?$string_output_adapter@_W@__crt_stdio_output@@V?$format_validation_base@_WV?$string_output_adapter@_W@__crt_stdio_output@@@2@@__crt_stdio_output@@AAE_NXZ 10057ca3 f i libucrt:output.obj
 0001:00056cc2       ?type_case_o@?$output_processor@_WV?$string_output_adapter@_W@__crt_stdio_output@@V?$positional_parameter_base@_WV?$string_output_adapter@_W@__crt_stdio_output@@@2@@__crt_stdio_output@@AAE_NXZ 10057cc2 f i libucrt:output.obj
 0001:00056ce1       ?type_case_o@?$output_processor@_WV?$string_output_adapter@_W@__crt_stdio_output@@V?$standard_base@_WV?$string_output_adapter@_W@__crt_stdio_output@@@2@@__crt_stdio_output@@AAE_NXZ 10057ce1 f i libucrt:output.obj
 0001:00056d00       ?type_case_p@?$output_processor@DV?$stream_output_adapter@D@__crt_stdio_output@@V?$format_validation_base@DV?$stream_output_adapter@D@__crt_stdio_output@@@2@@__crt_stdio_output@@AAE_NXZ 10057d00 f i libucrt:output.obj
 0001:00056d18       ?type_case_p@?$output_processor@DV?$stream_output_adapter@D@__crt_stdio_output@@V?$positional_parameter_base@DV?$stream_output_adapter@D@__crt_stdio_output@@@2@@__crt_stdio_output@@AAE_NXZ 10057d18 f i libucrt:output.obj
 0001:00056d30       ?type_case_p@?$output_processor@DV?$stream_output_adapter@D@__crt_stdio_output@@V?$standard_base@DV?$stream_output_adapter@D@__crt_stdio_output@@@2@@__crt_stdio_output@@AAE_NXZ 10057d30 f i libucrt:output.obj
 0001:00056d48       ?type_case_p@?$output_processor@DV?$string_output_adapter@D@__crt_stdio_output@@V?$format_validation_base@DV?$string_output_adapter@D@__crt_stdio_output@@@2@@__crt_stdio_output@@AAE_NXZ 10057d48 f i libucrt:output.obj
 0001:00056d60       ?type_case_p@?$output_processor@DV?$string_output_adapter@D@__crt_stdio_output@@V?$positional_parameter_base@DV?$string_output_adapter@D@__crt_stdio_output@@@2@@__crt_stdio_output@@AAE_NXZ 10057d60 f i libucrt:output.obj
 0001:00056d78       ?type_case_p@?$output_processor@DV?$string_output_adapter@D@__crt_stdio_output@@V?$standard_base@DV?$string_output_adapter@D@__crt_stdio_output@@@2@@__crt_stdio_output@@AAE_NXZ 10057d78 f i libucrt:output.obj
 0001:00056d90       ?type_case_p@?$output_processor@_WV?$stream_output_adapter@_W@__crt_stdio_output@@V?$format_validation_base@_WV?$stream_output_adapter@_W@__crt_stdio_output@@@2@@__crt_stdio_output@@AAE_NXZ 10057d90 f i libucrt:output.obj
 0001:00056da8       ?type_case_p@?$output_processor@_WV?$stream_output_adapter@_W@__crt_stdio_output@@V?$positional_parameter_base@_WV?$stream_output_adapter@_W@__crt_stdio_output@@@2@@__crt_stdio_output@@AAE_NXZ 10057da8 f i libucrt:output.obj
 0001:00056dc0       ?type_case_p@?$output_processor@_WV?$stream_output_adapter@_W@__crt_stdio_output@@V?$standard_base@_WV?$stream_output_adapter@_W@__crt_stdio_output@@@2@@__crt_stdio_output@@AAE_NXZ 10057dc0 f i libucrt:output.obj
 0001:00056dd8       ?type_case_p@?$output_processor@_WV?$string_output_adapter@_W@__crt_stdio_output@@V?$format_validation_base@_WV?$string_output_adapter@_W@__crt_stdio_output@@@2@@__crt_stdio_output@@AAE_NXZ 10057dd8 f i libucrt:output.obj
 0001:00056df0       ?type_case_p@?$output_processor@_WV?$string_output_adapter@_W@__crt_stdio_output@@V?$positional_parameter_base@_WV?$string_output_adapter@_W@__crt_stdio_output@@@2@@__crt_stdio_output@@AAE_NXZ 10057df0 f i libucrt:output.obj
 0001:00056e08       ?type_case_p@?$output_processor@_WV?$string_output_adapter@_W@__crt_stdio_output@@V?$standard_base@_WV?$string_output_adapter@_W@__crt_stdio_output@@@2@@__crt_stdio_output@@AAE_NXZ 10057e08 f i libucrt:output.obj
 0001:00056e20       ?type_case_s@?$output_processor@DV?$stream_output_adapter@D@__crt_stdio_output@@V?$format_validation_base@DV?$stream_output_adapter@D@__crt_stdio_output@@@2@@__crt_stdio_output@@AAE_NXZ 10057e20 f i libucrt:output.obj
 0001:00056e91       ?type_case_s@?$output_processor@DV?$stream_output_adapter@D@__crt_stdio_output@@V?$positional_parameter_base@DV?$stream_output_adapter@D@__crt_stdio_output@@@2@@__crt_stdio_output@@AAE_NXZ 10057e91 f i libucrt:output.obj
 0001:00056f0f       ?type_case_s@?$output_processor@DV?$stream_output_adapter@D@__crt_stdio_output@@V?$standard_base@DV?$stream_output_adapter@D@__crt_stdio_output@@@2@@__crt_stdio_output@@AAE_NXZ 10057f0f f i libucrt:output.obj
 0001:00056f80       ?type_case_s@?$output_processor@DV?$string_output_adapter@D@__crt_stdio_output@@V?$format_validation_base@DV?$string_output_adapter@D@__crt_stdio_output@@@2@@__crt_stdio_output@@AAE_NXZ 10057f80 f i libucrt:output.obj
 0001:00056ff1       ?type_case_s@?$output_processor@DV?$string_output_adapter@D@__crt_stdio_output@@V?$positional_parameter_base@DV?$string_output_adapter@D@__crt_stdio_output@@@2@@__crt_stdio_output@@AAE_NXZ 10057ff1 f i libucrt:output.obj
 0001:0005706f       ?type_case_s@?$output_processor@DV?$string_output_adapter@D@__crt_stdio_output@@V?$standard_base@DV?$string_output_adapter@D@__crt_stdio_output@@@2@@__crt_stdio_output@@AAE_NXZ 1005806f f i libucrt:output.obj
 0001:000570e0       ?type_case_s@?$output_processor@_WV?$stream_output_adapter@_W@__crt_stdio_output@@V?$format_validation_base@_WV?$stream_output_adapter@_W@__crt_stdio_output@@@2@@__crt_stdio_output@@AAE_NXZ 100580e0 f i libucrt:output.obj
 0001:00057153       ?type_case_s@?$output_processor@_WV?$stream_output_adapter@_W@__crt_stdio_output@@V?$positional_parameter_base@_WV?$stream_output_adapter@_W@__crt_stdio_output@@@2@@__crt_stdio_output@@AAE_NXZ 10058153 f i libucrt:output.obj
 0001:000571d3       ?type_case_s@?$output_processor@_WV?$stream_output_adapter@_W@__crt_stdio_output@@V?$standard_base@_WV?$stream_output_adapter@_W@__crt_stdio_output@@@2@@__crt_stdio_output@@AAE_NXZ 100581d3 f i libucrt:output.obj
 0001:00057246       ?type_case_s@?$output_processor@_WV?$string_output_adapter@_W@__crt_stdio_output@@V?$format_validation_base@_WV?$string_output_adapter@_W@__crt_stdio_output@@@2@@__crt_stdio_output@@AAE_NXZ 10058246 f i libucrt:output.obj
 0001:000572b9       ?type_case_s@?$output_processor@_WV?$string_output_adapter@_W@__crt_stdio_output@@V?$positional_parameter_base@_WV?$string_output_adapter@_W@__crt_stdio_output@@@2@@__crt_stdio_output@@AAE_NXZ 100582b9 f i libucrt:output.obj
 0001:00057339       ?type_case_s@?$output_processor@_WV?$string_output_adapter@_W@__crt_stdio_output@@V?$standard_base@_WV?$string_output_adapter@_W@__crt_stdio_output@@@2@@__crt_stdio_output@@AAE_NXZ 10058339 f i libucrt:output.obj
 0001:000573ac       ?type_case_s_compute_narrow_string_length@?$output_processor@DV?$stream_output_adapter@D@__crt_stdio_output@@V?$format_validation_base@DV?$stream_output_adapter@D@__crt_stdio_output@@@2@@__crt_stdio_output@@ABEHHD@Z 100583ac f i libucrt:output.obj
 0001:000573c2       ?type_case_s_compute_narrow_string_length@?$output_processor@DV?$stream_output_adapter@D@__crt_stdio_output@@V?$positional_parameter_base@DV?$stream_output_adapter@D@__crt_stdio_output@@@2@@__crt_stdio_output@@ABEHHD@Z 100583c2 f i libucrt:output.obj
 0001:000573d8       ?type_case_s_compute_narrow_string_length@?$output_processor@DV?$stream_output_adapter@D@__crt_stdio_output@@V?$standard_base@DV?$stream_output_adapter@D@__crt_stdio_output@@@2@@__crt_stdio_output@@ABEHHD@Z 100583d8 f i libucrt:output.obj
 0001:000573ee       ?type_case_s_compute_narrow_string_length@?$output_processor@DV?$string_output_adapter@D@__crt_stdio_output@@V?$format_validation_base@DV?$string_output_adapter@D@__crt_stdio_output@@@2@@__crt_stdio_output@@ABEHHD@Z 100583ee f i libucrt:output.obj
 0001:00057404       ?type_case_s_compute_narrow_string_length@?$output_processor@DV?$string_output_adapter@D@__crt_stdio_output@@V?$positional_parameter_base@DV?$string_output_adapter@D@__crt_stdio_output@@@2@@__crt_stdio_output@@ABEHHD@Z 10058404 f i libucrt:output.obj
 0001:0005741a       ?type_case_s_compute_narrow_string_length@?$output_processor@DV?$string_output_adapter@D@__crt_stdio_output@@V?$standard_base@DV?$string_output_adapter@D@__crt_stdio_output@@@2@@__crt_stdio_output@@ABEHHD@Z 1005841a f i libucrt:output.obj
 0001:00057430       ?type_case_s_compute_narrow_string_length@?$output_processor@_WV?$stream_output_adapter@_W@__crt_stdio_output@@V?$format_validation_base@_WV?$stream_output_adapter@_W@__crt_stdio_output@@@2@@__crt_stdio_output@@ABEHH_W@Z 10058430 f i libucrt:output.obj
 0001:00057477       ?type_case_s_compute_narrow_string_length@?$output_processor@_WV?$stream_output_adapter@_W@__crt_stdio_output@@V?$positional_parameter_base@_WV?$stream_output_adapter@_W@__crt_stdio_output@@@2@@__crt_stdio_output@@ABEHH_W@Z 10058477 f i libucrt:output.obj
 0001:000574be       ?type_case_s_compute_narrow_string_length@?$output_processor@_WV?$stream_output_adapter@_W@__crt_stdio_output@@V?$standard_base@_WV?$stream_output_adapter@_W@__crt_stdio_output@@@2@@__crt_stdio_output@@ABEHH_W@Z 100584be f i libucrt:output.obj
 0001:00057505       ?type_case_s_compute_narrow_string_length@?$output_processor@_WV?$string_output_adapter@_W@__crt_stdio_output@@V?$format_validation_base@_WV?$string_output_adapter@_W@__crt_stdio_output@@@2@@__crt_stdio_output@@ABEHH_W@Z 10058505 f i libucrt:output.obj
 0001:0005754c       ?type_case_s_compute_narrow_string_length@?$output_processor@_WV?$string_output_adapter@_W@__crt_stdio_output@@V?$positional_parameter_base@_WV?$string_output_adapter@_W@__crt_stdio_output@@@2@@__crt_stdio_output@@ABEHH_W@Z 1005854c f i libucrt:output.obj
 0001:00057593       ?type_case_s_compute_narrow_string_length@?$output_processor@_WV?$string_output_adapter@_W@__crt_stdio_output@@V?$standard_base@_WV?$string_output_adapter@_W@__crt_stdio_output@@@2@@__crt_stdio_output@@ABEHH_W@Z 10058593 f i libucrt:output.obj
 0001:000575da       ?type_case_u@?$output_processor@DV?$stream_output_adapter@D@__crt_stdio_output@@V?$format_validation_base@DV?$stream_output_adapter@D@__crt_stdio_output@@@2@@__crt_stdio_output@@AAE_NXZ 100585da f i libucrt:output.obj
 0001:000575e4       ?type_case_u@?$output_processor@DV?$stream_output_adapter@D@__crt_stdio_output@@V?$positional_parameter_base@DV?$stream_output_adapter@D@__crt_stdio_output@@@2@@__crt_stdio_output@@AAE_NXZ 100585e4 f i libucrt:output.obj
 0001:000575ee       ?type_case_u@?$output_processor@DV?$stream_output_adapter@D@__crt_stdio_output@@V?$standard_base@DV?$stream_output_adapter@D@__crt_stdio_output@@@2@@__crt_stdio_output@@AAE_NXZ 100585ee f i libucrt:output.obj
 0001:000575f8       ?type_case_u@?$output_processor@DV?$string_output_adapter@D@__crt_stdio_output@@V?$format_validation_base@DV?$string_output_adapter@D@__crt_stdio_output@@@2@@__crt_stdio_output@@AAE_NXZ 100585f8 f i libucrt:output.obj
 0001:00057602       ?type_case_u@?$output_processor@DV?$string_output_adapter@D@__crt_stdio_output@@V?$positional_parameter_base@DV?$string_output_adapter@D@__crt_stdio_output@@@2@@__crt_stdio_output@@AAE_NXZ 10058602 f i libucrt:output.obj
 0001:0005760c       ?type_case_u@?$output_processor@DV?$string_output_adapter@D@__crt_stdio_output@@V?$standard_base@DV?$string_output_adapter@D@__crt_stdio_output@@@2@@__crt_stdio_output@@AAE_NXZ 1005860c f i libucrt:output.obj
 0001:00057616       ?type_case_u@?$output_processor@_WV?$stream_output_adapter@_W@__crt_stdio_output@@V?$format_validation_base@_WV?$stream_output_adapter@_W@__crt_stdio_output@@@2@@__crt_stdio_output@@AAE_NXZ 10058616 f i libucrt:output.obj
 0001:00057620       ?type_case_u@?$output_processor@_WV?$stream_output_adapter@_W@__crt_stdio_output@@V?$positional_parameter_base@_WV?$stream_output_adapter@_W@__crt_stdio_output@@@2@@__crt_stdio_output@@AAE_NXZ 10058620 f i libucrt:output.obj
 0001:0005762a       ?type_case_u@?$output_processor@_WV?$stream_output_adapter@_W@__crt_stdio_output@@V?$standard_base@_WV?$stream_output_adapter@_W@__crt_stdio_output@@@2@@__crt_stdio_output@@AAE_NXZ 1005862a f i libucrt:output.obj
 0001:00057634       ?type_case_u@?$output_processor@_WV?$string_output_adapter@_W@__crt_stdio_output@@V?$format_validation_base@_WV?$string_output_adapter@_W@__crt_stdio_output@@@2@@__crt_stdio_output@@AAE_NXZ 10058634 f i libucrt:output.obj
 0001:0005763e       ?type_case_u@?$output_processor@_WV?$string_output_adapter@_W@__crt_stdio_output@@V?$positional_parameter_base@_WV?$string_output_adapter@_W@__crt_stdio_output@@@2@@__crt_stdio_output@@AAE_NXZ 1005863e f i libucrt:output.obj
 0001:00057648       ?type_case_u@?$output_processor@_WV?$string_output_adapter@_W@__crt_stdio_output@@V?$standard_base@_WV?$string_output_adapter@_W@__crt_stdio_output@@@2@@__crt_stdio_output@@AAE_NXZ 10058648 f i libucrt:output.obj
 0001:00057652       ?type_case_x@?$output_processor@DV?$stream_output_adapter@D@__crt_stdio_output@@V?$format_validation_base@DV?$stream_output_adapter@D@__crt_stdio_output@@@2@@__crt_stdio_output@@AAE_NXZ 10058652 f i libucrt:output.obj
 0001:0005765c       ?type_case_x@?$output_processor@DV?$stream_output_adapter@D@__crt_stdio_output@@V?$positional_parameter_base@DV?$stream_output_adapter@D@__crt_stdio_output@@@2@@__crt_stdio_output@@AAE_NXZ 1005865c f i libucrt:output.obj
 0001:00057666       ?type_case_x@?$output_processor@DV?$stream_output_adapter@D@__crt_stdio_output@@V?$standard_base@DV?$stream_output_adapter@D@__crt_stdio_output@@@2@@__crt_stdio_output@@AAE_NXZ 10058666 f i libucrt:output.obj
 0001:00057670       ?type_case_x@?$output_processor@DV?$string_output_adapter@D@__crt_stdio_output@@V?$format_validation_base@DV?$string_output_adapter@D@__crt_stdio_output@@@2@@__crt_stdio_output@@AAE_NXZ 10058670 f i libucrt:output.obj
 0001:0005767a       ?type_case_x@?$output_processor@DV?$string_output_adapter@D@__crt_stdio_output@@V?$positional_parameter_base@DV?$string_output_adapter@D@__crt_stdio_output@@@2@@__crt_stdio_output@@AAE_NXZ 1005867a f i libucrt:output.obj
 0001:00057684       ?type_case_x@?$output_processor@DV?$string_output_adapter@D@__crt_stdio_output@@V?$standard_base@DV?$string_output_adapter@D@__crt_stdio_output@@@2@@__crt_stdio_output@@AAE_NXZ 10058684 f i libucrt:output.obj
 0001:0005768e       ?type_case_x@?$output_processor@_WV?$stream_output_adapter@_W@__crt_stdio_output@@V?$format_validation_base@_WV?$stream_output_adapter@_W@__crt_stdio_output@@@2@@__crt_stdio_output@@AAE_NXZ 1005868e f i libucrt:output.obj
 0001:00057698       ?type_case_x@?$output_processor@_WV?$stream_output_adapter@_W@__crt_stdio_output@@V?$positional_parameter_base@_WV?$stream_output_adapter@_W@__crt_stdio_output@@@2@@__crt_stdio_output@@AAE_NXZ 10058698 f i libucrt:output.obj
 0001:000576a2       ?type_case_x@?$output_processor@_WV?$stream_output_adapter@_W@__crt_stdio_output@@V?$standard_base@_WV?$stream_output_adapter@_W@__crt_stdio_output@@@2@@__crt_stdio_output@@AAE_NXZ 100586a2 f i libucrt:output.obj
 0001:000576ac       ?type_case_x@?$output_processor@_WV?$string_output_adapter@_W@__crt_stdio_output@@V?$format_validation_base@_WV?$string_output_adapter@_W@__crt_stdio_output@@@2@@__crt_stdio_output@@AAE_NXZ 100586ac f i libucrt:output.obj
 0001:000576b6       ?type_case_x@?$output_processor@_WV?$string_output_adapter@_W@__crt_stdio_output@@V?$positional_parameter_base@_WV?$string_output_adapter@_W@__crt_stdio_output@@@2@@__crt_stdio_output@@AAE_NXZ 100586b6 f i libucrt:output.obj
 0001:000576c0       ?type_case_x@?$output_processor@_WV?$string_output_adapter@_W@__crt_stdio_output@@V?$standard_base@_WV?$string_output_adapter@_W@__crt_stdio_output@@@2@@__crt_stdio_output@@AAE_NXZ 100586c0 f i libucrt:output.obj
 0001:000576ca       ?unset_flag@?$output_processor@DV?$stream_output_adapter@D@__crt_stdio_output@@V?$format_validation_base@DV?$stream_output_adapter@D@__crt_stdio_output@@@2@@__crt_stdio_output@@AAEXI@Z 100586ca f i libucrt:output.obj
 0001:000576db       ?unset_flag@?$output_processor@DV?$stream_output_adapter@D@__crt_stdio_output@@V?$positional_parameter_base@DV?$stream_output_adapter@D@__crt_stdio_output@@@2@@__crt_stdio_output@@AAEXI@Z 100586db f i libucrt:output.obj
 0001:000576ec       ?unset_flag@?$output_processor@DV?$stream_output_adapter@D@__crt_stdio_output@@V?$standard_base@DV?$stream_output_adapter@D@__crt_stdio_output@@@2@@__crt_stdio_output@@AAEXI@Z 100586ec f i libucrt:output.obj
 0001:000576fd       ?unset_flag@?$output_processor@DV?$string_output_adapter@D@__crt_stdio_output@@V?$format_validation_base@DV?$string_output_adapter@D@__crt_stdio_output@@@2@@__crt_stdio_output@@AAEXI@Z 100586fd f i libucrt:output.obj
 0001:0005770e       ?unset_flag@?$output_processor@DV?$string_output_adapter@D@__crt_stdio_output@@V?$positional_parameter_base@DV?$string_output_adapter@D@__crt_stdio_output@@@2@@__crt_stdio_output@@AAEXI@Z 1005870e f i libucrt:output.obj
 0001:0005771f       ?unset_flag@?$output_processor@DV?$string_output_adapter@D@__crt_stdio_output@@V?$standard_base@DV?$string_output_adapter@D@__crt_stdio_output@@@2@@__crt_stdio_output@@AAEXI@Z 1005871f f i libucrt:output.obj
 0001:00057730       ?unset_flag@?$output_processor@_WV?$stream_output_adapter@_W@__crt_stdio_output@@V?$format_validation_base@_WV?$stream_output_adapter@_W@__crt_stdio_output@@@2@@__crt_stdio_output@@AAEXI@Z 10058730 f i libucrt:output.obj
 0001:00057741       ?unset_flag@?$output_processor@_WV?$stream_output_adapter@_W@__crt_stdio_output@@V?$positional_parameter_base@_WV?$stream_output_adapter@_W@__crt_stdio_output@@@2@@__crt_stdio_output@@AAEXI@Z 10058741 f i libucrt:output.obj
 0001:00057752       ?unset_flag@?$output_processor@_WV?$stream_output_adapter@_W@__crt_stdio_output@@V?$standard_base@_WV?$stream_output_adapter@_W@__crt_stdio_output@@@2@@__crt_stdio_output@@AAEXI@Z 10058752 f i libucrt:output.obj
 0001:00057763       ?unset_flag@?$output_processor@_WV?$string_output_adapter@_W@__crt_stdio_output@@V?$format_validation_base@_WV?$string_output_adapter@_W@__crt_stdio_output@@@2@@__crt_stdio_output@@AAEXI@Z 10058763 f i libucrt:output.obj
 0001:00057774       ?unset_flag@?$output_processor@_WV?$string_output_adapter@_W@__crt_stdio_output@@V?$positional_parameter_base@_WV?$string_output_adapter@_W@__crt_stdio_output@@@2@@__crt_stdio_output@@AAEXI@Z 10058774 f i libucrt:output.obj
 0001:00057785       ?unset_flag@?$output_processor@_WV?$string_output_adapter@_W@__crt_stdio_output@@V?$standard_base@_WV?$string_output_adapter@_W@__crt_stdio_output@@@2@@__crt_stdio_output@@AAEXI@Z 10058785 f i libucrt:output.obj
 0001:00057796       ?update_field_width@?$positional_parameter_base@DV?$stream_output_adapter@D@__crt_stdio_output@@@__crt_stdio_output@@IAE_NXZ 10058796 f i libucrt:output.obj
 0001:0005784a       ?update_field_width@?$positional_parameter_base@DV?$string_output_adapter@D@__crt_stdio_output@@@__crt_stdio_output@@IAE_NXZ 1005884a f i libucrt:output.obj
 0001:000578fe       ?update_field_width@?$positional_parameter_base@_WV?$stream_output_adapter@_W@__crt_stdio_output@@@__crt_stdio_output@@IAE_NXZ 100588fe f i libucrt:output.obj
 0001:000579b3       ?update_field_width@?$positional_parameter_base@_WV?$string_output_adapter@_W@__crt_stdio_output@@@__crt_stdio_output@@IAE_NXZ 100589b3 f i libucrt:output.obj
 0001:00057a68       ?update_field_width@?$standard_base@DV?$stream_output_adapter@D@__crt_stdio_output@@@__crt_stdio_output@@IAE_NXZ 10058a68 f i libucrt:output.obj
 0001:00057a78       ?update_field_width@?$standard_base@DV?$string_output_adapter@D@__crt_stdio_output@@@__crt_stdio_output@@IAE_NXZ 10058a78 f i libucrt:output.obj
 0001:00057a88       ?update_field_width@?$standard_base@_WV?$stream_output_adapter@_W@__crt_stdio_output@@@__crt_stdio_output@@IAE_NXZ 10058a88 f i libucrt:output.obj
 0001:00057a98       ?update_field_width@?$standard_base@_WV?$string_output_adapter@_W@__crt_stdio_output@@@__crt_stdio_output@@IAE_NXZ 10058a98 f i libucrt:output.obj
 0001:00057aa8       ?update_precision@?$positional_parameter_base@DV?$stream_output_adapter@D@__crt_stdio_output@@@__crt_stdio_output@@IAE_NXZ 10058aa8 f i libucrt:output.obj
 0001:00057b5c       ?update_precision@?$positional_parameter_base@DV?$string_output_adapter@D@__crt_stdio_output@@@__crt_stdio_output@@IAE_NXZ 10058b5c f i libucrt:output.obj
 0001:00057c10       ?update_precision@?$positional_parameter_base@_WV?$stream_output_adapter@_W@__crt_stdio_output@@@__crt_stdio_output@@IAE_NXZ 10058c10 f i libucrt:output.obj
 0001:00057cc5       ?update_precision@?$positional_parameter_base@_WV?$string_output_adapter@_W@__crt_stdio_output@@@__crt_stdio_output@@IAE_NXZ 10058cc5 f i libucrt:output.obj
 0001:00057d7a       ?update_precision@?$standard_base@DV?$stream_output_adapter@D@__crt_stdio_output@@@__crt_stdio_output@@IAE_NXZ 10058d7a f i libucrt:output.obj
 0001:00057d8a       ?update_precision@?$standard_base@DV?$string_output_adapter@D@__crt_stdio_output@@@__crt_stdio_output@@IAE_NXZ 10058d8a f i libucrt:output.obj
 0001:00057d9a       ?update_precision@?$standard_base@_WV?$stream_output_adapter@_W@__crt_stdio_output@@@__crt_stdio_output@@IAE_NXZ 10058d9a f i libucrt:output.obj
 0001:00057daa       ?update_precision@?$standard_base@_WV?$string_output_adapter@_W@__crt_stdio_output@@@__crt_stdio_output@@IAE_NXZ 10058daa f i libucrt:output.obj
 0001:00057dba       ?valid@__crt_stdio_stream@@QBE_NXZ 10058dba f i libucrt:output.obj
 0001:00057dc1       ?validate@?$stream_output_adapter@D@__crt_stdio_output@@QBE_NXZ 10058dc1 f i libucrt:output.obj
 0001:00057de2       ?validate@?$stream_output_adapter@_W@__crt_stdio_output@@QBE_NXZ 10058de2 f i libucrt:output.obj
 0001:00057dfd       ?validate@?$string_output_adapter@D@__crt_stdio_output@@QBE_NXZ 10058dfd f i libucrt:output.obj
 0001:00057e18       ?validate@?$string_output_adapter@_W@__crt_stdio_output@@QBE_NXZ 10058e18 f i libucrt:output.obj
 0001:00057e33       ?validate_and_store_parameter_data@?$positional_parameter_base@DV?$stream_output_adapter@D@__crt_stdio_output@@@__crt_stdio_output@@AAE_NAAUparameter_data@12@W4parameter_type@12@DW4length_modifier@2@@Z 10058e33 f i libucrt:output.obj
 0001:00057e7e       ?validate_and_store_parameter_data@?$positional_parameter_base@DV?$string_output_adapter@D@__crt_stdio_output@@@__crt_stdio_output@@AAE_NAAUparameter_data@12@W4parameter_type@12@DW4length_modifier@2@@Z 10058e7e f i libucrt:output.obj
 0001:00057ec9       ?validate_and_store_parameter_data@?$positional_parameter_base@_WV?$stream_output_adapter@_W@__crt_stdio_output@@@__crt_stdio_output@@AAE_NAAUparameter_data@12@W4parameter_type@12@_WW4length_modifier@2@@Z 10058ec9 f i libucrt:output.obj
 0001:00057f16       ?validate_and_store_parameter_data@?$positional_parameter_base@_WV?$string_output_adapter@_W@__crt_stdio_output@@@__crt_stdio_output@@AAE_NAAUparameter_data@12@W4parameter_type@12@_WW4length_modifier@2@@Z 10058f16 f i libucrt:output.obj
 0001:00057f63       ?validate_and_update_state_at_beginning_of_format_character@?$positional_parameter_base@DV?$stream_output_adapter@D@__crt_stdio_output@@@__crt_stdio_output@@IAE_NXZ 10058f63 f i libucrt:output.obj
 0001:0005805b       ?validate_and_update_state_at_beginning_of_format_character@?$positional_parameter_base@DV?$string_output_adapter@D@__crt_stdio_output@@@__crt_stdio_output@@IAE_NXZ 1005905b f i libucrt:output.obj
 0001:00058153       ?validate_and_update_state_at_beginning_of_format_character@?$positional_parameter_base@_WV?$stream_output_adapter@_W@__crt_stdio_output@@@__crt_stdio_output@@IAE_NXZ 10059153 f i libucrt:output.obj
 0001:00058254       ?validate_and_update_state_at_beginning_of_format_character@?$positional_parameter_base@_WV?$string_output_adapter@_W@__crt_stdio_output@@@__crt_stdio_output@@IAE_NXZ 10059254 f i libucrt:output.obj
 0001:00058355       ?validate_and_update_state_at_beginning_of_format_character@?$standard_base@DV?$stream_output_adapter@D@__crt_stdio_output@@@__crt_stdio_output@@IAE_NXZ 10059355 f i libucrt:output.obj
 0001:00058358       ?validate_and_update_state_at_beginning_of_format_character@?$standard_base@DV?$string_output_adapter@D@__crt_stdio_output@@@__crt_stdio_output@@IAE_NXZ 10059358 f i libucrt:output.obj
 0001:0005835b       ?validate_and_update_state_at_beginning_of_format_character@?$standard_base@_WV?$stream_output_adapter@_W@__crt_stdio_output@@@__crt_stdio_output@@IAE_NXZ 1005935b f i libucrt:output.obj
 0001:0005835e       ?validate_and_update_state_at_beginning_of_format_character@?$standard_base@_WV?$string_output_adapter@_W@__crt_stdio_output@@@__crt_stdio_output@@IAE_NXZ 1005935e f i libucrt:output.obj
 0001:00058361       ?validate_and_update_state_at_end_of_format_string@?$format_validation_base@DV?$stream_output_adapter@D@__crt_stdio_output@@@__crt_stdio_output@@IBE_NXZ 10059361 f i libucrt:output.obj
 0001:00058383       ?validate_and_update_state_at_end_of_format_string@?$format_validation_base@DV?$string_output_adapter@D@__crt_stdio_output@@@__crt_stdio_output@@IBE_NXZ 10059383 f i libucrt:output.obj
 0001:000583a5       ?validate_and_update_state_at_end_of_format_string@?$format_validation_base@_WV?$stream_output_adapter@_W@__crt_stdio_output@@@__crt_stdio_output@@IBE_NXZ 100593a5 f i libucrt:output.obj
 0001:000583c7       ?validate_and_update_state_at_end_of_format_string@?$format_validation_base@_WV?$string_output_adapter@_W@__crt_stdio_output@@@__crt_stdio_output@@IBE_NXZ 100593c7 f i libucrt:output.obj
 0001:000583e9       ?validate_and_update_state_at_end_of_format_string@?$positional_parameter_base@DV?$stream_output_adapter@D@__crt_stdio_output@@@__crt_stdio_output@@IAE_NXZ 100593e9 f i libucrt:output.obj
 0001:00058479       ?validate_and_update_state_at_end_of_format_string@?$positional_parameter_base@DV?$string_output_adapter@D@__crt_stdio_output@@@__crt_stdio_output@@IAE_NXZ 10059479 f i libucrt:output.obj
 0001:00058509       ?validate_and_update_state_at_end_of_format_string@?$positional_parameter_base@_WV?$stream_output_adapter@_W@__crt_stdio_output@@@__crt_stdio_output@@IAE_NXZ 10059509 f i libucrt:output.obj
 0001:00058599       ?validate_and_update_state_at_end_of_format_string@?$positional_parameter_base@_WV?$string_output_adapter@_W@__crt_stdio_output@@@__crt_stdio_output@@IAE_NXZ 10059599 f i libucrt:output.obj
 0001:00058629       ?validate_and_update_state_at_end_of_format_string@?$standard_base@DV?$stream_output_adapter@D@__crt_stdio_output@@@__crt_stdio_output@@IBE_NXZ 10059629 f i libucrt:output.obj
 0001:0005862c       ?validate_and_update_state_at_end_of_format_string@?$standard_base@DV?$string_output_adapter@D@__crt_stdio_output@@@__crt_stdio_output@@IBE_NXZ 1005962c f i libucrt:output.obj
 0001:0005862f       ?validate_and_update_state_at_end_of_format_string@?$standard_base@_WV?$stream_output_adapter@_W@__crt_stdio_output@@@__crt_stdio_output@@IBE_NXZ 1005962f f i libucrt:output.obj
 0001:00058632       ?validate_and_update_state_at_end_of_format_string@?$standard_base@_WV?$string_output_adapter@_W@__crt_stdio_output@@@__crt_stdio_output@@IBE_NXZ 10059632 f i libucrt:output.obj
 0001:00058635       ?validate_state_for_type_case_a@?$positional_parameter_base@DV?$stream_output_adapter@D@__crt_stdio_output@@@__crt_stdio_output@@IAE_NXZ 10059635 f i libucrt:output.obj
 0001:00058684       ?validate_state_for_type_case_a@?$positional_parameter_base@DV?$string_output_adapter@D@__crt_stdio_output@@@__crt_stdio_output@@IAE_NXZ 10059684 f i libucrt:output.obj
 0001:000586d3       ?validate_state_for_type_case_a@?$positional_parameter_base@_WV?$stream_output_adapter@_W@__crt_stdio_output@@@__crt_stdio_output@@IAE_NXZ 100596d3 f i libucrt:output.obj
 0001:00058722       ?validate_state_for_type_case_a@?$positional_parameter_base@_WV?$string_output_adapter@_W@__crt_stdio_output@@@__crt_stdio_output@@IAE_NXZ 10059722 f i libucrt:output.obj
 0001:00058771       ?validate_state_for_type_case_a@?$standard_base@DV?$stream_output_adapter@D@__crt_stdio_output@@@__crt_stdio_output@@IBE_NXZ 10059771 f i libucrt:output.obj
 0001:00058774       ?validate_state_for_type_case_a@?$standard_base@DV?$string_output_adapter@D@__crt_stdio_output@@@__crt_stdio_output@@IBE_NXZ 10059774 f i libucrt:output.obj
 0001:00058777       ?validate_state_for_type_case_a@?$standard_base@_WV?$stream_output_adapter@_W@__crt_stdio_output@@@__crt_stdio_output@@IBE_NXZ 10059777 f i libucrt:output.obj
 0001:0005877a       ?validate_state_for_type_case_a@?$standard_base@_WV?$string_output_adapter@_W@__crt_stdio_output@@@__crt_stdio_output@@IBE_NXZ 1005977a f i libucrt:output.obj
 0001:0005877d       ?validate_stream_is_ansi_if_required@?$__acrt_stdio_char_traits@D@@SA_NQAU_iobuf@@@Z 1005977d f i libucrt:output.obj
 0001:00058804       ?validate_stream_is_ansi_if_required@?$__acrt_stdio_char_traits@_W@@SA_NQAU_iobuf@@@Z 10059804 f i libucrt:output.obj
 0001:00058807       ?wide_null_string@?$output_processor@DV?$stream_output_adapter@D@__crt_stdio_output@@V?$format_validation_base@DV?$stream_output_adapter@D@__crt_stdio_output@@@2@@__crt_stdio_output@@CAPA_WXZ 10059807 f i libucrt:output.obj
 0001:0005880d       ?wide_null_string@?$output_processor@DV?$stream_output_adapter@D@__crt_stdio_output@@V?$positional_parameter_base@DV?$stream_output_adapter@D@__crt_stdio_output@@@2@@__crt_stdio_output@@CAPA_WXZ 1005980d f i libucrt:output.obj
 0001:00058813       ?wide_null_string@?$output_processor@DV?$stream_output_adapter@D@__crt_stdio_output@@V?$standard_base@DV?$stream_output_adapter@D@__crt_stdio_output@@@2@@__crt_stdio_output@@CAPA_WXZ 10059813 f i libucrt:output.obj
 0001:00058819       ?wide_null_string@?$output_processor@DV?$string_output_adapter@D@__crt_stdio_output@@V?$format_validation_base@DV?$string_output_adapter@D@__crt_stdio_output@@@2@@__crt_stdio_output@@CAPA_WXZ 10059819 f i libucrt:output.obj
 0001:0005881f       ?wide_null_string@?$output_processor@DV?$string_output_adapter@D@__crt_stdio_output@@V?$positional_parameter_base@DV?$string_output_adapter@D@__crt_stdio_output@@@2@@__crt_stdio_output@@CAPA_WXZ 1005981f f i libucrt:output.obj
 0001:00058825       ?wide_null_string@?$output_processor@DV?$string_output_adapter@D@__crt_stdio_output@@V?$standard_base@DV?$string_output_adapter@D@__crt_stdio_output@@@2@@__crt_stdio_output@@CAPA_WXZ 10059825 f i libucrt:output.obj
 0001:0005882b       ?wide_null_string@?$output_processor@_WV?$stream_output_adapter@_W@__crt_stdio_output@@V?$format_validation_base@_WV?$stream_output_adapter@_W@__crt_stdio_output@@@2@@__crt_stdio_output@@CAPA_WXZ 1005982b f i libucrt:output.obj
 0001:00058831       ?wide_null_string@?$output_processor@_WV?$stream_output_adapter@_W@__crt_stdio_output@@V?$positional_parameter_base@_WV?$stream_output_adapter@_W@__crt_stdio_output@@@2@@__crt_stdio_output@@CAPA_WXZ 10059831 f i libucrt:output.obj
 0001:00058837       ?wide_null_string@?$output_processor@_WV?$stream_output_adapter@_W@__crt_stdio_output@@V?$standard_base@_WV?$stream_output_adapter@_W@__crt_stdio_output@@@2@@__crt_stdio_output@@CAPA_WXZ 10059837 f i libucrt:output.obj
 0001:0005883d       ?wide_null_string@?$output_processor@_WV?$string_output_adapter@_W@__crt_stdio_output@@V?$format_validation_base@_WV?$string_output_adapter@_W@__crt_stdio_output@@@2@@__crt_stdio_output@@CAPA_WXZ 1005983d f i libucrt:output.obj
 0001:00058843       ?wide_null_string@?$output_processor@_WV?$string_output_adapter@_W@__crt_stdio_output@@V?$positional_parameter_base@_WV?$string_output_adapter@_W@__crt_stdio_output@@@2@@__crt_stdio_output@@CAPA_WXZ 10059843 f i libucrt:output.obj
 0001:00058849       ?wide_null_string@?$output_processor@_WV?$string_output_adapter@_W@__crt_stdio_output@@V?$standard_base@_WV?$string_output_adapter@_W@__crt_stdio_output@@@2@@__crt_stdio_output@@CAPA_WXZ 10059849 f i libucrt:output.obj
 0001:0005884f       ?write_character@?$output_adapter_common@DV?$stream_output_adapter@D@__crt_stdio_output@@@__crt_stdio_output@@QBEXDQAH@Z 1005984f f i libucrt:output.obj
 0001:0005886e       ?write_character@?$output_adapter_common@_WV?$stream_output_adapter@_W@__crt_stdio_output@@@__crt_stdio_output@@QBEX_WQAH@Z 1005986e f i libucrt:output.obj
 0001:0005888d       ?write_character@?$string_output_adapter@D@__crt_stdio_output@@QBE_NDQAH@Z 1005988d f i libucrt:output.obj
 0001:000588cf       ?write_character@?$string_output_adapter@_W@__crt_stdio_output@@QBE_N_WQAH@Z 100598cf f i libucrt:output.obj
 0001:00058914       ?write_character_without_count_update@?$stream_output_adapter@D@__crt_stdio_output@@QBE_ND@Z 10059914 f i libucrt:output.obj
 0001:0005894a       ?write_character_without_count_update@?$stream_output_adapter@_W@__crt_stdio_output@@QBE_N_W@Z 1005994a f i libucrt:output.obj
 0001:00058983       ?write_stored_string_tchar@?$output_processor@DV?$stream_output_adapter@D@__crt_stdio_output@@V?$format_validation_base@DV?$stream_output_adapter@D@__crt_stdio_output@@@2@@__crt_stdio_output@@AAE_ND@Z 10059983 f i libucrt:output.obj
 0001:00058a28       ?write_stored_string_tchar@?$output_processor@DV?$stream_output_adapter@D@__crt_stdio_output@@V?$positional_parameter_base@DV?$stream_output_adapter@D@__crt_stdio_output@@@2@@__crt_stdio_output@@AAE_ND@Z 10059a28 f i libucrt:output.obj
 0001:00058acd       ?write_stored_string_tchar@?$output_processor@DV?$stream_output_adapter@D@__crt_stdio_output@@V?$standard_base@DV?$stream_output_adapter@D@__crt_stdio_output@@@2@@__crt_stdio_output@@AAE_ND@Z 10059acd f i libucrt:output.obj
 0001:00058b72       ?write_stored_string_tchar@?$output_processor@DV?$string_output_adapter@D@__crt_stdio_output@@V?$format_validation_base@DV?$string_output_adapter@D@__crt_stdio_output@@@2@@__crt_stdio_output@@AAE_ND@Z 10059b72 f i libucrt:output.obj
 0001:00058c17       ?write_stored_string_tchar@?$output_processor@DV?$string_output_adapter@D@__crt_stdio_output@@V?$positional_parameter_base@DV?$string_output_adapter@D@__crt_stdio_output@@@2@@__crt_stdio_output@@AAE_ND@Z 10059c17 f i libucrt:output.obj
 0001:00058cbc       ?write_stored_string_tchar@?$output_processor@DV?$string_output_adapter@D@__crt_stdio_output@@V?$standard_base@DV?$string_output_adapter@D@__crt_stdio_output@@@2@@__crt_stdio_output@@AAE_ND@Z 10059cbc f i libucrt:output.obj
 0001:00058d61       ?write_stored_string_tchar@?$output_processor@_WV?$stream_output_adapter@_W@__crt_stdio_output@@V?$format_validation_base@_WV?$stream_output_adapter@_W@__crt_stdio_output@@@2@@__crt_stdio_output@@AAE_N_W@Z 10059d61 f i libucrt:output.obj
 0001:00058dee       ?write_stored_string_tchar@?$output_processor@_WV?$stream_output_adapter@_W@__crt_stdio_output@@V?$positional_parameter_base@_WV?$stream_output_adapter@_W@__crt_stdio_output@@@2@@__crt_stdio_output@@AAE_N_W@Z 10059dee f i libucrt:output.obj
 0001:00058e7b       ?write_stored_string_tchar@?$output_processor@_WV?$stream_output_adapter@_W@__crt_stdio_output@@V?$standard_base@_WV?$stream_output_adapter@_W@__crt_stdio_output@@@2@@__crt_stdio_output@@AAE_N_W@Z 10059e7b f i libucrt:output.obj
 0001:00058f08       ?write_stored_string_tchar@?$output_processor@_WV?$string_output_adapter@_W@__crt_stdio_output@@V?$format_validation_base@_WV?$string_output_adapter@_W@__crt_stdio_output@@@2@@__crt_stdio_output@@AAE_N_W@Z 10059f08 f i libucrt:output.obj
 0001:00058f95       ?write_stored_string_tchar@?$output_processor@_WV?$string_output_adapter@_W@__crt_stdio_output@@V?$positional_parameter_base@_WV?$string_output_adapter@_W@__crt_stdio_output@@@2@@__crt_stdio_output@@AAE_N_W@Z 10059f95 f i libucrt:output.obj
 0001:00059022       ?write_stored_string_tchar@?$output_processor@_WV?$string_output_adapter@_W@__crt_stdio_output@@V?$standard_base@_WV?$string_output_adapter@_W@__crt_stdio_output@@@2@@__crt_stdio_output@@AAE_N_W@Z 1005a022 f i libucrt:output.obj
 0001:000590af       ?write_string@?$stream_output_adapter@D@__crt_stdio_output@@QBEXQBDHQAHAAV__crt_deferred_errno_cache@@@Z 1005a0af f i libucrt:output.obj
 0001:000590db       ?write_string@?$stream_output_adapter@_W@__crt_stdio_output@@QBEXQB_WHQAHAAV__crt_deferred_errno_cache@@@Z 1005a0db f i libucrt:output.obj
 0001:00059107       ?write_string@?$string_output_adapter@D@__crt_stdio_output@@QBEXQBDHQAHAAV__crt_deferred_errno_cache@@@Z 1005a107 f i libucrt:output.obj
 0001:0005916e       ?write_string@?$string_output_adapter@_W@__crt_stdio_output@@QBEXQB_WHQAHAAV__crt_deferred_errno_cache@@@Z 1005a16e f i libucrt:output.obj
 0001:000591df       ?write_string_impl@?$output_adapter_common@DV?$stream_output_adapter@D@__crt_stdio_output@@@__crt_stdio_output@@IBEXQBDHQAHAAV__crt_deferred_errno_cache@@@Z 1005a1df f i libucrt:output.obj
 0001:0005927d       ?write_string_impl@?$output_adapter_common@_WV?$stream_output_adapter@_W@__crt_stdio_output@@@__crt_stdio_output@@IBEXQB_WHQAHAAV__crt_deferred_errno_cache@@@Z 1005a27d f i libucrt:output.obj
 0001:0005931e       ___acrt_disable_global_locale_sync 1005a31e f i libucrt:output.obj
 0001:00059331       ___acrt_enable_global_locale_sync 1005a331 f i libucrt:output.obj
 0001:00059346       ___acrt_isleadbyte_l_noupdate 1005a346 f i libucrt:output.obj
 0001:00059364       ___acrt_locale_changed     1005a364 f i libucrt:output.obj
 0001:0005936f       ___acrt_locale_get_ctype_array_value 1005a36f f i libucrt:output.obj
 0001:00059391       ___stdio_common_vfprintf   1005a391 f   libucrt:output.obj
 0001:00059414       ___stdio_common_vfprintf_p 1005a414 f   libucrt:output.obj
 0001:00059497       ___stdio_common_vfprintf_s 1005a497 f   libucrt:output.obj
 0001:0005951a       ___stdio_common_vfwprintf  1005a51a f   libucrt:output.obj
 0001:0005959d       ___stdio_common_vfwprintf_p 1005a59d f   libucrt:output.obj
 0001:00059620       ___stdio_common_vfwprintf_s 1005a620 f   libucrt:output.obj
 0001:000596a3       ___stdio_common_vsnprintf_s 1005a6a3 f   libucrt:output.obj
 0001:000596ca       ___stdio_common_vsnwprintf_s 1005a6ca f   libucrt:output.obj
 0001:000596f1       ___stdio_common_vsprintf   1005a6f1 f   libucrt:output.obj
 0001:00059715       ___stdio_common_vsprintf_p 1005a715 f   libucrt:output.obj
 0001:00059739       ___stdio_common_vsprintf_s 1005a739 f   libucrt:output.obj
 0001:0005975d       ___stdio_common_vswprintf  1005a75d f   libucrt:output.obj
 0001:00059781       ___stdio_common_vswprintf_p 1005a781 f   libucrt:output.obj
 0001:000597a5       ___stdio_common_vswprintf_s 1005a7a5 f   libucrt:output.obj
 0001:000597c9       __ctype_fast_check_internal 1005a7c9 f i libucrt:output.obj
 0001:000597e3       __isdigit_fast_internal    1005a7e3 f i libucrt:output.obj
 0001:000597fd       __tolower_fast_internal    1005a7fd f i libucrt:output.obj
 0001:00059870       _strcpy_s                  1005a870 f   libucrt:strcpy_s.obj
 0001:000598d0       _strcmp                    1005a8d0 f   libucrt:strcmp.obj
 0001:00059960       _strlen                    1005a960 f   libucrt:strlen.obj
 0001:000599eb       ??0?$__crt_scoped_stack_ptr@D@@QAE@U?$__crt_scoped_stack_ptr_tag@D@@@Z 1005a9eb f i libucrt:strlwr.obj
 0001:000599fb       ??0?$__crt_scoped_stack_ptr_tag@D@@QAE@QAD@Z 1005a9fb f i libucrt:strlwr.obj
 0001:00059a0b       ??1?$__crt_scoped_stack_ptr@D@@QAE@XZ 1005aa0b f i libucrt:strlwr.obj
 0001:00059a14       ??B?$__crt_scoped_stack_ptr@D@@QBE_NXZ 1005aa14 f i libucrt:strlwr.obj
 0001:00059b87       ?get@?$__crt_scoped_stack_ptr@D@@QBEPADXZ 1005ab87 f i libucrt:strlwr.obj
 0001:00059b8a       __MallocaComputeSize       1005ab8a f i libucrt:strlwr.obj
 0001:00059b9d       __MarkAllocaS              1005ab9d f i libucrt:strlwr.obj
 0001:00059bb3       __freea_crt                1005abb3 f i libucrt:strlwr.obj
 0001:00059bd3       __strlwr                   1005abd3 f   libucrt:strlwr.obj
 0001:00059c2f       __strlwr_l                 1005ac2f f   libucrt:strlwr.obj
 0001:00059c49       __strlwr_s                 1005ac49 f   libucrt:strlwr.obj
 0001:00059c60       __strlwr_s_l               1005ac60 f   libucrt:strlwr.obj
 0001:0005a18b       ??$gmtime_s@ABQAUtm@@ABQBJ@?$__crt_integer_traits@J@@SAHABQAUtm@@ABQBJ@Z 1005b18b f i libucrt:localtime.obj
 0001:0005a1a3       ??$gmtime_s@ABQAUtm@@ABQB_J@?$__crt_integer_traits@_J@@SAHABQAUtm@@ABQB_J@Z 1005b1a3 f i libucrt:localtime.obj
 0001:0005a1bb       ??$gmtime_s@ABQAUtm@@PAJ@?$__crt_integer_traits@J@@SAHABQAUtm@@$$QAPAJ@Z 1005b1bb f i libucrt:localtime.obj
 0001:0005a1d3       ??$gmtime_s@ABQAUtm@@PA_J@?$__crt_integer_traits@_J@@SAHABQAUtm@@$$QAPA_J@Z 1005b1d3 f i libucrt:localtime.obj
 0001:0005a1eb       ??$localtime_s@ABQAUtm@@ABQBJ@?$__crt_integer_traits@J@@SAHABQAUtm@@ABQBJ@Z 1005b1eb f i libucrt:localtime.obj
 0001:0005a204       ??$localtime_s@ABQAUtm@@ABQB_J@?$__crt_integer_traits@_J@@SAHABQAUtm@@ABQB_J@Z 1005b204 f i libucrt:localtime.obj
 0001:0005a21d       __invoke_watson_if_error   1005b21d f i libucrt:localtime.obj
 0001:0005a23f       __localtime32              1005b23f f   libucrt:localtime.obj
 0001:0005a266       __localtime32_s            1005b266 f   libucrt:localtime.obj
 0001:0005a271       __localtime64              1005b271 f   libucrt:localtime.obj
 0001:0005a298       __localtime64_s            1005b298 f   libucrt:localtime.obj
 0001:0005a2a3       ??$?R_W@__crt_internal_free_policy@@QBEXQB_W@Z 1005b2a3 f i libucrt:strftime.obj
 0001:0005a42e       ??$__acrt_mbs_to_wcs_cp@U__crt_win32_buffer_internal_dynamic_resizing@@@@YAHQBDAAV?$__crt_win32_buffer@_WU__crt_win32_buffer_internal_dynamic_resizing@@@@I@Z 1005b42e f i libucrt:strftime.obj
 0001:0005a44b       ??$__acrt_wcs_to_mbs_cp@U__crt_win32_buffer_no_resizing@@@@YAHQB_WAAV?$__crt_win32_buffer@DU__crt_win32_buffer_no_resizing@@@@I@Z 1005b44b f i libucrt:strftime.obj
 0001:0005a468       ??0?$__crt_unique_heap_ptr@_WU__crt_internal_free_policy@@@@QAE@QA_W@Z 1005b468 f i libucrt:strftime.obj
 0001:0005a478       ??0?$__crt_win32_buffer@DU__crt_win32_buffer_no_resizing@@@@QAE@QADI@Z 1005b478 f i libucrt:strftime.obj
 0001:0005a49c       ??0?$__crt_win32_buffer@_WU__crt_win32_buffer_internal_dynamic_resizing@@@@QAE@XZ 1005b49c f i libucrt:strftime.obj
 0001:0005a4b2       ??1?$__crt_unique_heap_ptr@_WU__crt_internal_free_policy@@@@QAE@XZ 1005b4b2 f i libucrt:strftime.obj
 0001:0005a4c4       ??1?$__crt_win32_buffer@DU__crt_win32_buffer_no_resizing@@@@QAE@XZ 1005b4c4 f i libucrt:strftime.obj
 0001:0005a4cf       ??1?$__crt_win32_buffer@_WU__crt_win32_buffer_internal_dynamic_resizing@@@@QAE@XZ 1005b4cf f i libucrt:strftime.obj
 0001:0005a519       ?_deallocate@?$__crt_win32_buffer@DU__crt_win32_buffer_no_resizing@@@@AAEXXZ 1005b519 f i libucrt:strftime.obj
 0001:0005a524       ?_deallocate@?$__crt_win32_buffer@_WU__crt_win32_buffer_internal_dynamic_resizing@@@@AAEXXZ 1005b524 f i libucrt:strftime.obj
 0001:0005a53e       ?allocate@?$__crt_win32_buffer@DU__crt_win32_buffer_no_resizing@@@@QAEHI@Z 1005b53e f i libucrt:strftime.obj
 0001:0005a565       ?allocate@?$__crt_win32_buffer@_WU__crt_win32_buffer_internal_dynamic_resizing@@@@QAEHI@Z 1005b565 f i libucrt:strftime.obj
 0001:0005a5a4       ?allocate@__crt_win32_buffer_internal_dynamic_resizing@@SAHQAPAXIABV__crt_win32_buffer_empty_debug_info@@@Z 1005b5a4 f i libucrt:strftime.obj
 0001:0005a5c3       ?allocate@__crt_win32_buffer_no_resizing@@SAHQAPAXIABV__crt_win32_buffer_empty_debug_info@@@Z 1005b5c3 f i libucrt:strftime.obj
 0001:0005a5d0       ?capacity@?$__crt_win32_buffer@DU__crt_win32_buffer_no_resizing@@@@QBEIXZ 1005b5d0 f i libucrt:strftime.obj
 0001:0005a5d4       ?capacity@?$__crt_win32_buffer@_WU__crt_win32_buffer_internal_dynamic_resizing@@@@QBEIXZ 1005b5d4 f i libucrt:strftime.obj
 0001:0005a5d8       ?data@?$__crt_win32_buffer@DU__crt_win32_buffer_no_resizing@@@@QAEPADXZ 1005b5d8 f i libucrt:strftime.obj
 0001:0005a5dc       ?data@?$__crt_win32_buffer@_WU__crt_win32_buffer_internal_dynamic_resizing@@@@QAEPA_WXZ 1005b5dc f i libucrt:strftime.obj
 0001:0005a5e0       ?deallocate@__crt_win32_buffer_internal_dynamic_resizing@@SAXQAXABV__crt_win32_buffer_empty_debug_info@@@Z 1005b5e0 f i libucrt:strftime.obj
 0001:0005a5f0       ?deallocate@__crt_win32_buffer_no_resizing@@SAXQAXABV__crt_win32_buffer_empty_debug_info@@@Z 1005b5f0 f i libucrt:strftime.obj
 0001:0005a5f3       ?debug_info@?$__crt_win32_buffer@DU__crt_win32_buffer_no_resizing@@@@QBEABV__crt_win32_buffer_empty_debug_info@@XZ 1005b5f3 f i libucrt:strftime.obj
 0001:0005a5f6       ?debug_info@?$__crt_win32_buffer@_WU__crt_win32_buffer_internal_dynamic_resizing@@@@QBEABV__crt_win32_buffer_empty_debug_info@@XZ 1005b5f6 f i libucrt:strftime.obj
 0001:0005a5f9       ?detach@?$__crt_unique_heap_ptr@DU__crt_internal_free_policy@@@@QAEPADXZ 1005b5f9 f i libucrt:strftime.obj
 0001:0005a5ff       ?get@?$__crt_unique_heap_ptr@_WU__crt_internal_free_policy@@@@QBEPA_WXZ 1005b5ff f i libucrt:strftime.obj
 0001:0005a602       ?release@?$__crt_unique_heap_ptr@_WU__crt_internal_free_policy@@@@QAEXXZ 1005b602 f i libucrt:strftime.obj
 0001:0005a614       ?set_to_nullptr@?$__crt_win32_buffer@DU__crt_win32_buffer_no_resizing@@@@QAEXXZ 1005b614 f i libucrt:strftime.obj
 0001:0005a628       ?set_to_nullptr@?$__crt_win32_buffer@_WU__crt_win32_buffer_internal_dynamic_resizing@@@@QAEXXZ 1005b628 f i libucrt:strftime.obj
 0001:0005a63f       ?size@?$__crt_win32_buffer@DU__crt_win32_buffer_no_resizing@@@@QAEXI@Z 1005b63f f i libucrt:strftime.obj
 0001:0005a64e       ?size@?$__crt_win32_buffer@DU__crt_win32_buffer_no_resizing@@@@QBEIXZ 1005b64e f i libucrt:strftime.obj
 0001:0005a652       ?size@?$__crt_win32_buffer@_WU__crt_win32_buffer_internal_dynamic_resizing@@@@QAEXI@Z 1005b652 f i libucrt:strftime.obj
 0001:0005a661       __Getdays                  1005b661 f   libucrt:strftime.obj
 0001:0005a66a       __Getdays_l                1005b66a f   libucrt:strftime.obj
 0001:0005a770       __Getmonths                1005b770 f   libucrt:strftime.obj
 0001:0005a779       __Getmonths_l              1005b779 f   libucrt:strftime.obj
 0001:0005a88d       __Gettnames                1005b88d f   libucrt:strftime.obj
 0001:0005a892       __Strftime                 1005b892 f   libucrt:strftime.obj
 0001:0005a8b2       __Strftime_l               1005b8b2 f   libucrt:strftime.obj
 0001:0005a9af       __strftime_l               1005b9af f   libucrt:strftime.obj
 0001:0005a9cf       _strftime                  1005b9cf f   libucrt:strftime.obj
 0001:0005acdd       __time32                   1005bcdd f   libucrt:time.obj
 0001:0005ad36       __time64                   1005bd36 f   libucrt:time.obj
 0001:0005ad94       __timespec32_get           1005bd94 f   libucrt:time.obj
 0001:0005ad9f       __timespec64_get           1005bd9f f   libucrt:time.obj
 0001:0005adaa       ___acrt_errno_from_os_error 1005bdaa f   libucrt:errno.obj
 0001:0005aded       ___acrt_errno_map_os_error 1005bded f   libucrt:errno.obj
 0001:0005ae10       ___doserrno                1005be10 f   libucrt:errno.obj
 0001:0005ae23       __errno                    1005be23 f   libucrt:errno.obj
 0001:0005ae36       __get_doserrno             1005be36 f   libucrt:errno.obj
 0001:0005ae5b       __get_errno                1005be5b f   libucrt:errno.obj
 0001:0005ae80       __set_doserrno             1005be80 f   libucrt:errno.obj
 0001:0005aea1       __set_errno                1005bea1 f   libucrt:errno.obj
 0001:0005aec2       ??$is_overflow_condition@K@__crt_strtox@@YA_NIK@Z 1005bec2 f i libucrt:atox.obj
 0001:0005aef3       ??$is_overflow_condition@_K@__crt_strtox@@YA_NI_K@Z 1005bef3 f i libucrt:atox.obj
 0001:0005af34       ??$make_c_string_character_source@D$$T@__crt_strtox@@YA?AV?$c_string_character_source@D@0@QBD$$T@Z 1005bf34 f i libucrt:atox.obj
 0001:0005af4f       ??$make_c_string_character_source@_W$$T@__crt_strtox@@YA?AV?$c_string_character_source@_W@0@QB_W$$T@Z 1005bf4f f i libucrt:atox.obj
 0001:0005af6a       ??$parse_integer@KV?$c_string_character_source@D@__crt_strtox@@@__crt_strtox@@YAKQAU__crt_locale_pointers@@V?$c_string_character_source@D@0@H_N@Z 1005bf6a f i libucrt:atox.obj
 0001:0005b18d       ??$parse_integer@KV?$c_string_character_source@_W@__crt_strtox@@@__crt_strtox@@YAKQAU__crt_locale_pointers@@V?$c_string_character_source@_W@0@H_N@Z 1005c18d f i libucrt:atox.obj
 0001:0005b795       ??$parse_integer@_KV?$c_string_character_source@D@__crt_strtox@@@__crt_strtox@@YA_KQAU__crt_locale_pointers@@V?$c_string_character_source@D@0@H_N@Z 1005c795 f i libucrt:atox.obj
 0001:0005ba3b       ??$parse_integer@_KV?$c_string_character_source@_W@__crt_strtox@@@__crt_strtox@@YA_KQAU__crt_locale_pointers@@V?$c_string_character_source@_W@0@H_N@Z 1005ca3b f i libucrt:atox.obj
 0001:0005c10c       ??$parse_integer_from_string@JD$$T@__crt_strtox@@YAJQBD$$THQAU__crt_locale_pointers@@@Z 1005d10c f i libucrt:atox.obj
 0001:0005c137       ??$parse_integer_from_string@J_W$$T@__crt_strtox@@YAJQB_W$$THQAU__crt_locale_pointers@@@Z 1005d137 f i libucrt:atox.obj
 0001:0005c162       ??$parse_integer_from_string@_JD$$T@__crt_strtox@@YA_JQBD$$THQAU__crt_locale_pointers@@@Z 1005d162 f i libucrt:atox.obj
 0001:0005c18d       ??$parse_integer_from_string@_J_W$$T@__crt_strtox@@YA_JQB_W$$THQAU__crt_locale_pointers@@@Z 1005d18d f i libucrt:atox.obj
 0001:0005c1b8       ??0?$c_string_character_source@D@__crt_strtox@@QAE@QBDQAPBD@Z 1005d1b8 f i libucrt:atox.obj
 0001:0005c1d4       ??0?$c_string_character_source@_W@__crt_strtox@@QAE@QB_WQAPB_W@Z 1005d1d4 f i libucrt:atox.obj
 0001:0005c1f0       ??1?$c_string_character_source@D@__crt_strtox@@QAE@XZ 1005d1f0 f i libucrt:atox.obj
 0001:0005c1fc       ??1?$c_string_character_source@_W@__crt_strtox@@QAE@XZ 1005d1fc f i libucrt:atox.obj
 0001:0005c208       ?get@?$c_string_character_source@D@__crt_strtox@@QAEDXZ 1005d208 f i libucrt:atox.obj
 0001:0005c210       ?get@?$c_string_character_source@_W@__crt_strtox@@QAE_WXZ 1005d210 f i libucrt:atox.obj
 0001:0005c21b       ?is_space@__crt_strtox@@YA_NDQAU__crt_locale_pointers@@@Z 1005d21b f i libucrt:atox.obj
 0001:0005c239       ?is_space@__crt_strtox@@YA_N_WPAU__crt_locale_pointers@@@Z 1005d239 f i libucrt:atox.obj
 0001:0005c251       ?maximum_signed_value@__crt_strtox@@YAJK@Z 1005d251 f i libucrt:atox.obj
 0001:0005c257       ?maximum_signed_value@__crt_strtox@@YA_J_K@Z 1005d257 f i libucrt:atox.obj
 0001:0005c260       ?minimum_signed_value@__crt_strtox@@YAJK@Z 1005d260 f i libucrt:atox.obj
 0001:0005c266       ?minimum_signed_value@__crt_strtox@@YA_J_K@Z 1005d266 f i libucrt:atox.obj
 0001:0005c26e       ?parse_digit@__crt_strtox@@YAID@Z 1005d26e f i libucrt:atox.obj
 0001:0005c2a8       ?parse_digit@__crt_strtox@@YAI_W@Z 1005d2a8 f i libucrt:atox.obj
 0001:0005c487       ?restore_state@?$c_string_character_source@D@__crt_strtox@@QAE_NQBD@Z 1005d487 f i libucrt:atox.obj
 0001:0005c497       ?restore_state@?$c_string_character_source@_W@__crt_strtox@@QAE_NQB_W@Z 1005d497 f i libucrt:atox.obj
 0001:0005c4a7       ?save_state@?$c_string_character_source@D@__crt_strtox@@QBEPBDXZ 1005d4a7 f i libucrt:atox.obj
 0001:0005c4aa       ?save_state@?$c_string_character_source@_W@__crt_strtox@@QBEPB_WXZ 1005d4aa f i libucrt:atox.obj
 0001:0005c4ad       ?unget@?$c_string_character_source@D@__crt_strtox@@QAEXD@Z 1005d4ad f i libucrt:atox.obj
 0001:0005c4d6       ?unget@?$c_string_character_source@_W@__crt_strtox@@QAEX_W@Z 1005d4d6 f i libucrt:atox.obj
 0001:0005c504       ?validate@?$c_string_character_source@D@__crt_strtox@@QBE_NXZ 1005d504 f i libucrt:atox.obj
 0001:0005c51f       ?validate@?$c_string_character_source@_W@__crt_strtox@@QBE_NXZ 1005d51f f i libucrt:atox.obj
 0001:0005c53a       ?wide_character_to_digit@__crt_strtox@@YAH_W@Z 1005d53a f i libucrt:atox.obj
 0001:0005c6db       ___acrt_get_locale_data_prefix 1005d6db f i libucrt:atox.obj
 0001:0005c6e7       ___ascii_iswalpha          1005d6e7 f i libucrt:atox.obj
 0001:0005c70a       ___ascii_toupper           1005d70a f i libucrt:atox.obj
 0001:0005c721       ___ascii_towupper          1005d721 f i libucrt:atox.obj
 0001:0005c738       __atoi64                   1005d738 f   libucrt:atox.obj
 0001:0005c75b       __atoi64_l                 1005d75b f   libucrt:atox.obj
 0001:0005c77f       __atoi_l                   1005d77f f   libucrt:atox.obj
 0001:0005c7a3       __atol_l                   1005d7a3 f   libucrt:atox.obj
 0001:0005c7c7       __atoll_l                  1005d7c7 f   libucrt:atox.obj
 0001:0005c7eb       __chvalidchk_l             1005d7eb f i libucrt:atox.obj
 0001:0005c813       __ischartype_l             1005d813 f i libucrt:atox.obj
 0001:0005c867       __wtoi                     1005d867 f   libucrt:atox.obj
 0001:0005c88a       __wtoi64                   1005d88a f   libucrt:atox.obj
 0001:0005c8ad       __wtoi64_l                 1005d8ad f   libucrt:atox.obj
 0001:0005c8d1       __wtoi_l                   1005d8d1 f   libucrt:atox.obj
 0001:0005c8f5       __wtol                     1005d8f5 f   libucrt:atox.obj
 0001:0005c918       __wtol_l                   1005d918 f   libucrt:atox.obj
 0001:0005c93c       __wtoll                    1005d93c f   libucrt:atox.obj
 0001:0005c95f       __wtoll_l                  1005d95f f   libucrt:atox.obj
 0001:0005c983       _atoi                      1005d983 f   libucrt:atox.obj
 0001:0005c9a6       _atol                      1005d9a6 f   libucrt:atox.obj
 0001:0005c9c9       _atoll                     1005d9c9 f   libucrt:atox.obj
 0001:0005ca55       _strcat_s                  1005da55 f   libucrt:strcat_s.obj
 0001:0005cac0       _strncmp                   1005dac0 f   libucrt:strncmp.obj
 0001:0005cca4       __strupr                   1005dca4 f   libucrt:strupr.obj
 0001:0005cd00       __strupr_l                 1005dd00 f   libucrt:strupr.obj
 0001:0005cd1a       __strupr_s                 1005dd1a f   libucrt:strupr.obj
 0001:0005cd31       __strupr_s_l               1005dd31 f   libucrt:strupr.obj
 0001:0005cd68       ??$make_c_string_character_source@DPAPAD@__crt_strtox@@YA?AV?$c_string_character_source@D@0@QBDQAPAD@Z 1005dd68 f i libucrt:strtox.obj
 0001:0005cd83       ??$make_c_string_character_source@_WPAPA_W@__crt_strtox@@YA?AV?$c_string_character_source@_W@0@QB_WQAPA_W@Z 1005dd83 f i libucrt:strtox.obj
 0001:0005cd9e       ??$parse_integer_from_string@JDPAPAD@__crt_strtox@@YAJQBDQAPADHQAU__crt_locale_pointers@@@Z 1005dd9e f i libucrt:strtox.obj
 0001:0005cdc9       ??$parse_integer_from_string@J_WPAPA_W@__crt_strtox@@YAJQB_WQAPA_WHQAU__crt_locale_pointers@@@Z 1005ddc9 f i libucrt:strtox.obj
 0001:0005cdf4       ??$parse_integer_from_string@KDPAPAD@__crt_strtox@@YAKQBDQAPADHQAU__crt_locale_pointers@@@Z 1005ddf4 f i libucrt:strtox.obj
 0001:0005ce1f       ??$parse_integer_from_string@K_WPAPA_W@__crt_strtox@@YAKQB_WQAPA_WHQAU__crt_locale_pointers@@@Z 1005de1f f i libucrt:strtox.obj
 0001:0005ce4a       ??$parse_integer_from_string@_JDPAPAD@__crt_strtox@@YA_JQBDQAPADHQAU__crt_locale_pointers@@@Z 1005de4a f i libucrt:strtox.obj
 0001:0005ce75       ??$parse_integer_from_string@_J_WPAPA_W@__crt_strtox@@YA_JQB_WQAPA_WHQAU__crt_locale_pointers@@@Z 1005de75 f i libucrt:strtox.obj
 0001:0005cea0       ??$parse_integer_from_string@_KDPAPAD@__crt_strtox@@YA_KQBDQAPADHQAU__crt_locale_pointers@@@Z 1005dea0 f i libucrt:strtox.obj
 0001:0005cecb       ??$parse_integer_from_string@_K_WPAPA_W@__crt_strtox@@YA_KQB_WQAPA_WHQAU__crt_locale_pointers@@@Z 1005decb f i libucrt:strtox.obj
 0001:0005cef6       __strtoi64                 1005def6 f   libucrt:strtox.obj
 0001:0005cf20       __strtoi64_l               1005df20 f   libucrt:strtox.obj
 0001:0005cf4b       __strtoimax_l              1005df4b f   libucrt:strtox.obj
 0001:0005cf76       __strtol_l                 1005df76 f   libucrt:strtox.obj
 0001:0005cfa1       __strtoll_l                1005dfa1 f   libucrt:strtox.obj
 0001:0005cfcc       __strtoui64                1005dfcc f   libucrt:strtox.obj
 0001:0005cff6       __strtoui64_l              1005dff6 f   libucrt:strtox.obj
 0001:0005d021       __strtoul_l                1005e021 f   libucrt:strtox.obj
 0001:0005d04c       __strtoull_l               1005e04c f   libucrt:strtox.obj
 0001:0005d077       __strtoumax_l              1005e077 f   libucrt:strtox.obj
 0001:0005d0a2       __wcstoi64                 1005e0a2 f   libucrt:strtox.obj
 0001:0005d0cc       __wcstoi64_l               1005e0cc f   libucrt:strtox.obj
 0001:0005d0f7       __wcstoimax_l              1005e0f7 f   libucrt:strtox.obj
 0001:0005d122       __wcstol_l                 1005e122 f   libucrt:strtox.obj
 0001:0005d14d       __wcstoll_l                1005e14d f   libucrt:strtox.obj
 0001:0005d178       __wcstoui64                1005e178 f   libucrt:strtox.obj
 0001:0005d1a2       __wcstoui64_l              1005e1a2 f   libucrt:strtox.obj
 0001:0005d1cd       __wcstoul_l                1005e1cd f   libucrt:strtox.obj
 0001:0005d1f8       __wcstoull_l               1005e1f8 f   libucrt:strtox.obj
 0001:0005d223       __wcstoumax_l              1005e223 f   libucrt:strtox.obj
 0001:0005d24e       _strtoimax                 1005e24e f   libucrt:strtox.obj
 0001:0005d278       _strtol                    1005e278 f   libucrt:strtox.obj
 0001:0005d2a2       _strtoll                   1005e2a2 f   libucrt:strtox.obj
 0001:0005d2cc       _strtoul                   1005e2cc f   libucrt:strtox.obj
 0001:0005d2f6       _strtoull                  1005e2f6 f   libucrt:strtox.obj
 0001:0005d320       _strtoumax                 1005e320 f   libucrt:strtox.obj
 0001:0005d34a       _wcstoimax                 1005e34a f   libucrt:strtox.obj
 0001:0005d374       _wcstol                    1005e374 f   libucrt:strtox.obj
 0001:0005d39e       _wcstoll                   1005e39e f   libucrt:strtox.obj
 0001:0005d3c8       _wcstoul                   1005e3c8 f   libucrt:strtox.obj
 0001:0005d3f2       _wcstoull                  1005e3f2 f   libucrt:strtox.obj
 0001:0005d41c       _wcstoumax                 1005e41c f   libucrt:strtox.obj
 0001:0005de5b       ??$tcsncpy_s@AAPADIAAPBDABI@?$__crt_char_traits@D@@SAHAAPAD$$QAIAAPBDABI@Z 1005ee5b f i libucrt:splitpath.obj
 0001:0005de7e       ??$tcsncpy_s@AAPADIAAPBDH@?$__crt_char_traits@D@@SAHAAPAD$$QAIAAPBD$$QAH@Z 1005ee7e f i libucrt:splitpath.obj
 0001:0005dea1       ??$tcsncpy_s@AAPA_WIAAPB_WABI@?$__crt_char_traits@_W@@SAHAAPA_W$$QAIAAPB_WABI@Z 1005eea1 f i libucrt:splitpath.obj
 0001:0005dec4       ??$tcsncpy_s@AAPA_WIAAPB_WH@?$__crt_char_traits@_W@@SAHAAPA_W$$QAIAAPB_W$$QAH@Z 1005eec4 f i libucrt:splitpath.obj
 0001:0005df81       __splitpath                1005ef81 f   libucrt:splitpath.obj
 0001:0005dfea       __splitpath_s              1005efea f   libucrt:splitpath.obj
 0001:0005e041       __wsplitpath               1005f041 f   libucrt:splitpath.obj
 0001:0005e0aa       __wsplitpath_s             1005f0aa f   libucrt:splitpath.obj
 0001:0005e8fc       ??1?$__crt_simd_cleanup_guard@$00@@QAE@XZ 1005f8fc f i libucrt:strnlen.obj
 0001:0005e900       ??1?$__crt_simd_cleanup_guard@$0A@@@QAE@XZ 1005f900 f i libucrt:strnlen.obj
 0001:0005e903       ?compare_equals@?$__crt_simd_traits@$00E@@SA?AT__m256i@@T2@0@Z 1005f903 f i libucrt:strnlen.obj
 0001:0005e908       ?compare_equals@?$__crt_simd_traits@$00G@@SA?AT__m256i@@T2@0@Z 1005f908 f i libucrt:strnlen.obj
 0001:0005e90d       ?compare_equals@?$__crt_simd_traits@$0A@E@@SA?AT__m128i@@T2@0@Z 1005f90d f i libucrt:strnlen.obj
 0001:0005e912       ?compare_equals@?$__crt_simd_traits@$0A@G@@SA?AT__m128i@@T2@0@Z 1005f912 f i libucrt:strnlen.obj
 0001:0005e917       ?compute_byte_mask@?$__crt_simd_pack_traits@$00@@SAHT__m256i@@@Z 1005f917 f i libucrt:strnlen.obj
 0001:0005e91c       ?compute_byte_mask@?$__crt_simd_pack_traits@$0A@@@SAHT__m128i@@@Z 1005f91c f i libucrt:strnlen.obj
 0001:0005e921       ?get_zero_pack@?$__crt_simd_pack_traits@$00@@SA?AT__m256i@@XZ 1005f921 f i libucrt:strnlen.obj
 0001:0005e926       ?get_zero_pack@?$__crt_simd_pack_traits@$0A@@@SA?AT__m128i@@XZ 1005f926 f i libucrt:strnlen.obj
 0001:0005e92a       _strnlen                   1005f92a f   libucrt:strnlen.obj
 0001:0005ea4c       _wcslen                    1005fa4c f   libucrt:strnlen.obj
 0001:0005eb74       _wcsnlen                   1005fb74 f   libucrt:strnlen.obj
 0001:0005ed24       __abs64                    1005fd24 f   libucrt:abs.obj
 0001:0005ed3e       _abs                       1005fd3e f   libucrt:abs.obj
 0001:0005ed50       _cos                       1005fd50 f   libucrt:cos.obj
 0001:0005eda0       _sin                       1005fda0 f   libucrt:sin.obj
 0001:0005ede3       ??$?B$$A6AHI@Z@__crt_fast_encoded_nullptr_t@@QBEP6AHI@ZXZ 1005fde3 f i libucrt:new_handler.obj
 0001:0005ede9       ??$__crt_fast_decode_pointer@P6AHI@Z@@YAP6AHI@ZQ6AHI@Z@Z 1005fde9 f i libucrt:new_handler.obj
 0001:0005edff       ??$__crt_fast_encode_pointer@P6AHI@Z@@YAP6AHI@ZQ6AHI@Z@Z 1005fdff f i libucrt:new_handler.obj
 0001:0005ee1e       ?__crt_fast_encode_pointer@@YA?AU__crt_fast_encoded_nullptr_t@@$$T@Z 1005fe1e f i libucrt:new_handler.obj
 0001:0005ee29       ?_set_new_handler@@YAP6AHI@ZH@Z 1005fe29 f   libucrt:new_handler.obj
 0001:0005ee36       ?initialize@?$dual_state_global@P6AHI@Z@__crt_state_management@@QAEXQ6AHI@Z@Z 1005fe36 f i libucrt:new_handler.obj
 0001:0005ee5c       ?value@?$dual_state_global@P6AHI@Z@__crt_state_management@@QAEAAP6AHI@ZXZ 1005fe5c f i libucrt:new_handler.obj
 0001:0005ee5f       ___acrt_initialize_new_handler 1005fe5f f   libucrt:new_handler.obj
 0001:0005ee6e       __callnewh                 1005fe6e f   libucrt:new_handler.obj
 0001:0005ee9b       __query_new_handler        1005fe9b f   libucrt:new_handler.obj
 0001:0005eef7       __set_new_handler          1005fef7 f   libucrt:new_handler.obj
 0001:0005ef61       ___ascii_stricmp           1005ff61 f   libucrt:stricmp.obj
 0001:0005ef9a       ___ascii_tolower           1005ff9a f i libucrt:stricmp.obj
 0001:0005efb1       __strcmpi                  1005ffb1 f   libucrt:stricmp.obj
 0001:0005efb1       __stricmp                  1005ffb1 f   libucrt:stricmp.obj
 0001:0005effa       __stricmp_l                1005fffa f   libucrt:stricmp.obj
 0001:0005f088       __errcode                  10060088 f   libucrt:fpexcept.obj
 0001:0005f0bc       __except1                  100600bc f   libucrt:fpexcept.obj
 0001:0005f18a       __except2                  1006018a f   libucrt:fpexcept.obj
 0001:0005f292       __handle_exc               10060292 f   libucrt:fpexcept.obj
 0001:0005f47d       __handle_qnan2             1006047d f   libucrt:fpexcept.obj
 0001:0005f48a       __raise_exc                1006048a f   libucrt:fpexcept.obj
 0001:0005f4ad       __raise_exc_ex             100604ad f   libucrt:fpexcept.obj
 0001:0005f7a3       __raise_excf               100607a3 f   libucrt:fpexcept.obj
 0001:0005f7c6       __set_errno_from_matherr   100607c6 f   libucrt:fpexcept.obj
 0001:0005f7f5       __umatherr                 100607f5 f   libucrt:fpexcept.obj
 0001:0005f8ab       __get_terminate            100608ab f   libucrt:terminate.obj
 0001:0005f8bd       _set_terminate             100608bd f   libucrt:terminate.obj
 0001:0005f8dd       _terminate                 100608dd f   libucrt:terminate.obj
 0001:0005f919       __initterm                 10060919 f   libucrt:initterm.obj
 0001:0005f95e       __initterm_e               1006095e f   libucrt:initterm.obj
 0001:0005f9b0       __seh_filter_dll           100609b0 f   libucrt:exception_filter.obj
 0001:0005f9d0       __seh_filter_exe           100609d0 f   libucrt:exception_filter.obj
 0001:0005fb28       ??$?B$$A6GXPAXK0@Z@__crt_fast_encoded_nullptr_t@@QBEP6GXPAXK0@ZXZ 10060b28 f i libucrt:exit.obj
 0001:0005fba1       ??$__crt_fast_decode_pointer@P6GXPAXK0@Z@@YAP6GXPAXK0@ZQ6GX0K0@Z@Z 10060ba1 f i libucrt:exit.obj
 0001:0005fbb7       ??$__crt_fast_encode_pointer@P6GXPAXK0@Z@@YAP6GXPAXK0@ZQ6GX0K0@Z@Z 10060bb7 f i libucrt:exit.obj
 0001:0005fbd6       ??$__crt_get_proc_address@P6GXI@Z@@YAP6GXI@ZQAUHINSTANCE__@@QBD@Z 10060bd6 f i libucrt:exit.obj
 0001:0005fc29       ??0?$__crt_unique_handle_t@U__crt_hmodule_traits@@@@QAE@QAUHINSTANCE__@@@Z 10060c29 f i libucrt:exit.obj
 0001:0005fc39       ??1?$__crt_unique_handle_t@U__crt_hmodule_traits@@@@QAE@XZ 10060c39 f i libucrt:exit.obj
 0001:0005fd3c       ?__acrt_select_exit_lock@@YA?AW4__acrt_lock_id@@XZ 10060d3c f i libucrt:exit.obj
 0001:0005fd53       ?close@?$__crt_unique_handle_t@U__crt_hmodule_traits@@@@QAEXXZ 10060d53 f i libucrt:exit.obj
 0001:0005fd6a       ?close@__crt_hmodule_traits@@SA_NPAUHINSTANCE__@@@Z 10060d6a f i libucrt:exit.obj
 0001:0005fe25       ?get@?$__crt_unique_handle_t@U__crt_hmodule_traits@@@@QBEPAUHINSTANCE__@@XZ 10060e25 f i libucrt:exit.obj
 0001:0005fe28       ?get_address_of@?$__crt_unique_handle_t@U__crt_hmodule_traits@@@@QAEPAPAUHINSTANCE__@@XZ 10060e28 f i libucrt:exit.obj
 0001:0005fe2b       ?get_invalid_value@__crt_hmodule_traits@@SAPAUHINSTANCE__@@XZ 10060e2b f i libucrt:exit.obj
 0001:0005fee6       __Exit                     10060ee6 f   libucrt:exit.obj
 0001:0005fefc       ___acrt_initialize_thread_local_exit_callback 10060efc f   libucrt:exit.obj
 0001:0005ff0b       __c_exit                   10060f0b f   libucrt:exit.obj
 0001:0005ff1a       __cexit                    10060f1a f   libucrt:exit.obj
 0001:0005ff29       __exit                     10060f29 f   libucrt:exit.obj
 0001:0005ff3f       __is_c_termination_complete 10060f3f f   libucrt:exit.obj
 0001:0005ff46       __register_thread_local_exe_atexit_callback 10060f46 f   libucrt:exit.obj
 0001:0005ff6c       _exit                      10060f6c f   libucrt:exit.obj
 0001:0005ff82       _quick_exit                10060f82 f   libucrt:exit.obj
 0001:0005ff98       ??$?RE@__crt_internal_free_policy@@QBEXQBE@Z 10060f98 f i libucrt:argv_parsing.obj
 0001:0005ffaa       ??$?RPAD@__crt_internal_free_policy@@QBEXQBQAD@Z 10060faa f i libucrt:argv_parsing.obj
 0001:0005ffbc       ??$?RPA_W@__crt_internal_free_policy@@QBEXQBQA_W@Z 10060fbc f i libucrt:argv_parsing.obj
 0001:00060233       ??$get_module_file_name@$$TAAY0BAF@DH@?$__crt_char_traits@D@@SAK$$QA$$TAAY0BAF@D$$QAH@Z 10061233 f i libucrt:argv_parsing.obj
 0001:0006024f       ??$get_module_file_name@$$TAAY0BAF@_WH@?$__crt_char_traits@_W@@SAK$$QA$$TAAY0BAF@_W$$QAH@Z 1006124f f i libucrt:argv_parsing.obj
 0001:00060571       ??$set_program_name@PAD@?$__crt_char_traits@D@@SAX$$QAPAD@Z 10061571 f i libucrt:argv_parsing.obj
 0001:00060582       ??$set_program_name@PA_W@?$__crt_char_traits@_W@@SAX$$QAPA_W@Z 10061582 f i libucrt:argv_parsing.obj
 0001:000605b3       ??0?$__crt_unique_heap_ptr@EU__crt_internal_free_policy@@@@QAE@QAE@Z 100615b3 f i libucrt:argv_parsing.obj
 0001:000605c3       ??0?$__crt_unique_heap_ptr@PADU__crt_internal_free_policy@@@@QAE@QAPAD@Z 100615c3 f i libucrt:argv_parsing.obj
 0001:000605d3       ??0?$__crt_unique_heap_ptr@PA_WU__crt_internal_free_policy@@@@QAE@QAPA_W@Z 100615d3 f i libucrt:argv_parsing.obj
 0001:000605e3       ??1?$__crt_unique_heap_ptr@EU__crt_internal_free_policy@@@@QAE@XZ 100615e3 f i libucrt:argv_parsing.obj
 0001:000605f5       ??1?$__crt_unique_heap_ptr@PADU__crt_internal_free_policy@@@@QAE@XZ 100615f5 f i libucrt:argv_parsing.obj
 0001:00060607       ??1?$__crt_unique_heap_ptr@PA_WU__crt_internal_free_policy@@@@QAE@XZ 10061607 f i libucrt:argv_parsing.obj
 0001:00060619       ??B?$__crt_unique_heap_ptr@EU__crt_internal_free_policy@@@@QBE_NXZ 10061619 f i libucrt:argv_parsing.obj
 0001:0006064c       ?detach@?$__crt_unique_heap_ptr@EU__crt_internal_free_policy@@@@QAEPAEXZ 1006164c f i libucrt:argv_parsing.obj
 0001:00060652       ?detach@?$__crt_unique_heap_ptr@PADU__crt_internal_free_policy@@@@QAEPAPADXZ 10061652 f i libucrt:argv_parsing.obj
 0001:00060658       ?detach@?$__crt_unique_heap_ptr@PA_WU__crt_internal_free_policy@@@@QAEPAPA_WXZ 10061658 f i libucrt:argv_parsing.obj
 0001:0006067c       ?get@?$__crt_unique_heap_ptr@EU__crt_internal_free_policy@@@@QBEPAEXZ 1006167c f i libucrt:argv_parsing.obj
 0001:0006067f       ?get@?$__crt_unique_heap_ptr@PADU__crt_internal_free_policy@@@@QBEPAPADXZ 1006167f f i libucrt:argv_parsing.obj
 0001:00060682       ?get@?$__crt_unique_heap_ptr@PA_WU__crt_internal_free_policy@@@@QBEPAPA_WXZ 10061682 f i libucrt:argv_parsing.obj
 0001:00060685       ?get_address_of@?$__crt_unique_heap_ptr@PADU__crt_internal_free_policy@@@@QAEPAPAPADXZ 10061685 f i libucrt:argv_parsing.obj
 0001:00060688       ?get_address_of@?$__crt_unique_heap_ptr@PA_WU__crt_internal_free_policy@@@@QAEPAPAPA_WXZ 10061688 f i libucrt:argv_parsing.obj
 0001:000606a3       ?is_valid@?$__crt_unique_heap_ptr@EU__crt_internal_free_policy@@@@QBE_NXZ 100616a3 f i libucrt:argv_parsing.obj
 0001:000606aa       ?release@?$__crt_unique_heap_ptr@EU__crt_internal_free_policy@@@@QAEXXZ 100616aa f i libucrt:argv_parsing.obj
 0001:000606bc       ?release@?$__crt_unique_heap_ptr@PADU__crt_internal_free_policy@@@@QAEXXZ 100616bc f i libucrt:argv_parsing.obj
 0001:000606ce       ?release@?$__crt_unique_heap_ptr@PA_WU__crt_internal_free_policy@@@@QAEXXZ 100616ce f i libucrt:argv_parsing.obj
 0001:000606fa       ___acrt_allocate_buffer_for_argv 100616fa f   libucrt:argv_parsing.obj
 0001:00060749       __configure_narrow_argv    10061749 f   libucrt:argv_parsing.obj
 0001:00060754       __configure_wide_argv      10061754 f   libucrt:argv_parsing.obj
 0001:0006075f       __set_pgmptr               1006175f f i libucrt:argv_parsing.obj
 0001:0006076e       __set_wpgmptr              1006176e f i libucrt:argv_parsing.obj
 0001:00060b56       ??$get_environment_from_os@$$V@?$__crt_char_traits@D@@SAPADXZ 10061b56 f i libucrt:environment_initialization.obj
 0001:00060b5b       ??$get_environment_from_os@$$V@?$__crt_char_traits@_W@@SAPA_WXZ 10061b5b f i libucrt:environment_initialization.obj
 0001:00060c60       ??$set_variable_in_environment_nolock@PADH@?$__crt_char_traits@D@@SAH$$QAPAD$$QAH@Z 10061c60 f i libucrt:environment_initialization.obj
 0001:00060c78       ??$set_variable_in_environment_nolock@PA_WH@?$__crt_char_traits@_W@@SAH$$QAPA_W$$QAH@Z 10061c78 f i libucrt:environment_initialization.obj
 0001:00060c90       ??$tcscpy_s@PADABIAAPAD@?$__crt_char_traits@D@@SAH$$QAPADABIAAPAD@Z 10061c90 f i libucrt:environment_initialization.obj
 0001:00060cae       ??$tcscpy_s@PA_WABIAAPA_W@?$__crt_char_traits@_W@@SAH$$QAPA_WABIAAPA_W@Z 10061cae f i libucrt:environment_initialization.obj
 0001:00060ccc       ??$tcslen@AAPAD@?$__crt_char_traits@D@@SAIAAPAD@Z 10061ccc f i libucrt:environment_initialization.obj
 0001:00060ce4       ??$tcslen@AAPA_W@?$__crt_char_traits@_W@@SAIAAPA_W@Z 10061ce4 f i libucrt:environment_initialization.obj
 0001:00060d02       ??$uninitialize@A6AXAAPAPAD@Z@?$dual_state_global@PAPAD@__crt_state_management@@QAEXA6AXAAPAPAD@Z@Z 10061d02 f i libucrt:environment_initialization.obj
 0001:00060d2b       ??$uninitialize@A6AXAAPAPA_W@Z@?$dual_state_global@PAPA_W@__crt_state_management@@QAEXA6AXAAPAPA_W@Z@Z 10061d2b f i libucrt:environment_initialization.obj
 0001:00060d8a       ??B?$__crt_unique_heap_ptr@PADU__crt_internal_free_policy@@@@QBE_NXZ 10061d8a f i libucrt:environment_initialization.obj
 0001:00060d91       ??B?$__crt_unique_heap_ptr@PA_WU__crt_internal_free_policy@@@@QBE_NXZ 10061d91 f i libucrt:environment_initialization.obj
 0001:00060d98       ??B?$__crt_unique_heap_ptr@_WU__crt_internal_free_policy@@@@QBE_NXZ 10061d98 f i libucrt:environment_initialization.obj
 0001:00060d9f       ?__crt_compute_required_transform_buffer_count@@YAIIQBD@Z 10061d9f f i libucrt:environment_initialization.obj
 0001:00060dbb       ?__crt_compute_required_transform_buffer_count@@YAIIQB_W@Z 10061dbb f i libucrt:environment_initialization.obj
 0001:00060dd9       ?__crt_transform_string@@YAIIQBDQA_WI@Z 10061dd9 f i libucrt:environment_initialization.obj
 0001:00060df8       ?__crt_transform_string@@YAIIQB_WQADI@Z 10061df8 f i libucrt:environment_initialization.obj
 0001:00060e1a       ?detach@?$__crt_unique_heap_ptr@_WU__crt_internal_free_policy@@@@QAEPA_WXZ 10061e1a f i libucrt:environment_initialization.obj
 0001:00060e44       ?initialize@?$dual_state_global@PAPAD@__crt_state_management@@QAEXQAPAD@Z 10061e44 f i libucrt:environment_initialization.obj
 0001:00060e6a       ?initialize@?$dual_state_global@PAPA_W@__crt_state_management@@QAEXQAPA_W@Z 10061e6a f i libucrt:environment_initialization.obj
 0001:00060e90       ?is_valid@?$__crt_unique_heap_ptr@PADU__crt_internal_free_policy@@@@QBE_NXZ 10061e90 f i libucrt:environment_initialization.obj
 0001:00060e97       ?is_valid@?$__crt_unique_heap_ptr@PA_WU__crt_internal_free_policy@@@@QBE_NXZ 10061e97 f i libucrt:environment_initialization.obj
 0001:00060e9e       ?is_valid@?$__crt_unique_heap_ptr@_WU__crt_internal_free_policy@@@@QBE_NXZ 10061e9e f i libucrt:environment_initialization.obj
 0001:00060ead       ?value@?$dual_state_global@PAPAD@__crt_state_management@@QAEAAPAPADXZ 10061ead f i libucrt:environment_initialization.obj
 0001:00060eb0       ?value@?$dual_state_global@PAPA_W@__crt_state_management@@QAEAAPAPA_WXZ 10061eb0 f i libucrt:environment_initialization.obj
 0001:00060eb3       ___dcrt_get_or_create_narrow_environment_nolock 10061eb3 f   libucrt:environment_initialization.obj
 0001:00060eb8       ___dcrt_get_or_create_wide_environment_nolock 10061eb8 f   libucrt:environment_initialization.obj
 0001:00060ebd       ___dcrt_uninitialize_environments_nolock 10061ebd f   libucrt:environment_initialization.obj
 0001:00060ef4       ___p__environ              10061ef4 f   libucrt:environment_initialization.obj
 0001:00060efa       ___p__wenviron             10061efa f   libucrt:environment_initialization.obj
 0001:00060f00       __get_initial_narrow_environment 10061f00 f   libucrt:environment_initialization.obj
 0001:00060f14       __get_initial_wide_environment 10061f14 f   libucrt:environment_initialization.obj
 0001:00060f28       __initialize_narrow_environment 10061f28 f   libucrt:environment_initialization.obj
 0001:00060f2d       __initialize_wide_environment 10061f2d f   libucrt:environment_initialization.obj
 0001:00060f32       ??$?B$$A6AXXZ@__crt_fast_encoded_nullptr_t@@QBEP6AXXZXZ 10061f32 f i libucrt:onexit.obj
 0001:00060f38       ??$?BP6AXXZ@__crt_fast_encoded_nullptr_t@@QBEPAP6AXXZXZ 10061f38 f i libucrt:onexit.obj
 0001:00060f3e       ??$?RP6AXXZ@__crt_internal_free_policy@@QBEXQBQ6AXXZ@Z 10061f3e f i libucrt:onexit.obj
 0001:00061052       ??$__crt_fast_decode_pointer@P6AXXZ@@YAP6AXXZQ6AXXZ@Z 10062052 f i libucrt:onexit.obj
 0001:00061068       ??$__crt_fast_decode_pointer@PAP6AXXZ@@YAPAP6AXXZQAP6AXXZ@Z 10062068 f i libucrt:onexit.obj
 0001:0006107e       ??$__crt_fast_encode_pointer@P6AHXZ@@YAP6AHXZQ6AHXZ@Z 1006207e f i libucrt:onexit.obj
 0001:0006109d       ??$__crt_fast_encode_pointer@P6AXXZ@@YAP6AXXZQ6AXXZ@Z 1006209d f i libucrt:onexit.obj
 0001:000610bc       ??$__crt_fast_encode_pointer@PAP6AXXZ@@YAPAP6AXXZQAP6AXXZ@Z 100620bc f i libucrt:onexit.obj
 0001:00061149       ??0?$__crt_unique_heap_ptr@P6AXXZU__crt_internal_free_policy@@@@QAE@QAP6AXXZ@Z 10062149 f i libucrt:onexit.obj
 0001:00061159       ??1?$__crt_unique_heap_ptr@P6AXXZU__crt_internal_free_policy@@@@QAE@XZ 10062159 f i libucrt:onexit.obj
 0001:0006116b       ??1scoped_global_state_reset@__crt_state_management@@QAE@XZ 1006216b f i libucrt:onexit.obj
 0001:00061395       ?detach@?$__crt_unique_heap_ptr@P6AXXZU__crt_internal_free_policy@@@@QAEPAP6AXXZXZ 10062395 f i libucrt:onexit.obj
 0001:0006139b       ?release@?$__crt_unique_heap_ptr@P6AXXZU__crt_internal_free_policy@@@@QAEXXZ 1006239b f i libucrt:onexit.obj
 0001:000613ad       __crt_at_quick_exit        100623ad f   libucrt:onexit.obj
 0001:000613c3       __crt_atexit               100623c3 f   libucrt:onexit.obj
 0001:000613d9       __execute_onexit_table     100623d9 f   libucrt:onexit.obj
 0001:00061406       __initialize_onexit_table  10062406 f   libucrt:onexit.obj
 0001:0006142f       __register_onexit_function 1006242f f   libucrt:onexit.obj
 0001:0006153e       ??$?BX@__crt_fast_encoded_nullptr_t@@QBEPAXXZ 1006253e f i libucrt:initialization.obj
 0001:00061544       ??$__crt_fast_encode_pointer@PAX@@YAPAXQAX@Z 10062544 f i libucrt:initialization.obj
 0001:000615b5       ?__acrt_stdio_is_initialized@@YA_NXZ 100625b5 f i libucrt:initialization.obj
 0001:000615c0       ?initialize@?$dual_state_global@PAU__crt_locale_data@@@__crt_state_management@@QAEXQAU__crt_locale_data@@@Z 100625c0 f i libucrt:initialization.obj
 0001:000615e6       ___acrt_initialize         100625e6 f   libucrt:initialization.obj
 0001:000615f8       ___acrt_thread_attach      100625f8 f   libucrt:initialization.obj
 0001:00061603       ___acrt_thread_detach      10062603 f   libucrt:initialization.obj
 0001:0006160b       ___acrt_uninitialize       1006260b f   libucrt:initialization.obj
 0001:0006163b       ___acrt_uninitialize_critical 1006263b f   libucrt:initialization.obj
 0001:0006164d       __set_abort_behavior       1006264d f   libucrt:abort.obj
 0001:0006166e       _abort                     1006266e f   libucrt:abort.obj
 0001:000616b2       _calloc                    100626b2 f   libucrt:calloc.obj
 0001:000616bd       _wcsncmp                   100626bd f   libucrt:wcsncmp.obj
 0001:000616f7       __malloc_base              100626f7 f   libucrt:malloc_base.obj
 0001:00061745       ??$?RU__acrt_ptd@@@__crt_internal_free_policy@@QBEXQBU__acrt_ptd@@@Z 10062745 f i libucrt:per_thread_data.obj
 0001:00061a31       ??0?$__crt_unique_heap_ptr@U__acrt_ptd@@U__crt_internal_free_policy@@@@QAE@QAU__acrt_ptd@@@Z 10062a31 f i libucrt:per_thread_data.obj
 0001:00061a41       ??0__crt_scoped_get_last_error_reset@@QAE@XZ 10062a41 f i libucrt:per_thread_data.obj
 0001:00061a52       ??1?$__crt_unique_heap_ptr@U__acrt_ptd@@U__crt_internal_free_policy@@@@QAE@XZ 10062a52 f i libucrt:per_thread_data.obj
 0001:00061a64       ??1__crt_scoped_get_last_error_reset@@QAE@XZ 10062a64 f i libucrt:per_thread_data.obj
 0001:00061a6d       ??B?$__crt_unique_heap_ptr@U__acrt_ptd@@U__crt_internal_free_policy@@@@QBE_NXZ 10062a6d f i libucrt:per_thread_data.obj
 0001:00061bbb       ?dangerous_get_state_array@?$dual_state_global@PAU__crt_locale_data@@@__crt_state_management@@QAEPAPAU__crt_locale_data@@XZ 10062bbb f i libucrt:per_thread_data.obj
 0001:00061cb1       ?detach@?$__crt_unique_heap_ptr@U__acrt_ptd@@U__crt_internal_free_policy@@@@QAEPAU__acrt_ptd@@XZ 10062cb1 f i libucrt:per_thread_data.obj
 0001:00061cb7       ?get@?$__crt_unique_heap_ptr@U__acrt_ptd@@U__crt_internal_free_policy@@@@QBEPAU__acrt_ptd@@XZ 10062cb7 f i libucrt:per_thread_data.obj
 0001:00061cba       ?get_current_state_index@__crt_state_management@@YAIABV__crt_scoped_get_last_error_reset@@@Z 10062cba f i libucrt:per_thread_data.obj
 0001:00061def       ?is_valid@?$__crt_unique_heap_ptr@U__acrt_ptd@@U__crt_internal_free_policy@@@@QBE_NXZ 10062def f i libucrt:per_thread_data.obj
 0001:00061df6       ?release@?$__crt_unique_heap_ptr@U__acrt_ptd@@U__crt_internal_free_policy@@@@QAEXXZ 10062df6 f i libucrt:per_thread_data.obj
 0001:00061e6a       ?value@?$dual_state_global@PAU__crt_locale_data@@@__crt_state_management@@QAEAAPAU__crt_locale_data@@XZ 10062e6a f i libucrt:per_thread_data.obj
 0001:00061e6d       ___acrt_freeptd            10062e6d f   libucrt:per_thread_data.obj
 0001:00061e99       ___acrt_getptd             10062e99 f   libucrt:per_thread_data.obj
 0001:00061f56       ___acrt_getptd_head        10062f56 f   libucrt:per_thread_data.obj
 0001:00061ff2       ___acrt_getptd_noexit      10062ff2 f   libucrt:per_thread_data.obj
 0001:000620a7       ___acrt_initialize_ptd     100630a7 f   libucrt:per_thread_data.obj
 0001:000620d3       ___acrt_uninitialize_ptd   100630d3 f   libucrt:per_thread_data.obj
 0001:000620ed       ___threadhandle            100630ed f   libucrt:per_thread_data.obj
 0001:000620f3       ___threadid                100630f3 f   libucrt:per_thread_data.obj
 0001:000620ff       __free_base                100630ff f   libucrt:free_base.obj
 0001:00062140       __twoToTOS                 10063140 f   libucrt:common.obj
 0001:00062155       __load_CW                  10063155 f   libucrt:common.obj
 0001:0006216c       __convertTOStoQNaN         1006316c f   libucrt:common.obj
 0001:00062185       __fload_withFB             10063185 f   libucrt:common.obj
 0001:000621c8       __checkTOS_withFB          100631c8 f   libucrt:common.obj
 0001:000621de       __fast_exit                100631de f   libucrt:common.obj
 0001:000621eb       __math_exit                100631eb f   libucrt:common.obj
 0001:00062215       __check_overflow_exit      10063215 f   libucrt:common.obj
 0001:00062229       __check_range_exit         10063229 f   libucrt:common.obj
 0001:000622d0       __CIsqrt                   100632d0 f   libucrt:sqrt_impl.obj
 0001:000622e4       __sqrt_common              100632e4     libucrt:sqrt_impl.obj
 0001:00062381       __mbtowc_l                 10063381 f   libucrt:mbtowc.obj
 0001:000624c3       _mbtowc                    100634c3 f   libucrt:mbtowc.obj
 0001:000624dd       __wctomb_l                 100634dd f   libucrt:wctomb.obj
 0001:0006252e       __wctomb_s_l               1006352e f   libucrt:wctomb.obj
 0001:00062689       _wctomb                    10063689 f   libucrt:wctomb.obj
 0001:000626bb       _wctomb_s                  100636bb f   libucrt:wctomb.obj
 0001:000626d8       ?value@?$dual_state_global@PAU__crt_multibyte_data@@@__crt_state_management@@QAEAAPAU__crt_multibyte_data@@XZ 100636d8 f i libucrt:locale_update.obj
 0001:000626db       ___acrt_should_sync_with_global_locale 100636db f i libucrt:locale_update.obj
 0001:000626f7       ___acrt_update_locale_info 100636f7 f   libucrt:locale_update.obj
 0001:00062724       ___acrt_update_multibyte_info 10063724 f   libucrt:locale_update.obj
 0001:00062751       ?__acrt_fp_classify@@YA?AW4__acrt_fp_class@@ABN@Z 10063751 f i libucrt:cvt.obj
 0001:000627b3       ?__acrt_fp_is_negative@@YA_NABN@Z 100637b3 f i libucrt:cvt.obj
 0001:0006311d       ___acrt_fp_format          1006411d f   libucrt:cvt.obj
 0001:000632a9       __fputwc_nolock            100642a9 f   libucrt:fputwc.obj
 0001:000633d2       __fputwchar                100643d2 f   libucrt:fputwc.obj
 0001:000633ec       __putwc_nolock             100643ec f   libucrt:fputwc.obj
 0001:000633f7       _fputwc                    100643f7 f   libucrt:fputwc.obj
 0001:00063475       _putwc                     10064475 f   libucrt:fputwc.obj
 0001:00063480       _putwchar                  10064480 f   libucrt:fputwc.obj
 0001:0006348b       ?lowio_handle@__crt_stdio_stream@@QBEHXZ 1006448b f i libucrt:fileno.obj
 0001:00063492       __fileno                   10064492 f   libucrt:fileno.obj
 0001:000634b9       ??$?RPAU__crt_stdio_stream_data@@@__crt_internal_free_policy@@QBEXQBQAU__crt_stdio_stream_data@@@Z 100644b9 f i libucrt:_file.obj
 0001:000634cb       ??0?$__crt_unique_heap_ptr@PAU__crt_stdio_stream_data@@U__crt_internal_free_policy@@@@QAE@QAPAU__crt_stdio_stream_data@@@Z 100644cb f i libucrt:_file.obj
 0001:000634db       ??1?$__crt_unique_heap_ptr@PAU__crt_stdio_stream_data@@U__crt_internal_free_policy@@@@QAE@XZ 100644db f i libucrt:_file.obj
 0001:000634ed       ?detach@?$__crt_unique_heap_ptr@PAU__crt_stdio_stream_data@@U__crt_internal_free_policy@@@@QAEPAPAU__crt_stdio_stream_data@@XZ 100644ed f i libucrt:_file.obj
 0001:000634f3       ?release@?$__crt_unique_heap_ptr@PAU__crt_stdio_stream_data@@U__crt_internal_free_policy@@@@QAEXXZ 100644f3 f i libucrt:_file.obj
 0001:00063505       ___acrt_initialize_stdio   10064505 f   libucrt:_file.obj
 0001:000635cd       ___acrt_iob_func           100645cd f   libucrt:_file.obj
 0001:000635dd       ___acrt_uninitialize_stdio 100645dd f   libucrt:_file.obj
 0001:00063629       __get_stream_buffer_pointers 10064629 f   libucrt:_file.obj
 0001:0006366f       __lock_file                1006466f f   libucrt:_file.obj
 0001:00063683       __unlock_file              10064683 f   libucrt:_file.obj
 0001:00063697       __fputc_nolock             10064697 f   libucrt:fputc.obj
 0001:000636c0       __fputchar                 100646c0 f   libucrt:fputc.obj
 0001:000636da       __putc_nolock              100646da f   libucrt:fputc.obj
 0001:000636e5       _fputc                     100646e5 f   libucrt:fputc.obj
 0001:000637ef       _putc                      100647ef f   libucrt:fputc.obj
 0001:000637fa       _putchar                   100647fa f   libucrt:fputc.obj
 0001:00063805       __get_printf_count_output  10064805 f   libucrt:printf_count_output.obj
 0001:0006381a       __set_printf_count_output  1006481a f   libucrt:printf_count_output.obj
 0001:00063844       ?has_any_buffer@__crt_stdio_stream@@QBE_NXZ 10064844 f i libucrt:_sftbuf.obj
 0001:00063853       ?has_any_of@__crt_stdio_stream@@QBE_NJ@Z 10064853 f i libucrt:_sftbuf.obj
 0001:00063868       ?has_temporary_buffer@__crt_stdio_stream@@QBE_NXZ 10064868 f i libucrt:_sftbuf.obj
 0001:00063874       ?set_flags@__crt_stdio_stream@@QBE_NJ@Z 10064874 f i libucrt:_sftbuf.obj
 0001:00063898       ?unset_flags@__crt_stdio_stream@@QBE_NJ@Z 10064898 f i libucrt:_sftbuf.obj
 0001:000638c1       ___acrt_should_use_temporary_buffer 100648c1 f   libucrt:_sftbuf.obj
 0001:000638fc       ___acrt_stdio_begin_temporary_buffering_nolock 100648fc f   libucrt:_sftbuf.obj
 0001:000639a8       ___acrt_stdio_end_temporary_buffering_nolock 100649a8 f   libucrt:_sftbuf.obj
 0001:000639e5       ??$?RU__crt_locale_data@@@__crt_internal_free_policy@@QBEXQBU__crt_locale_data@@@Z 100649e5 f i libucrt:wsetlocale.obj
 0001:000639f7       ??$?RU__crt_locale_pointers@@@__crt_internal_free_policy@@QBEXQBU__crt_locale_pointers@@@Z 100649f7 f i libucrt:wsetlocale.obj
 0001:00063a09       ??$?RU__crt_multibyte_data@@@__crt_internal_free_policy@@QBEXQBU__crt_multibyte_data@@@Z 10064a09 f i libucrt:wsetlocale.obj
 0001:00063db2       ??0?$__crt_unique_heap_ptr@U__crt_locale_data@@U__crt_internal_free_policy@@@@QAE@QAU__crt_locale_data@@@Z 10064db2 f i libucrt:wsetlocale.obj
 0001:00063dc2       ??0?$__crt_unique_heap_ptr@U__crt_locale_pointers@@U__crt_internal_free_policy@@@@QAE@QAU__crt_locale_pointers@@@Z 10064dc2 f i libucrt:wsetlocale.obj
 0001:00063dd2       ??0?$__crt_unique_heap_ptr@U__crt_multibyte_data@@U__crt_internal_free_policy@@@@QAE@QAU__crt_multibyte_data@@@Z 10064dd2 f i libucrt:wsetlocale.obj
 0001:00063de2       ??0_expandlocale_locale_name_cache@@QAE@QA_WIQAU__crt_qualified_locale_data@@@Z 10064de2 f i libucrt:wsetlocale.obj
 0001:00063e2c       ??1?$__crt_unique_heap_ptr@U__crt_locale_data@@U__crt_internal_free_policy@@@@QAE@XZ 10064e2c f i libucrt:wsetlocale.obj
 0001:00063e3e       ??1?$__crt_unique_heap_ptr@U__crt_locale_pointers@@U__crt_internal_free_policy@@@@QAE@XZ 10064e3e f i libucrt:wsetlocale.obj
 0001:00063e50       ??1?$__crt_unique_heap_ptr@U__crt_multibyte_data@@U__crt_internal_free_policy@@@@QAE@XZ 10064e50 f i libucrt:wsetlocale.obj
 0001:00063e62       ??1_expandlocale_locale_name_cache@@QAE@XZ 10064e62 f i libucrt:wsetlocale.obj
 0001:00063e92       ??B?$__crt_unique_heap_ptr@U__crt_locale_data@@U__crt_internal_free_policy@@@@QBE_NXZ 10064e92 f i libucrt:wsetlocale.obj
 0001:00063e99       ??B?$__crt_unique_heap_ptr@U__crt_locale_pointers@@U__crt_internal_free_policy@@@@QBE_NXZ 10064e99 f i libucrt:wsetlocale.obj
 0001:00063ea0       ??B?$__crt_unique_heap_ptr@U__crt_multibyte_data@@U__crt_internal_free_policy@@@@QBE_NXZ 10064ea0 f i libucrt:wsetlocale.obj
 0001:000640c0       ?commit_locale_name@_expandlocale_locale_name_cache@@QAEXQB_WI@Z 100650c0 f i libucrt:wsetlocale.obj
 0001:00064104       ?commit_locale_name_cache_already_updated@_expandlocale_locale_name_cache@@QAEXQB_WI@Z 10065104 f i libucrt:wsetlocale.obj
 0001:00064139       ?detach@?$__crt_unique_heap_ptr@U__crt_locale_data@@U__crt_internal_free_policy@@@@QAEPAU__crt_locale_data@@XZ 10065139 f i libucrt:wsetlocale.obj
 0001:0006413f       ?detach@?$__crt_unique_heap_ptr@U__crt_locale_pointers@@U__crt_internal_free_policy@@@@QAEPAU__crt_locale_pointers@@XZ 1006513f f i libucrt:wsetlocale.obj
 0001:00064145       ?detach@?$__crt_unique_heap_ptr@U__crt_multibyte_data@@U__crt_internal_free_policy@@@@QAEPAU__crt_multibyte_data@@XZ 10065145 f i libucrt:wsetlocale.obj
 0001:0006414b       ?get@?$__crt_unique_heap_ptr@U__crt_locale_data@@U__crt_internal_free_policy@@@@QBEPAU__crt_locale_data@@XZ 1006514b f i libucrt:wsetlocale.obj
 0001:0006414e       ?get@?$__crt_unique_heap_ptr@U__crt_locale_pointers@@U__crt_internal_free_policy@@@@QBEPAU__crt_locale_pointers@@XZ 1006514e f i libucrt:wsetlocale.obj
 0001:00064151       ?get@?$__crt_unique_heap_ptr@U__crt_multibyte_data@@U__crt_internal_free_policy@@@@QBEPAU__crt_multibyte_data@@XZ 10065151 f i libucrt:wsetlocale.obj
 0001:00064154       ?is_valid@?$__crt_unique_heap_ptr@U__crt_locale_data@@U__crt_internal_free_policy@@@@QBE_NXZ 10065154 f i libucrt:wsetlocale.obj
 0001:0006415b       ?is_valid@?$__crt_unique_heap_ptr@U__crt_locale_pointers@@U__crt_internal_free_policy@@@@QBE_NXZ 1006515b f i libucrt:wsetlocale.obj
 0001:00064162       ?is_valid@?$__crt_unique_heap_ptr@U__crt_multibyte_data@@U__crt_internal_free_policy@@@@QBE_NXZ 10065162 f i libucrt:wsetlocale.obj
 0001:00064169       ?release@?$__crt_unique_heap_ptr@U__crt_locale_data@@U__crt_internal_free_policy@@@@QAEXXZ 10065169 f i libucrt:wsetlocale.obj
 0001:0006417b       ?release@?$__crt_unique_heap_ptr@U__crt_locale_pointers@@U__crt_internal_free_policy@@@@QAEXXZ 1006517b f i libucrt:wsetlocale.obj
 0001:0006418d       ?release@?$__crt_unique_heap_ptr@U__crt_multibyte_data@@U__crt_internal_free_policy@@@@QAEXXZ 1006518d f i libucrt:wsetlocale.obj
 0001:0006419f       ___acrt_copy_locale_name   1006519f f   libucrt:wsetlocale.obj
 0001:000641ff       ___acrt_set_locale_changed 100651ff f   libucrt:wsetlocale.obj
 0001:0006420a       ___acrt_uninitialize_locale 1006520a f   libucrt:wsetlocale.obj
 0001:00064231       ___ascii_towlower          10065231 f i libucrt:wsetlocale.obj
 0001:00064248       ___lc_lctowcs              10065248 f   libucrt:wsetlocale.obj
 0001:000642b8       ___lc_wcstolc              100652b8 f   libucrt:wsetlocale.obj
 0001:00064408       __configthreadlocale       10065408 f   libucrt:wsetlocale.obj
 0001:00064499       __create_locale            10065499 f   libucrt:wsetlocale.obj
 0001:000648c3       __free_locale              100658c3 f   libucrt:wsetlocale.obj
 0001:00064985       __get_current_locale       10065985 f   libucrt:wsetlocale.obj
 0001:00064a20       __wcreate_locale           10065a20 f   libucrt:wsetlocale.obj
 0001:00064b27       __wcscats                  10065b27 f   libucrt:wsetlocale.obj
 0001:00064b68       __wsetlocale               10065b68 f   libucrt:wsetlocale.obj
 0001:000658cd       ___p___mb_cur_max          100668cd f   libucrt:nlsdata.obj
 0001:00065a7e       ___acrt_initialize_lowio   10066a7e f   libucrt:ioinit.obj
 0001:00065ade       ___acrt_uninitialize_lowio 10066ade f   libucrt:ioinit.obj
 0001:00065b0a       ??0?$__crt_scoped_stack_ptr@_W@@QAE@U?$__crt_scoped_stack_ptr_tag@_W@@@Z 10066b0a f i libucrt:lcmapstringa.obj
 0001:00065b1a       ??0?$__crt_scoped_stack_ptr_tag@_W@@QAE@QA_W@Z 10066b1a f i libucrt:lcmapstringa.obj
 0001:00065b2a       ??1?$__crt_scoped_stack_ptr@_W@@QAE@XZ 10066b2a f i libucrt:lcmapstringa.obj
 0001:00065b33       ??B?$__crt_scoped_stack_ptr@_W@@QBE_NXZ 10066b33 f i libucrt:lcmapstringa.obj
 0001:00065d24       ?get@?$__crt_scoped_stack_ptr@_W@@QBEPA_WXZ 10066d24 f i libucrt:lcmapstringa.obj
 0001:00065d27       ___acrt_LCMapStringA       10066d27 f   libucrt:lcmapstringa.obj
 0001:00065d70       ?dangerous_get_state_array@?$dual_state_global@PAPAD@__crt_state_management@@QAEPAPAPADXZ 10066d70 f i libucrt:timeset.obj
 0001:00065d73       ?dangerous_get_state_array@?$dual_state_global@PAPA_W@__crt_state_management@@QAEPAPAPA_WXZ 10066d73 f i libucrt:timeset.obj
 0001:00065d76       ?initialize@?$dual_state_global@H@__crt_state_management@@QAEXH@Z 10066d76 f i libucrt:timeset.obj
 0001:00065d9c       ?initialize@?$dual_state_global@J@__crt_state_management@@QAEXJ@Z 10066d9c f i libucrt:timeset.obj
 0001:00065dc2       ?value@?$dual_state_global@H@__crt_state_management@@QAEAAHXZ 10066dc2 f i libucrt:timeset.obj
 0001:00065dc5       ?value@?$dual_state_global@J@__crt_state_management@@QAEAAJXZ 10066dc5 f i libucrt:timeset.obj
 0001:00065dc8       ___acrt_initialize_timeset 10066dc8 f   libucrt:timeset.obj
 0001:00065dfd       ___daylight                10066dfd f   libucrt:timeset.obj
 0001:00065e03       ___dstbias                 10066e03 f   libucrt:timeset.obj
 0001:00065e09       ___timezone                10066e09 f   libucrt:timeset.obj
 0001:00065e0f       ___tzname                  10066e0f f   libucrt:timeset.obj
 0001:00065e15       ___wide_tzname             10066e15 f   libucrt:timeset.obj
 0001:00065e1b       __get_daylight             10066e1b f   libucrt:timeset.obj
 0001:00065e47       __get_dstbias              10066e47 f   libucrt:timeset.obj
 0001:00065e73       __get_timezone             10066e73 f   libucrt:timeset.obj
 0001:00065e9f       __get_tzname               10066e9f f   libucrt:timeset.obj
 0001:00065f50       ??$?RUtm@@@__crt_internal_free_policy@@QBEXQBUtm@@@Z 10066f50 f i libucrt:gmtime.obj
 0001:00065f62       ??$__crt_time_elapsed_leap_years@H@@YAHH@Z 10066f62 f i libucrt:gmtime.obj
 0001:00065f9c       ??$__crt_time_is_leap_year@H@@YA_NH@Z 10066f9c f i libucrt:gmtime.obj
 0001:0006627e       ??0?$__crt_unique_heap_ptr@Utm@@U__crt_internal_free_policy@@@@QAE@QAUtm@@@Z 1006727e f i libucrt:gmtime.obj
 0001:0006628e       ??1?$__crt_unique_heap_ptr@Utm@@U__crt_internal_free_policy@@@@QAE@XZ 1006728e f i libucrt:gmtime.obj
 0001:000663bb       ?detach@?$__crt_unique_heap_ptr@Utm@@U__crt_internal_free_policy@@@@QAEPAUtm@@XZ 100673bb f i libucrt:gmtime.obj
 0001:000663c1       ?release@?$__crt_unique_heap_ptr@Utm@@U__crt_internal_free_policy@@@@QAEXXZ 100673c1 f i libucrt:gmtime.obj
 0001:000663d3       ___getgmtimebuf            100673d3 f   libucrt:gmtime.obj
 0001:00066411       __gmtime32                 10067411 f   libucrt:gmtime.obj
 0001:00066438       __gmtime32_s               10067438 f   libucrt:gmtime.obj
 0001:00066443       __gmtime64                 10067443 f   libucrt:gmtime.obj
 0001:0006646a       __gmtime64_s               1006746a f   libucrt:gmtime.obj
 0001:00066475       ?__acrt_get_utf8_acp_compatibility_codepage@@YAIXZ 10067475 f i libucrt:tzset.obj
 0001:000666ce       ?_set_daylight@@YAXH@Z     100676ce f i libucrt:tzset.obj
 0001:000666df       ?_set_dstbias@@YAXJ@Z      100676df f i libucrt:tzset.obj
 0001:000666f0       ?_set_timezone@@YAXJ@Z     100676f0 f i libucrt:tzset.obj
 0001:00066841       ?dangerous_get_state_array@?$dual_state_global@J@__crt_state_management@@QAEPAJXZ 10067841 f i libucrt:tzset.obj
 0001:00066e1e       ___tzset                   10067e1e f   libucrt:tzset.obj
 0001:00066e7b       __isindst                  10067e7b f   libucrt:tzset.obj
 0001:00066ecf       __tzset                    10067ecf f   libucrt:tzset.obj
 0001:00066f79       ___acrt_MultiByteToWideChar 10067f79 f   libucrt:multibytetowidechar.obj
 0001:0006705a       ___acrt_WideCharToMultiByte 1006805a f   libucrt:widechartomultibyte.obj
 0001:00067111       ?__crt_get_2digit_year@@YAHH@Z 10068111 f i libucrt:wcsftime.obj
 0001:00067128       ?__crt_get_century@@YAHH@Z 10068128 f i libucrt:wcsftime.obj
 0001:000681a0       __W_Getdays                100691a0 f   libucrt:wcsftime.obj
 0001:000682ff       __W_Getmonths              100692ff f   libucrt:wcsftime.obj
 0001:0006845e       __W_Gettnames              1006945e f   libucrt:wcsftime.obj
 0001:00068b5a       __Wcsftime                 10069b5a f   libucrt:wcsftime.obj
 0001:00068b7a       __Wcsftime_l               10069b7a f   libucrt:wcsftime.obj
 0001:00068ceb       __wcsftime_l               10069ceb f   libucrt:wcsftime.obj
 0001:00068d0b       _wcsftime                  10069d0b f   libucrt:wcsftime.obj
 0001:00068d37       ??$?B$$A6GHPA_WKJ@Z@__crt_fast_encoded_nullptr_t@@QBEP6GHPA_WKJ@ZXZ 10069d37 f i libucrt:winapi_thunks.obj
 0001:00068ddf       ??$__crt_fast_decode_pointer@P6GHPA_WKJ@Z@@YAP6GHPA_WKJ@ZQ6GH0KJ@Z@Z 10069ddf f i libucrt:winapi_thunks.obj
 0001:00068df5       ??$__crt_fast_decode_pointer@PAX@@YAPAXQAX@Z 10069df5 f i libucrt:winapi_thunks.obj
 0001:00068e0b       ??$__crt_fast_encode_pointer@P6GHPA_WKJ@Z@@YAP6GHPA_WKJ@ZQ6GH0KJ@Z@Z 10069e0b f i libucrt:winapi_thunks.obj
 0001:00069497       _GetCurrentThreadEffectiveToken 1006a497 f i libucrt:winapi_thunks.obj
 0001:0006949b       ___acrt_AppPolicyGetProcessTerminationMethodInternal@4 1006a49b f   libucrt:winapi_thunks.obj
 0001:000694db       ___acrt_AppPolicyGetShowDeveloperDiagnosticInternal@4 1006a4db f   libucrt:winapi_thunks.obj
 0001:0006951b       ___acrt_AppPolicyGetThreadInitializationTypeInternal@4 1006a51b f   libucrt:winapi_thunks.obj
 0001:0006955b       ___acrt_AppPolicyGetWindowingModelInternal@4 1006a55b f   libucrt:winapi_thunks.obj
 0001:0006959b       ___acrt_AreFileApisANSI@0  1006a59b f   libucrt:winapi_thunks.obj
 0001:000695ba       ___acrt_CompareStringEx@36 1006a5ba f   libucrt:winapi_thunks.obj
 0001:00069617       ___acrt_EnumSystemLocalesEx@16 1006a617 f   libucrt:winapi_thunks.obj
 0001:0006966b       ___acrt_FlsAlloc@4         1006a66b f   libucrt:winapi_thunks.obj
 0001:000696aa       ___acrt_FlsFree@4          1006a6aa f   libucrt:winapi_thunks.obj
 0001:000696e9       ___acrt_FlsGetValue@4      1006a6e9 f   libucrt:winapi_thunks.obj
 0001:00069728       ___acrt_FlsSetValue@8      1006a728 f   libucrt:winapi_thunks.obj
 0001:0006976a       ___acrt_GetDateFormatEx@28 1006a76a f   libucrt:winapi_thunks.obj
 0001:000697c1       ___acrt_GetEnabledXStateFeatures@0 1006a7c1 f   libucrt:winapi_thunks.obj
 0001:000697f5       ___acrt_GetLocaleInfoEx@16 1006a7f5 f   libucrt:winapi_thunks.obj
 0001:00069834       ___acrt_GetSystemTimePreciseAsFileTime@4 1006a834 f   libucrt:winapi_thunks.obj
 0001:00069873       ___acrt_GetTimeFormatEx@24 1006a873 f   libucrt:winapi_thunks.obj
 0001:000698b8       ___acrt_GetUserDefaultLocaleName@8 1006a8b8 f   libucrt:winapi_thunks.obj
 0001:000698f4       ___acrt_GetXStateFeaturesMask@8 1006a8f4 f   libucrt:winapi_thunks.obj
 0001:00069934       ___acrt_InitializeCriticalSectionEx@12 1006a934 f   libucrt:winapi_thunks.obj
 0001:0006997f       ___acrt_IsValidLocaleName@4 1006a97f f   libucrt:winapi_thunks.obj
 0001:000699b7       ___acrt_LCIDToLocaleName@16 1006a9b7 f   libucrt:winapi_thunks.obj
 0001:000699f6       ___acrt_LCMapStringEx@36   1006a9f6 f   libucrt:winapi_thunks.obj
 0001:00069a53       ___acrt_LocaleNameToLCID@8 1006aa53 f   libucrt:winapi_thunks.obj
 0001:00069a84       ___acrt_LocateXStateFeature@12 1006aa84 f   libucrt:winapi_thunks.obj
 0001:00069ab3       ___acrt_MessageBoxA@16     1006aab3 f   libucrt:winapi_thunks.obj
 0001:00069ae5       ___acrt_MessageBoxW@16     1006aae5 f   libucrt:winapi_thunks.obj
 0001:00069b17       ___acrt_RoInitialize@4     1006ab17 f   libucrt:winapi_thunks.obj
 0001:00069b52       ___acrt_RoUninitialize@0   1006ab52 f   libucrt:winapi_thunks.obj
 0001:00069b80       ___acrt_RtlGenRandom@8     1006ab80 f   libucrt:winapi_thunks.obj
 0001:00069bc0       ___acrt_SetThreadStackGuarantee@4 1006abc0 f   libucrt:winapi_thunks.obj
 0001:00069bfb       ___acrt_can_show_message_box 1006abfb f   libucrt:winapi_thunks.obj
 0001:00069c22       ___acrt_can_use_vista_locale_apis 1006ac22 f   libucrt:winapi_thunks.obj
 0001:00069c2d       ___acrt_can_use_xstate_apis 1006ac2d f   libucrt:winapi_thunks.obj
 0001:00069c38       ___acrt_eagerly_load_locale_apis 1006ac38 f   libucrt:winapi_thunks.obj
 0001:00069c6f       ___acrt_get_parent_window  1006ac6f f   libucrt:winapi_thunks.obj
 0001:00069cd7       ___acrt_initialize_winapi_thunks 1006acd7 f   libucrt:winapi_thunks.obj
 0001:00069d02       ___acrt_is_interactive     1006ad02 f   libucrt:winapi_thunks.obj
 0001:00069da1       ___acrt_uninitialize_winapi_thunks 1006ada1 f   libucrt:winapi_thunks.obj
 0001:00069dd7       ___pctype_func             1006add7 f   libucrt:ctype.obj
 0001:00069dfb       ___pwctype_func            1006adfb f   libucrt:ctype.obj
 0001:00069e01       __iswctype_l               1006ae01 f   libucrt:iswctype.obj
 0001:00069e15       _iswctype                  1006ae15 f   libucrt:iswctype.obj
 0001:00069e7e       __isctype                  1006ae7e f   libucrt:isctype.obj
 0001:00069eb1       __isctype_l                1006aeb1 f   libucrt:isctype.obj
 0001:00069f7c       __isleadbyte_fast_internal 1006af7c f i libucrt:isctype.obj
 0001:0006a065       _wcsncpy_s                 1006b065 f   libucrt:wcsncpy_s.obj
 0001:0006a123       _strncpy_s                 1006b123 f   libucrt:strncpy_s.obj
 0001:0006a185       __ismbbalnum               1006b185 f   libucrt:ismbbyte.obj
 0001:0006a1a0       __ismbbalnum_l             1006b1a0 f   libucrt:ismbbyte.obj
 0001:0006a1bc       __ismbbalpha               1006b1bc f   libucrt:ismbbyte.obj
 0001:0006a1d7       __ismbbalpha_l             1006b1d7 f   libucrt:ismbbyte.obj
 0001:0006a1f3       __ismbbblank               1006b1f3 f   libucrt:ismbbyte.obj
 0001:0006a216       __ismbbblank_l             1006b216 f   libucrt:ismbbyte.obj
 0001:0006a23a       __ismbbgraph               1006b23a f   libucrt:ismbbyte.obj
 0001:0006a255       __ismbbgraph_l             1006b255 f   libucrt:ismbbyte.obj
 0001:0006a271       __ismbbkalnum              1006b271 f   libucrt:ismbbyte.obj
 0001:0006a289       __ismbbkalnum_l            1006b289 f   libucrt:ismbbyte.obj
 0001:0006a2a2       __ismbbkana                1006b2a2 f   libucrt:ismbbyte.obj
 0001:0006a2b5       __ismbbkana_l              1006b2b5 f   libucrt:ismbbyte.obj
 0001:0006a304       __ismbbkprint              1006b304 f   libucrt:ismbbyte.obj
 0001:0006a31c       __ismbbkprint_l            1006b31c f   libucrt:ismbbyte.obj
 0001:0006a335       __ismbbkpunct              1006b335 f   libucrt:ismbbyte.obj
 0001:0006a34d       __ismbbkpunct_l            1006b34d f   libucrt:ismbbyte.obj
 0001:0006a366       __ismbblead                1006b366 f   libucrt:ismbbyte.obj
 0001:0006a37e       __ismbblead_l              1006b37e f   libucrt:ismbbyte.obj
 0001:0006a397       __ismbbprint               1006b397 f   libucrt:ismbbyte.obj
 0001:0006a3b2       __ismbbprint_l             1006b3b2 f   libucrt:ismbbyte.obj
 0001:0006a3ce       __ismbbpunct               1006b3ce f   libucrt:ismbbyte.obj
 0001:0006a3e6       __ismbbpunct_l             1006b3e6 f   libucrt:ismbbyte.obj
 0001:0006a3ff       __ismbbtrail               1006b3ff f   libucrt:ismbbyte.obj
 0001:0006a417       __ismbbtrail_l             1006b417 f   libucrt:ismbbyte.obj
 0001:0006a430       ___acrt_initialize_sse2    1006b430 f   libucrt:mathfcns.obj
 0001:0006a440       __set_SSE2_enable          1006b440 f   libucrt:mathfcns.obj
 0001:0006a470       __CIcos                    1006b470 f   libucrt:cos_impl.obj
 0001:0006a4ab       __CIcos_default            1006b4ab f   libucrt:cos_impl.obj
 0001:0006a4bf       __cos_default              1006b4bf     libucrt:cos_impl.obj
 0001:0006a560       __CIcos_pentium4           1006b560 f   libucrt:cos_pentium4.obj
 0001:0006a578       __cos_pentium4             1006b578     libucrt:cos_pentium4.obj
 0001:0006a710       __CIsin                    1006b710 f   libucrt:sin_impl.obj
 0001:0006a74b       __CIsin_default            1006b74b f   libucrt:sin_impl.obj
 0001:0006a75f       __sin_default              1006b75f     libucrt:sin_impl.obj
 0001:0006a800       __CIsin_pentium4           1006b800 f   libucrt:sin_pentium4.obj
 0001:0006a818       __sin_pentium4             1006b818     libucrt:sin_pentium4.obj
 0001:0006a9c8       ___acrt_initialize_locks   1006b9c8 f   libucrt:locks.obj
 0001:0006aa09       ___acrt_lock               1006ba09 f   libucrt:locks.obj
